---
triple:          'arm64-apple-darwin'
binary-path:     '/Users/zhazhahui/mathpackage_test/testeigen_add_sub/add_sub_test'
relocations:
  - { offsetInCU: 0x44, offset: 0x44, size: 0x8, addend: 0x0, symName: __ZN5EigenL4lastE, symObjAddr: 0x6A868, symBinAddr: 0x10000C000, symSize: 0x0 }
  - { offsetInCU: 0x1C51, offset: 0x1C51, size: 0x8, addend: 0x0, symName: __ZN5Eigen8internal31conditional_aligned_delete_autoIdLb1EEEvPT_m, symObjAddr: 0x820, symBinAddr: 0x100002D60, symSize: 0x28 }
  - { offsetInCU: 0x1C9D, offset: 0x1C9D, size: 0x8, addend: 0x0, symName: __ZN5Eigen8internal24conditional_aligned_freeILb1EEEvPv, symObjAddr: 0x854, symBinAddr: 0x100002D94, symSize: 0x24 }
  - { offsetInCU: 0x1CD1, offset: 0x1CD1, size: 0x8, addend: 0x0, symName: __ZN5Eigen8internal12aligned_freeEPv, symObjAddr: 0x878, symBinAddr: 0x100002DB8, symSize: 0x24 }
  - { offsetInCU: 0x1D33, offset: 0x1D33, size: 0x8, addend: 0x0, symName: __ZN5Eigen8internal19throw_std_bad_allocEv, symObjAddr: 0x10A0, symBinAddr: 0x1000035E0, symSize: 0x34 }
  - { offsetInCU: 0x1D6F, offset: 0x1D6F, size: 0x8, addend: 0x0, symName: __ZN5Eigen8internal28conditional_aligned_new_autoIdLb1EEEPT_m, symObjAddr: 0x11A0, symBinAddr: 0x1000036E0, symSize: 0x84 }
  - { offsetInCU: 0x1DDD, offset: 0x1DDD, size: 0x8, addend: 0x0, symName: __ZN5Eigen8internal26conditional_aligned_mallocILb1EEEPvm, symObjAddr: 0x1224, symBinAddr: 0x100003764, symSize: 0x24 }
  - { offsetInCU: 0x1E13, offset: 0x1E13, size: 0x8, addend: 0x0, symName: __ZN5Eigen8internal14aligned_mallocEm, symObjAddr: 0x1248, symBinAddr: 0x100003788, symSize: 0xDC }
  - { offsetInCU: 0x1E54, offset: 0x1E54, size: 0x8, addend: 0x0, symName: __ZN5Eigen8internal28check_that_malloc_is_allowedEv, symObjAddr: 0x1324, symBinAddr: 0x100003864, symSize: 0x4 }
  - { offsetInCU: 0x1E6D, offset: 0x1E6D, size: 0x8, addend: 0x0, symName: __ZN5Eigen8internal24call_assignment_no_aliasINS_6MatrixIdLin1ELin1ELi0ELin1ELin1EEENS_14CwiseNullaryOpINS0_16scalar_random_opIdEES3_EENS0_9assign_opIddEEEEvRT_RKT0_RKT1_, symObjAddr: 0x1328, symBinAddr: 0x100003868, symSize: 0x3C }
  - { offsetInCU: 0x1F45, offset: 0x1F45, size: 0x8, addend: 0x0, symName: __ZN5Eigen8internal18check_for_aliasingINS_6MatrixIdLin1ELin1ELi0ELin1ELin1EEENS_14CwiseNullaryOpINS0_16scalar_random_opIdEES3_EEEEvRKT_RKT0_, symObjAddr: 0x13E4, symBinAddr: 0x100003924, symSize: 0x60 }
  - { offsetInCU: 0x1F90, offset: 0x1F90, size: 0x8, addend: 0x0, symName: __ZN5Eigen8internal26call_dense_assignment_loopINS_6MatrixIdLin1ELin1ELi0ELin1ELin1EEENS_14CwiseNullaryOpINS0_16scalar_random_opIdEES3_EENS0_9assign_opIddEEEEvRT_RKT0_RKT1_, symObjAddr: 0x1444, symBinAddr: 0x100003984, symSize: 0xE0 }
  - { offsetInCU: 0x21D6, offset: 0x21D6, size: 0x8, addend: 0x0, symName: __ZN5Eigen8internal17resize_if_allowedINS_6MatrixIdLin1ELin1ELi0ELin1ELin1EEENS_14CwiseNullaryOpINS0_16scalar_random_opIdEES3_EEddEEvRT_RKT0_RKNS0_9assign_opIT1_T2_EE, symObjAddr: 0x15E4, symBinAddr: 0x100003B24, symSize: 0xF8 }
  - { offsetInCU: 0x24AE, offset: 0x24AE, size: 0x8, addend: 0x0, symName: __ZN5Eigen8internal6randomIdEENS0_13random_retvalINS0_36global_math_functions_filtering_baseIT_vE4typeEE4typeEv, symObjAddr: 0x1D40, symBinAddr: 0x100004280, symSize: 0x14 }
  - { offsetInCU: 0x2529, offset: 0x2529, size: 0x8, addend: 0x0, symName: __ZN5Eigen8internal24call_assignment_no_aliasINS_6MatrixIdLin1ELin1ELi0ELin1ELin1EEENS_13CwiseBinaryOpINS0_13scalar_sum_opIddEEKS3_S7_EENS0_9assign_opIddEEEEvRT_RKT0_RKT1_, symObjAddr: 0x2354, symBinAddr: 0x100004894, symSize: 0x3C }
  - { offsetInCU: 0x25F7, offset: 0x25F7, size: 0x8, addend: 0x0, symName: __ZN5Eigen8internal18check_for_aliasingINS_6MatrixIdLin1ELin1ELi0ELin1ELin1EEENS_13CwiseBinaryOpINS0_13scalar_sum_opIddEEKS3_S7_EEEEvRKT_RKT0_, symObjAddr: 0x23D0, symBinAddr: 0x100004910, symSize: 0x60 }
  - { offsetInCU: 0x2642, offset: 0x2642, size: 0x8, addend: 0x0, symName: __ZN5Eigen8internal26call_dense_assignment_loopINS_6MatrixIdLin1ELin1ELi0ELin1ELin1EEENS_13CwiseBinaryOpINS0_13scalar_sum_opIddEEKS3_S7_EENS0_9assign_opIddEEEEvRT_RKT0_RKT1_, symObjAddr: 0x2430, symBinAddr: 0x100004970, symSize: 0xD8 }
  - { offsetInCU: 0x2734, offset: 0x2734, size: 0x8, addend: 0x0, symName: __ZN5Eigen8internal17resize_if_allowedINS_6MatrixIdLin1ELin1ELi0ELin1ELin1EEENS_13CwiseBinaryOpINS0_13scalar_sum_opIddEEKS3_S7_EEddEEvRT_RKT0_RKNS0_9assign_opIT1_T2_EE, symObjAddr: 0x2550, symBinAddr: 0x100004A90, symSize: 0xF8 }
  - { offsetInCU: 0x28BA, offset: 0x28BA, size: 0x8, addend: 0x0, symName: __ZN5Eigen8internal6pstoreId19__simd128_float64_tEEvPT_RKT0_, symObjAddr: 0x2C0C, symBinAddr: 0x10000514C, symSize: 0x2C }
  - { offsetInCU: 0x2973, offset: 0x2973, size: 0x8, addend: 0x0, symName: __ZN5Eigen8internal4paddI19__simd128_float64_tEET_RKS3_S5_, symObjAddr: 0x2CB8, symBinAddr: 0x1000051F8, symSize: 0x40 }
  - { offsetInCU: 0x29B9, offset: 0x29B9, size: 0x8, addend: 0x0, symName: __ZN5Eigen8internal5ploadI19__simd128_float64_tEET_PKNS0_15unpacket_traitsIS3_E4typeE, symObjAddr: 0x2CF8, symBinAddr: 0x100005238, symSize: 0x28 }
  - { offsetInCU: 0x2A0D, offset: 0x2A0D, size: 0x8, addend: 0x0, symName: __ZN5Eigen8internal24call_assignment_no_aliasINS_6MatrixIdLin1ELin1ELi0ELin1ELin1EEENS_13CwiseBinaryOpINS0_20scalar_difference_opIddEEKS3_S7_EENS0_9assign_opIddEEEEvRT_RKT0_RKT1_, symObjAddr: 0x33CC, symBinAddr: 0x10000590C, symSize: 0x3C }
  - { offsetInCU: 0x2ADB, offset: 0x2ADB, size: 0x8, addend: 0x0, symName: __ZN5Eigen8internal18check_for_aliasingINS_6MatrixIdLin1ELin1ELi0ELin1ELin1EEENS_13CwiseBinaryOpINS0_20scalar_difference_opIddEEKS3_S7_EEEEvRKT_RKT0_, symObjAddr: 0x3448, symBinAddr: 0x100005988, symSize: 0x60 }
  - { offsetInCU: 0x2B26, offset: 0x2B26, size: 0x8, addend: 0x0, symName: __ZN5Eigen8internal26call_dense_assignment_loopINS_6MatrixIdLin1ELin1ELi0ELin1ELin1EEENS_13CwiseBinaryOpINS0_20scalar_difference_opIddEEKS3_S7_EENS0_9assign_opIddEEEEvRT_RKT0_RKT1_, symObjAddr: 0x34A8, symBinAddr: 0x1000059E8, symSize: 0xD8 }
  - { offsetInCU: 0x2C18, offset: 0x2C18, size: 0x8, addend: 0x0, symName: __ZN5Eigen8internal17resize_if_allowedINS_6MatrixIdLin1ELin1ELi0ELin1ELin1EEENS_13CwiseBinaryOpINS0_20scalar_difference_opIddEEKS3_S7_EEddEEvRT_RKT0_RKNS0_9assign_opIT1_T2_EE, symObjAddr: 0x35C8, symBinAddr: 0x100005B08, symSize: 0xF8 }
  - { offsetInCU: 0x2C9E, offset: 0x2C9E, size: 0x8, addend: 0x0, symName: __ZN5Eigen8internal4psubI19__simd128_float64_tEET_RKS3_S5_, symObjAddr: 0x3BC8, symBinAddr: 0x100006108, symSize: 0x40 }
  - { offsetInCU: 0x2D59, offset: 0x2D59, size: 0x8, addend: 0x0, symName: __ZN5EigenL6lastp1E, symObjAddr: 0x6A869, symBinAddr: 0x10000C001, symSize: 0x0 }
  - { offsetInCU: 0x2D72, offset: 0x2D72, size: 0x8, addend: 0x0, symName: __ZN5EigenL3allE, symObjAddr: 0x6A86B, symBinAddr: 0x10000C003, symSize: 0x0 }
  - { offsetInCU: 0xA2DC, offset: 0xA2DC, size: 0x8, addend: 0x0, symName: __ZN5Eigen3fixILi1EEENS_8internal8FixedIntIXT_EEEv, symObjAddr: 0x74, symBinAddr: 0x1000025B4, symSize: 0x20 }
  - { offsetInCU: 0xE2C2, offset: 0xE2C2, size: 0x8, addend: 0x0, symName: __ZNSt3__16chronomiB8ue170006IxNS_5ratioILl1ELl1000000000EEExS3_EENS_11common_typeIJNS0_8durationIT_T0_EENS5_IT1_T2_EEEE4typeERKS8_RKSB_, symObjAddr: 0x3DC4, symBinAddr: 0x100006304, symSize: 0x70 }
  - { offsetInCU: 0xE32F, offset: 0xE32F, size: 0x8, addend: 0x0, symName: __ZNSt3__16chronomiB8ue170006INS0_12steady_clockENS0_8durationIxNS_5ratioILl1ELl1000000000EEEEES6_EENS_11common_typeIJT0_T1_EE4typeERKNS0_10time_pointIT_S8_EERKNSC_ISD_S9_EE, symObjAddr: 0x4A8, symBinAddr: 0x1000029E8, symSize: 0x58 }
  - { offsetInCU: 0xE387, offset: 0xE387, size: 0x8, addend: 0x0, symName: __ZNSt3__16chrono13duration_castB8ue170006INS0_8durationIdNS_5ratioILl1ELl1EEEEExNS3_ILl1ELl1000000000EEEEENS_9enable_ifIXsr13__is_durationIT_EE5valueES8_E4typeERKNS2_IT0_T1_EE, symObjAddr: 0x65C, symBinAddr: 0x100002B9C, symSize: 0x30 }
  - { offsetInCU: 0xE615, offset: 0xE615, size: 0x8, addend: 0x0, symName: __ZNSt3__124__put_character_sequenceB8ue170006IcNS_11char_traitsIcEEEERNS_13basic_ostreamIT_T0_EES7_PKS4_m, symObjAddr: 0x3EB8, symBinAddr: 0x1000063F8, symSize: 0x1EC }
  - { offsetInCU: 0xFF85, offset: 0xFF85, size: 0x8, addend: 0x0, symName: __ZNSt3__1lsB8ue170006INS_11char_traitsIcEEEERNS_13basic_ostreamIcT_EES6_PKc, symObjAddr: 0x53C, symBinAddr: 0x100002A7C, symSize: 0x48 }
  - { offsetInCU: 0xFFCB, offset: 0xFFCB, size: 0x8, addend: 0x0, symName: __ZNSt3__116__pad_and_outputB8ue170006IcNS_11char_traitsIcEEEENS_19ostreambuf_iteratorIT_T0_EES6_PKS4_S8_S8_RNS_8ios_baseES4_, symObjAddr: 0x40F4, symBinAddr: 0x100006634, symSize: 0x240 }
  - { offsetInCU: 0x1009A, offset: 0x1009A, size: 0x8, addend: 0x0, symName: __ZNSt3__112__to_addressB8ue170006IKcEEPT_S3_, symObjAddr: 0x465C, symBinAddr: 0x100006B9C, symSize: 0x14 }
  - { offsetInCU: 0x10102, offset: 0x10102, size: 0x8, addend: 0x0, symName: __ZNSt3__19use_facetB8ue170006INS_5ctypeIcEEEERKT_RKNS_6localeE, symObjAddr: 0x48DC, symBinAddr: 0x100006E1C, symSize: 0x2C }
  - { offsetInCU: 0x105CF, offset: 0x105CF, size: 0x8, addend: 0x0, symName: __ZNSt3__118__constexpr_strlenB8ue170006EPKc, symObjAddr: 0x4974, symBinAddr: 0x100006EB4, symSize: 0x24 }
  - { offsetInCU: 0x110DB, offset: 0x110DB, size: 0x8, addend: 0x0, symName: __ZN5Eigen8internal21dense_assignment_loopINS0_31generic_dense_assignment_kernelINS0_9evaluatorINS_6MatrixIdLin1ELin1ELi0ELin1ELin1EEEEENS3_INS_13CwiseBinaryOpINS0_13scalar_sum_opIddEEKS5_SA_EEEENS0_9assign_opIddEELi0EEELi3ELi0EE3runERSF_, symObjAddr: 0x2694, symBinAddr: 0x100004BD4, symSize: 0xA8 }
  - { offsetInCU: 0x113BC, offset: 0x113BC, size: 0x8, addend: 0x0, symName: __ZN5Eigen8internal21dense_assignment_loopINS0_31generic_dense_assignment_kernelINS0_9evaluatorINS_6MatrixIdLin1ELin1ELi0ELin1ELin1EEEEENS3_INS_13CwiseBinaryOpINS0_20scalar_difference_opIddEEKS5_SA_EEEENS0_9assign_opIddEELi0EEELi3ELi0EE3runERSF_, symObjAddr: 0x370C, symBinAddr: 0x100005C4C, symSize: 0xA8 }
  - { offsetInCU: 0x11615, offset: 0x11615, size: 0x8, addend: 0x0, symName: __ZNKSt3__16chrono15__duration_castINS0_8durationIxNS_5ratioILl1ELl1000000000EEEEENS2_IdNS3_ILl1ELl1EEEEES4_Lb1ELb0EEclB8ue170006ERKS5_, symObjAddr: 0x68C, symBinAddr: 0x100002BCC, symSize: 0x50 }
  - { offsetInCU: 0x13A8B, offset: 0x13A8B, size: 0x8, addend: 0x0, symName: __ZN5Eigen8symbolic10SymbolExprINS_8internal17symbolic_last_tagEEC1Ev, symObjAddr: 0x0, symBinAddr: 0x100002540, symSize: 0x2C }
  - { offsetInCU: 0x13AB5, offset: 0x13AB5, size: 0x8, addend: 0x0, symName: __ZNK5Eigen8symbolic8BaseExprINS0_10SymbolExprINS_8internal17symbolic_last_tagEEEEplILi1EEENS0_7AddExprIS5_NS0_9ValueExprINS3_8FixedIntIXT_EEEEEEESB_, symObjAddr: 0x2C, symBinAddr: 0x10000256C, symSize: 0x48 }
  - { offsetInCU: 0x13AF0, offset: 0x13AF0, size: 0x8, addend: 0x0, symName: __ZN5Eigen8internal5all_tC1Ev, symObjAddr: 0x94, symBinAddr: 0x1000025D4, symSize: 0x2C }
  - { offsetInCU: 0x13B19, offset: 0x13B19, size: 0x8, addend: 0x0, symName: __Z32testMatrixAdditionAndSubtractioni, symObjAddr: 0xC0, symBinAddr: 0x100002600, symSize: 0x234 }
  - { offsetInCU: 0x13BAA, offset: 0x13BAA, size: 0x8, addend: 0x0, symName: __ZN5Eigen9DenseBaseINS_6MatrixIdLin1ELin1ELi0ELin1ELin1EEEE6RandomEll, symObjAddr: 0x2F4, symBinAddr: 0x100002834, symSize: 0x58 }
  - { offsetInCU: 0x13BE4, offset: 0x13BE4, size: 0x8, addend: 0x0, symName: __ZN5Eigen6MatrixIdLin1ELin1ELi0ELin1ELin1EEC1INS_14CwiseNullaryOpINS_8internal16scalar_random_opIdEES1_EEEERKNS_9EigenBaseIT_EE, symObjAddr: 0x34C, symBinAddr: 0x10000288C, symSize: 0x34 }
  - { offsetInCU: 0x13C26, offset: 0x13C26, size: 0x8, addend: 0x0, symName: __ZNK5Eigen10MatrixBaseINS_6MatrixIdLin1ELin1ELi0ELin1ELin1EEEEplIS2_EEKNS_13CwiseBinaryOpINS_8internal13scalar_sum_opIdNS6_6traitsIT_E6ScalarEEEKS2_KS9_EERKNS0_IS9_EE, symObjAddr: 0x380, symBinAddr: 0x1000028C0, symSize: 0x60 }
  - { offsetInCU: 0x13C68, offset: 0x13C68, size: 0x8, addend: 0x0, symName: __ZN5Eigen6MatrixIdLin1ELin1ELi0ELin1ELin1EEC1INS_13CwiseBinaryOpINS_8internal13scalar_sum_opIddEEKS1_S7_EEEERKNS_9EigenBaseIT_EE, symObjAddr: 0x3E0, symBinAddr: 0x100002920, symSize: 0x34 }
  - { offsetInCU: 0x13CAA, offset: 0x13CAA, size: 0x8, addend: 0x0, symName: __ZNK5Eigen10MatrixBaseINS_6MatrixIdLin1ELin1ELi0ELin1ELin1EEEEmiIS2_EEKNS_13CwiseBinaryOpINS_8internal20scalar_difference_opIdNS6_6traitsIT_E6ScalarEEEKS2_KS9_EERKNS0_IS9_EE, symObjAddr: 0x414, symBinAddr: 0x100002954, symSize: 0x60 }
  - { offsetInCU: 0x13CEC, offset: 0x13CEC, size: 0x8, addend: 0x0, symName: __ZN5Eigen6MatrixIdLin1ELin1ELi0ELin1ELin1EEC1INS_13CwiseBinaryOpINS_8internal20scalar_difference_opIddEEKS1_S7_EEEERKNS_9EigenBaseIT_EE, symObjAddr: 0x474, symBinAddr: 0x1000029B4, symSize: 0x34 }
  - { offsetInCU: 0x13D33, offset: 0x13D33, size: 0x8, addend: 0x0, symName: __ZNSt3__16chrono8durationIdNS_5ratioILl1ELl1EEEEC1B8ue170006IxNS2_ILl1ELl1000000000EEEEERKNS1_IT_T0_EEPNS_9enable_ifIXaasr13__no_overflowIS8_S3_EE5valueooL_ZNS_17integral_constantIbLb1EE5valueEEaaeqsr13__no_overflowIS8_S3_E4typeE3denLi1Entsr23treat_as_floating_pointIS7_EE5valueEvE4typeE, symObjAddr: 0x500, symBinAddr: 0x100002A40, symSize: 0x3C }
  - { offsetInCU: 0x13D89, offset: 0x13D89, size: 0x8, addend: 0x0, symName: __ZNKSt3__16chrono8durationIdNS_5ratioILl1ELl1EEEE5countB8ue170006Ev, symObjAddr: 0x584, symBinAddr: 0x100002AC4, symSize: 0x18 }
  - { offsetInCU: 0x13DAF, offset: 0x13DAF, size: 0x8, addend: 0x0, symName: __ZN5Eigen6MatrixIdLin1ELin1ELi0ELin1ELin1EED1Ev, symObjAddr: 0x59C, symBinAddr: 0x100002ADC, symSize: 0x2C }
  - { offsetInCU: 0x13DDB, offset: 0x13DDB, size: 0x8, addend: 0x0, symName: _main, symObjAddr: 0x5C8, symBinAddr: 0x100002B08, symSize: 0x38 }
  - { offsetInCU: 0x13DF5, offset: 0x13DF5, size: 0x8, addend: 0x0, symName: __ZN5Eigen8internal5all_tC2Ev, symObjAddr: 0x600, symBinAddr: 0x100002B40, symSize: 0x14 }
  - { offsetInCU: 0x13E1F, offset: 0x13E1F, size: 0x8, addend: 0x0, symName: __ZNSt3__16chrono8durationIdNS_5ratioILl1ELl1EEEEC2B8ue170006IxNS2_ILl1ELl1000000000EEEEERKNS1_IT_T0_EEPNS_9enable_ifIXaasr13__no_overflowIS8_S3_EE5valueooL_ZNS_17integral_constantIbLb1EE5valueEEaaeqsr13__no_overflowIS8_S3_E4typeE3denLi1Entsr23treat_as_floating_pointIS7_EE5valueEvE4typeE, symObjAddr: 0x614, symBinAddr: 0x100002B54, symSize: 0x48 }
  - { offsetInCU: 0x13E75, offset: 0x13E75, size: 0x8, addend: 0x0, symName: __ZNKSt3__16chrono8durationIxNS_5ratioILl1ELl1000000000EEEE5countB8ue170006Ev, symObjAddr: 0x6DC, symBinAddr: 0x100002C1C, symSize: 0x18 }
  - { offsetInCU: 0x13E9B, offset: 0x13E9B, size: 0x8, addend: 0x0, symName: __ZNSt3__16chrono8durationIdNS_5ratioILl1ELl1EEEEC1B8ue170006IdEERKT_PNS_9enable_ifIXaasr14is_convertibleIS8_dEE5valueooL_ZNS_17integral_constantIbLb1EE5valueEEntsr23treat_as_floating_pointIS6_EE5valueEvE4typeE, symObjAddr: 0x6F4, symBinAddr: 0x100002C34, symSize: 0x3C }
  - { offsetInCU: 0x13EE7, offset: 0x13EE7, size: 0x8, addend: 0x0, symName: __ZNSt3__16chrono8durationIdNS_5ratioILl1ELl1EEEEC2B8ue170006IdEERKT_PNS_9enable_ifIXaasr14is_convertibleIS8_dEE5valueooL_ZNS_17integral_constantIbLb1EE5valueEEntsr23treat_as_floating_pointIS6_EE5valueEvE4typeE, symObjAddr: 0x730, symBinAddr: 0x100002C70, symSize: 0x28 }
  - { offsetInCU: 0x13F33, offset: 0x13F33, size: 0x8, addend: 0x0, symName: __ZN5Eigen6MatrixIdLin1ELin1ELi0ELin1ELin1EED2Ev, symObjAddr: 0x758, symBinAddr: 0x100002C98, symSize: 0x2C }
  - { offsetInCU: 0x13F5F, offset: 0x13F5F, size: 0x8, addend: 0x0, symName: __ZN5Eigen15PlainObjectBaseINS_6MatrixIdLin1ELin1ELi0ELin1ELin1EEEED2Ev, symObjAddr: 0x784, symBinAddr: 0x100002CC4, symSize: 0x2C }
  - { offsetInCU: 0x13F8B, offset: 0x13F8B, size: 0x8, addend: 0x0, symName: __ZN5Eigen12DenseStorageIdLin1ELin1ELin1ELi0EED1Ev, symObjAddr: 0x7B0, symBinAddr: 0x100002CF0, symSize: 0x2C }
  - { offsetInCU: 0x13FB5, offset: 0x13FB5, size: 0x8, addend: 0x0, symName: __ZN5Eigen12DenseStorageIdLin1ELin1ELin1ELi0EED2Ev, symObjAddr: 0x7DC, symBinAddr: 0x100002D1C, symSize: 0x44 }
  - { offsetInCU: 0x13FDF, offset: 0x13FDF, size: 0x8, addend: 0x0, symName: __ZN5Eigen8symbolic10SymbolExprINS_8internal17symbolic_last_tagEEC2Ev, symObjAddr: 0x89C, symBinAddr: 0x100002DDC, symSize: 0x14 }
  - { offsetInCU: 0x14009, offset: 0x14009, size: 0x8, addend: 0x0, symName: __ZN5Eigen8internal8FixedIntILi1EEC1Ev, symObjAddr: 0x8B0, symBinAddr: 0x100002DF0, symSize: 0x2C }
  - { offsetInCU: 0x14033, offset: 0x14033, size: 0x8, addend: 0x0, symName: __ZN5Eigen8internal8FixedIntILi1EEC2Ev, symObjAddr: 0x8DC, symBinAddr: 0x100002E1C, symSize: 0x14 }
  - { offsetInCU: 0x1405D, offset: 0x1405D, size: 0x8, addend: 0x0, symName: __ZNK5Eigen8symbolic8BaseExprINS0_10SymbolExprINS_8internal17symbolic_last_tagEEEE7derivedEv, symObjAddr: 0x8F0, symBinAddr: 0x100002E30, symSize: 0x14 }
  - { offsetInCU: 0x14083, offset: 0x14083, size: 0x8, addend: 0x0, symName: __ZN5Eigen8symbolic9ValueExprINS_8internal8FixedIntILi1EEEEC1Ev, symObjAddr: 0x904, symBinAddr: 0x100002E44, symSize: 0x2C }
  - { offsetInCU: 0x140AD, offset: 0x140AD, size: 0x8, addend: 0x0, symName: __ZN5Eigen8symbolic7AddExprINS0_10SymbolExprINS_8internal17symbolic_last_tagEEENS0_9ValueExprINS3_8FixedIntILi1EEEEEEC1ERKS5_RKS9_, symObjAddr: 0x930, symBinAddr: 0x100002E70, symSize: 0x3C }
  - { offsetInCU: 0x140F3, offset: 0x140F3, size: 0x8, addend: 0x0, symName: __ZN5Eigen8symbolic9ValueExprINS_8internal8FixedIntILi1EEEEC2Ev, symObjAddr: 0x96C, symBinAddr: 0x100002EAC, symSize: 0x14 }
  - { offsetInCU: 0x1411D, offset: 0x1411D, size: 0x8, addend: 0x0, symName: __ZN5Eigen8symbolic7AddExprINS0_10SymbolExprINS_8internal17symbolic_last_tagEEENS0_9ValueExprINS3_8FixedIntILi1EEEEEEC2ERKS5_RKS9_, symObjAddr: 0x980, symBinAddr: 0x100002EC0, symSize: 0x1C }
  - { offsetInCU: 0x14163, offset: 0x14163, size: 0x8, addend: 0x0, symName: __ZN5Eigen9DenseBaseINS_6MatrixIdLin1ELin1ELi0ELin1ELin1EEEE11NullaryExprINS_8internal16scalar_random_opIdEEEEKNS_14CwiseNullaryOpIT_S2_EEllRKS9_, symObjAddr: 0x99C, symBinAddr: 0x100002EDC, symSize: 0x48 }
  - { offsetInCU: 0x141B0, offset: 0x141B0, size: 0x8, addend: 0x0, symName: __ZN5Eigen8internal16scalar_random_opIdEC1Ev, symObjAddr: 0x9E4, symBinAddr: 0x100002F24, symSize: 0x2C }
  - { offsetInCU: 0x141DA, offset: 0x141DA, size: 0x8, addend: 0x0, symName: __ZN5Eigen14CwiseNullaryOpINS_8internal16scalar_random_opIdEENS_6MatrixIdLin1ELin1ELi0ELin1ELin1EEEEC1EllRKS3_, symObjAddr: 0xA10, symBinAddr: 0x100002F50, symSize: 0x44 }
  - { offsetInCU: 0x1422E, offset: 0x1422E, size: 0x8, addend: 0x0, symName: __ZN5Eigen14CwiseNullaryOpINS_8internal16scalar_random_opIdEENS_6MatrixIdLin1ELin1ELi0ELin1ELin1EEEEC2EllRKS3_, symObjAddr: 0xA54, symBinAddr: 0x100002F94, symSize: 0xDC }
  - { offsetInCU: 0x14282, offset: 0x14282, size: 0x8, addend: 0x0, symName: __ZN5Eigen10MatrixBaseINS_14CwiseNullaryOpINS_8internal16scalar_random_opIdEENS_6MatrixIdLin1ELin1ELi0ELin1ELin1EEEEEEC2Ev, symObjAddr: 0xB30, symBinAddr: 0x100003070, symSize: 0x2C }
  - { offsetInCU: 0x142AC, offset: 0x142AC, size: 0x8, addend: 0x0, symName: __ZN5Eigen8internal19variable_if_dynamicIlLin1EEC1El, symObjAddr: 0xB5C, symBinAddr: 0x10000309C, symSize: 0x34 }
  - { offsetInCU: 0x142E4, offset: 0x142E4, size: 0x8, addend: 0x0, symName: __ZN5Eigen8internal16scalar_random_opIdEC1ERKS2_, symObjAddr: 0xB90, symBinAddr: 0x1000030D0, symSize: 0x34 }
  - { offsetInCU: 0x14319, offset: 0x14319, size: 0x8, addend: 0x0, symName: __ZN5Eigen9DenseBaseINS_14CwiseNullaryOpINS_8internal16scalar_random_opIdEENS_6MatrixIdLin1ELin1ELi0ELin1ELin1EEEEEEC2Ev, symObjAddr: 0xBC4, symBinAddr: 0x100003104, symSize: 0x14 }
  - { offsetInCU: 0x14343, offset: 0x14343, size: 0x8, addend: 0x0, symName: __ZN5Eigen8internal19variable_if_dynamicIlLin1EEC2El, symObjAddr: 0xBD8, symBinAddr: 0x100003118, symSize: 0x20 }
  - { offsetInCU: 0x1437B, offset: 0x1437B, size: 0x8, addend: 0x0, symName: __ZN5Eigen8internal16scalar_random_opIdEC2ERKS2_, symObjAddr: 0xBF8, symBinAddr: 0x100003138, symSize: 0x18 }
  - { offsetInCU: 0x143B0, offset: 0x143B0, size: 0x8, addend: 0x0, symName: __ZN5Eigen8internal16scalar_random_opIdEC2Ev, symObjAddr: 0xC10, symBinAddr: 0x100003150, symSize: 0x14 }
  - { offsetInCU: 0x143DA, offset: 0x143DA, size: 0x8, addend: 0x0, symName: __ZN5Eigen6MatrixIdLin1ELin1ELi0ELin1ELin1EEC2INS_14CwiseNullaryOpINS_8internal16scalar_random_opIdEES1_EEEERKNS_9EigenBaseIT_EE, symObjAddr: 0xC24, symBinAddr: 0x100003164, symSize: 0x40 }
  - { offsetInCU: 0x1441C, offset: 0x1441C, size: 0x8, addend: 0x0, symName: __ZNK5Eigen9EigenBaseINS_14CwiseNullaryOpINS_8internal16scalar_random_opIdEENS_6MatrixIdLin1ELin1ELi0ELin1ELin1EEEEEE7derivedEv, symObjAddr: 0xC64, symBinAddr: 0x1000031A4, symSize: 0x14 }
  - { offsetInCU: 0x14442, offset: 0x14442, size: 0x8, addend: 0x0, symName: __ZN5Eigen15PlainObjectBaseINS_6MatrixIdLin1ELin1ELi0ELin1ELin1EEEEC2INS_14CwiseNullaryOpINS_8internal16scalar_random_opIdEES2_EEEERKNS_9DenseBaseIT_EE, symObjAddr: 0xC78, symBinAddr: 0x1000031B8, symSize: 0x84 }
  - { offsetInCU: 0x14484, offset: 0x14484, size: 0x8, addend: 0x0, symName: __ZN5Eigen10MatrixBaseINS_6MatrixIdLin1ELin1ELi0ELin1ELin1EEEEC2Ev, symObjAddr: 0xCFC, symBinAddr: 0x10000323C, symSize: 0x2C }
  - { offsetInCU: 0x144AE, offset: 0x144AE, size: 0x8, addend: 0x0, symName: __ZN5Eigen12DenseStorageIdLin1ELin1ELin1ELi0EEC1Ev, symObjAddr: 0xD28, symBinAddr: 0x100003268, symSize: 0x2C }
  - { offsetInCU: 0x144D8, offset: 0x144D8, size: 0x8, addend: 0x0, symName: __ZN5Eigen15PlainObjectBaseINS_6MatrixIdLin1ELin1ELi0ELin1ELin1EEEE22_check_template_paramsEv, symObjAddr: 0xD54, symBinAddr: 0x100003294, symSize: 0x4 }
  - { offsetInCU: 0x1452D, offset: 0x1452D, size: 0x8, addend: 0x0, symName: __ZN5Eigen15PlainObjectBaseINS_6MatrixIdLin1ELin1ELi0ELin1ELin1EEEE10resizeLikeINS_14CwiseNullaryOpINS_8internal16scalar_random_opIdEES2_EEEEvRKNS_9EigenBaseIT_EE, symObjAddr: 0xD58, symBinAddr: 0x100003298, symSize: 0x11C }
  - { offsetInCU: 0x145C1, offset: 0x145C1, size: 0x8, addend: 0x0, symName: __ZN5Eigen15PlainObjectBaseINS_6MatrixIdLin1ELin1ELi0ELin1ELin1EEEE12_set_noaliasINS_14CwiseNullaryOpINS_8internal16scalar_random_opIdEES2_EEEERS2_RKNS_9DenseBaseIT_EE, symObjAddr: 0xE74, symBinAddr: 0x1000033B4, symSize: 0x60 }
  - { offsetInCU: 0x145FF, offset: 0x145FF, size: 0x8, addend: 0x0, symName: __ZN5Eigen9DenseBaseINS_6MatrixIdLin1ELin1ELi0ELin1ELin1EEEEC2Ev, symObjAddr: 0xED4, symBinAddr: 0x100003414, symSize: 0x14 }
  - { offsetInCU: 0x14629, offset: 0x14629, size: 0x8, addend: 0x0, symName: __ZN5Eigen12DenseStorageIdLin1ELin1ELin1ELi0EEC2Ev, symObjAddr: 0xEE8, symBinAddr: 0x100003428, symSize: 0x20 }
  - { offsetInCU: 0x14653, offset: 0x14653, size: 0x8, addend: 0x0, symName: __ZNK5Eigen14CwiseNullaryOpINS_8internal16scalar_random_opIdEENS_6MatrixIdLin1ELin1ELi0ELin1ELin1EEEE4rowsEv, symObjAddr: 0xF08, symBinAddr: 0x100003448, symSize: 0x24 }
  - { offsetInCU: 0x14679, offset: 0x14679, size: 0x8, addend: 0x0, symName: __ZNK5Eigen14CwiseNullaryOpINS_8internal16scalar_random_opIdEENS_6MatrixIdLin1ELin1ELi0ELin1ELin1EEEE4colsEv, symObjAddr: 0xF2C, symBinAddr: 0x10000346C, symSize: 0x28 }
  - { offsetInCU: 0x1469F, offset: 0x1469F, size: 0x8, addend: 0x0, symName: __ZN5Eigen15PlainObjectBaseINS_6MatrixIdLin1ELin1ELi0ELin1ELin1EEEE6resizeEll, symObjAddr: 0xF54, symBinAddr: 0x100003494, symSize: 0x14C }
  - { offsetInCU: 0x1471B, offset: 0x1471B, size: 0x8, addend: 0x0, symName: __ZNK5Eigen8internal19variable_if_dynamicIlLin1EE5valueEv, symObjAddr: 0x10D4, symBinAddr: 0x100003614, symSize: 0x18 }
  - { offsetInCU: 0x14741, offset: 0x14741, size: 0x8, addend: 0x0, symName: __ZN5Eigen12DenseStorageIdLin1ELin1ELin1ELi0EE6resizeElll, symObjAddr: 0x10EC, symBinAddr: 0x10000362C, symSize: 0xB4 }
  - { offsetInCU: 0x14794, offset: 0x14794, size: 0x8, addend: 0x0, symName: __ZN5Eigen9EigenBaseINS_6MatrixIdLin1ELin1ELi0ELin1ELin1EEEE7derivedEv, symObjAddr: 0x1364, symBinAddr: 0x1000038A4, symSize: 0x14 }
  - { offsetInCU: 0x147BA, offset: 0x147BA, size: 0x8, addend: 0x0, symName: __ZN5Eigen8internal9assign_opIddEC1Ev, symObjAddr: 0x1378, symBinAddr: 0x1000038B8, symSize: 0x2C }
  - { offsetInCU: 0x147E4, offset: 0x147E4, size: 0x8, addend: 0x0, symName: __ZN5Eigen8internal10AssignmentINS_6MatrixIdLin1ELin1ELi0ELin1ELin1EEENS_14CwiseNullaryOpINS0_16scalar_random_opIdEES3_EENS0_9assign_opIddEENS0_11Dense2DenseEvE3runERS3_RKS7_RKS9_, symObjAddr: 0x13A4, symBinAddr: 0x1000038E4, symSize: 0x40 }
  - { offsetInCU: 0x14826, offset: 0x14826, size: 0x8, addend: 0x0, symName: __ZNK5Eigen15PlainObjectBaseINS_6MatrixIdLin1ELin1ELi0ELin1ELin1EEEE4rowsEv, symObjAddr: 0x1524, symBinAddr: 0x100003A64, symSize: 0x24 }
  - { offsetInCU: 0x1484C, offset: 0x1484C, size: 0x8, addend: 0x0, symName: __ZNK5Eigen15PlainObjectBaseINS_6MatrixIdLin1ELin1ELi0ELin1ELin1EEEE4colsEv, symObjAddr: 0x1548, symBinAddr: 0x100003A88, symSize: 0x24 }
  - { offsetInCU: 0x14872, offset: 0x14872, size: 0x8, addend: 0x0, symName: __ZN5Eigen8internal27checkTransposeAliasing_implINS_6MatrixIdLin1ELin1ELi0ELin1ELin1EEENS_14CwiseNullaryOpINS0_16scalar_random_opIdEES3_EELb0EE3runERKS3_RKS7_, symObjAddr: 0x156C, symBinAddr: 0x100003AAC, symSize: 0x14 }
  - { offsetInCU: 0x1489D, offset: 0x1489D, size: 0x8, addend: 0x0, symName: __ZNK5Eigen12DenseStorageIdLin1ELin1ELin1ELi0EE4rowsEv, symObjAddr: 0x1580, symBinAddr: 0x100003AC0, symSize: 0x18 }
  - { offsetInCU: 0x148C3, offset: 0x148C3, size: 0x8, addend: 0x0, symName: __ZNK5Eigen12DenseStorageIdLin1ELin1ELin1ELi0EE4colsEv, symObjAddr: 0x1598, symBinAddr: 0x100003AD8, symSize: 0x18 }
  - { offsetInCU: 0x1490C, offset: 0x1490C, size: 0x8, addend: 0x0, symName: __ZN5Eigen8internal9evaluatorINS_14CwiseNullaryOpINS0_16scalar_random_opIdEENS_6MatrixIdLin1ELin1ELi0ELin1ELin1EEEEEEC1ERKS7_, symObjAddr: 0x15B0, symBinAddr: 0x100003AF0, symSize: 0x34 }
  - { offsetInCU: 0x14945, offset: 0x14945, size: 0x8, addend: 0x0, symName: __ZN5Eigen8internal9evaluatorINS_6MatrixIdLin1ELin1ELi0ELin1ELin1EEEEC1ERKS3_, symObjAddr: 0x16DC, symBinAddr: 0x100003C1C, symSize: 0x34 }
  - { offsetInCU: 0x1497E, offset: 0x1497E, size: 0x8, addend: 0x0, symName: __ZNK5Eigen9EigenBaseINS_6MatrixIdLin1ELin1ELi0ELin1ELin1EEEE18const_cast_derivedEv, symObjAddr: 0x1710, symBinAddr: 0x100003C50, symSize: 0x14 }
  - { offsetInCU: 0x149D1, offset: 0x149D1, size: 0x8, addend: 0x0, symName: __ZN5Eigen8internal31generic_dense_assignment_kernelINS0_9evaluatorINS_6MatrixIdLin1ELin1ELi0ELin1ELin1EEEEENS2_INS_14CwiseNullaryOpINS0_16scalar_random_opIdEES4_EEEENS0_9assign_opIddEELi0EEC1ERS5_RKSA_RKSC_RS4_, symObjAddr: 0x1724, symBinAddr: 0x100003C64, symSize: 0x4C }
  - { offsetInCU: 0x14A3C, offset: 0x14A3C, size: 0x8, addend: 0x0, symName: __ZN5Eigen8internal21dense_assignment_loopINS0_31generic_dense_assignment_kernelINS0_9evaluatorINS_6MatrixIdLin1ELin1ELi0ELin1ELin1EEEEENS3_INS_14CwiseNullaryOpINS0_16scalar_random_opIdEES5_EEEENS0_9assign_opIddEELi0EEELi1ELi0EE3runERSE_, symObjAddr: 0x1770, symBinAddr: 0x100003CB0, symSize: 0x68 }
  - { offsetInCU: 0x14A8C, offset: 0x14A8C, size: 0x8, addend: 0x0, symName: __ZN5Eigen8internal9evaluatorINS_6MatrixIdLin1ELin1ELi0ELin1ELin1EEEED1Ev, symObjAddr: 0x17D8, symBinAddr: 0x100003D18, symSize: 0x2C }
  - { offsetInCU: 0x14AB9, offset: 0x14AB9, size: 0x8, addend: 0x0, symName: __ZN5Eigen8internal9evaluatorINS_14CwiseNullaryOpINS0_16scalar_random_opIdEENS_6MatrixIdLin1ELin1ELi0ELin1ELin1EEEEEED1Ev, symObjAddr: 0x1804, symBinAddr: 0x100003D44, symSize: 0x2C }
  - { offsetInCU: 0x14AE5, offset: 0x14AE5, size: 0x8, addend: 0x0, symName: __ZN5Eigen8internal9evaluatorINS_14CwiseNullaryOpINS0_16scalar_random_opIdEENS_6MatrixIdLin1ELin1ELi0ELin1ELin1EEEEEEC2ERKS7_, symObjAddr: 0x1830, symBinAddr: 0x100003D70, symSize: 0x74 }
  - { offsetInCU: 0x14B1E, offset: 0x14B1E, size: 0x8, addend: 0x0, symName: __ZN5Eigen8internal14evaluator_baseINS_14CwiseNullaryOpINS0_16scalar_random_opIdEENS_6MatrixIdLin1ELin1ELi0ELin1ELin1EEEEEEC2Ev, symObjAddr: 0x18A4, symBinAddr: 0x100003DE4, symSize: 0x14 }
  - { offsetInCU: 0x14B48, offset: 0x14B48, size: 0x8, addend: 0x0, symName: __ZNK5Eigen14CwiseNullaryOpINS_8internal16scalar_random_opIdEENS_6MatrixIdLin1ELin1ELi0ELin1ELin1EEEE7functorEv, symObjAddr: 0x18B8, symBinAddr: 0x100003DF8, symSize: 0x18 }
  - { offsetInCU: 0x14B6E, offset: 0x14B6E, size: 0x8, addend: 0x0, symName: __ZN5Eigen8internal14evaluator_baseINS_14CwiseNullaryOpINS0_16scalar_random_opIdEENS_6MatrixIdLin1ELin1ELi0ELin1ELin1EEEEEED2Ev, symObjAddr: 0x18D0, symBinAddr: 0x100003E10, symSize: 0x14 }
  - { offsetInCU: 0x14B98, offset: 0x14B98, size: 0x8, addend: 0x0, symName: __ZN5Eigen8internal9evaluatorINS_6MatrixIdLin1ELin1ELi0ELin1ELin1EEEEC2ERKS3_, symObjAddr: 0x18E4, symBinAddr: 0x100003E24, symSize: 0x34 }
  - { offsetInCU: 0x14BD1, offset: 0x14BD1, size: 0x8, addend: 0x0, symName: __ZN5Eigen8internal9evaluatorINS_15PlainObjectBaseINS_6MatrixIdLin1ELin1ELi0ELin1ELin1EEEEEEC2ERKS5_, symObjAddr: 0x1918, symBinAddr: 0x100003E58, symSize: 0x80 }
  - { offsetInCU: 0x14C09, offset: 0x14C09, size: 0x8, addend: 0x0, symName: __ZN5Eigen8internal14evaluator_baseINS_6MatrixIdLin1ELin1ELi0ELin1ELin1EEEEC2Ev, symObjAddr: 0x1998, symBinAddr: 0x100003ED8, symSize: 0x14 }
  - { offsetInCU: 0x14C33, offset: 0x14C33, size: 0x8, addend: 0x0, symName: __ZNK5Eigen15PlainObjectBaseINS_6MatrixIdLin1ELin1ELi0ELin1ELin1EEEE4dataEv, symObjAddr: 0x19AC, symBinAddr: 0x100003EEC, symSize: 0x24 }
  - { offsetInCU: 0x14C59, offset: 0x14C59, size: 0x8, addend: 0x0, symName: __ZNK5Eigen15DenseCoeffsBaseINS_6MatrixIdLin1ELin1ELi0ELin1ELin1EEELi3EE11outerStrideEv, symObjAddr: 0x19D0, symBinAddr: 0x100003F10, symSize: 0x38 }
  - { offsetInCU: 0x14C7F, offset: 0x14C7F, size: 0x8, addend: 0x0, symName: __ZN5Eigen8internal30plainobjectbase_evaluator_dataIdLin1EEC1EPKdl, symObjAddr: 0x1A08, symBinAddr: 0x100003F48, symSize: 0x3C }
  - { offsetInCU: 0x14CC5, offset: 0x14CC5, size: 0x8, addend: 0x0, symName: __ZN5Eigen8internal14evaluator_baseINS_6MatrixIdLin1ELin1ELi0ELin1ELin1EEEED2Ev, symObjAddr: 0x1A44, symBinAddr: 0x100003F84, symSize: 0x14 }
  - { offsetInCU: 0x14CEF, offset: 0x14CEF, size: 0x8, addend: 0x0, symName: __ZNK5Eigen12DenseStorageIdLin1ELin1ELin1ELi0EE4dataEv, symObjAddr: 0x1A58, symBinAddr: 0x100003F98, symSize: 0x18 }
  - { offsetInCU: 0x14D15, offset: 0x14D15, size: 0x8, addend: 0x0, symName: __ZNK5Eigen9EigenBaseINS_6MatrixIdLin1ELin1ELi0ELin1ELin1EEEE7derivedEv, symObjAddr: 0x1A70, symBinAddr: 0x100003FB0, symSize: 0x14 }
  - { offsetInCU: 0x14D3B, offset: 0x14D3B, size: 0x8, addend: 0x0, symName: __ZNK5Eigen6MatrixIdLin1ELin1ELi0ELin1ELin1EE11outerStrideEv, symObjAddr: 0x1A84, symBinAddr: 0x100003FC4, symSize: 0x34 }
  - { offsetInCU: 0x14D61, offset: 0x14D61, size: 0x8, addend: 0x0, symName: __ZNK5Eigen9DenseBaseINS_6MatrixIdLin1ELin1ELi0ELin1ELin1EEEE9innerSizeEv, symObjAddr: 0x1AB8, symBinAddr: 0x100003FF8, symSize: 0x24 }
  - { offsetInCU: 0x14D87, offset: 0x14D87, size: 0x8, addend: 0x0, symName: __ZNK5Eigen9EigenBaseINS_6MatrixIdLin1ELin1ELi0ELin1ELin1EEEE4rowsEv, symObjAddr: 0x1ADC, symBinAddr: 0x10000401C, symSize: 0x28 }
  - { offsetInCU: 0x14DAD, offset: 0x14DAD, size: 0x8, addend: 0x0, symName: __ZN5Eigen8internal30plainobjectbase_evaluator_dataIdLin1EEC2EPKdl, symObjAddr: 0x1B04, symBinAddr: 0x100004044, symSize: 0x2C }
  - { offsetInCU: 0x14DF3, offset: 0x14DF3, size: 0x8, addend: 0x0, symName: __ZN5Eigen8internal31generic_dense_assignment_kernelINS0_9evaluatorINS_6MatrixIdLin1ELin1ELi0ELin1ELin1EEEEENS2_INS_14CwiseNullaryOpINS0_16scalar_random_opIdEES4_EEEENS0_9assign_opIddEELi0EEC2ERS5_RKSA_RKSC_RS4_, symObjAddr: 0x1B30, symBinAddr: 0x100004070, symSize: 0x44 }
  - { offsetInCU: 0x14E59, offset: 0x14E59, size: 0x8, addend: 0x0, symName: __ZNK5Eigen8internal31generic_dense_assignment_kernelINS0_9evaluatorINS_6MatrixIdLin1ELin1ELi0ELin1ELin1EEEEENS2_INS_14CwiseNullaryOpINS0_16scalar_random_opIdEES4_EEEENS0_9assign_opIddEELi0EE4sizeEv, symObjAddr: 0x1B74, symBinAddr: 0x1000040B4, symSize: 0x28 }
  - { offsetInCU: 0x14E7F, offset: 0x14E7F, size: 0x8, addend: 0x0, symName: __ZN5Eigen8internal31generic_dense_assignment_kernelINS0_9evaluatorINS_6MatrixIdLin1ELin1ELi0ELin1ELin1EEEEENS2_INS_14CwiseNullaryOpINS0_16scalar_random_opIdEES4_EEEENS0_9assign_opIddEELi0EE11assignCoeffEl, symObjAddr: 0x1B9C, symBinAddr: 0x1000040DC, symSize: 0x64 }
  - { offsetInCU: 0x14EB4, offset: 0x14EB4, size: 0x8, addend: 0x0, symName: __ZNK5Eigen9EigenBaseINS_6MatrixIdLin1ELin1ELi0ELin1ELin1EEEE4sizeEv, symObjAddr: 0x1C00, symBinAddr: 0x100004140, symSize: 0x44 }
  - { offsetInCU: 0x14EDA, offset: 0x14EDA, size: 0x8, addend: 0x0, symName: __ZNK5Eigen9EigenBaseINS_6MatrixIdLin1ELin1ELi0ELin1ELin1EEEE4colsEv, symObjAddr: 0x1C44, symBinAddr: 0x100004184, symSize: 0x28 }
  - { offsetInCU: 0x14F00, offset: 0x14F00, size: 0x8, addend: 0x0, symName: __ZNK5Eigen8internal9assign_opIddE11assignCoeffERdRKd, symObjAddr: 0x1C6C, symBinAddr: 0x1000041AC, symSize: 0x28 }
  - { offsetInCU: 0x14F42, offset: 0x14F42, size: 0x8, addend: 0x0, symName: __ZN5Eigen8internal9evaluatorINS_15PlainObjectBaseINS_6MatrixIdLin1ELin1ELi0ELin1ELin1EEEEEE8coeffRefEl, symObjAddr: 0x1C94, symBinAddr: 0x1000041D4, symSize: 0x24 }
  - { offsetInCU: 0x14F80, offset: 0x14F80, size: 0x8, addend: 0x0, symName: __ZNK5Eigen8internal9evaluatorINS_14CwiseNullaryOpINS0_16scalar_random_opIdEENS_6MatrixIdLin1ELin1ELi0ELin1ELin1EEEEEE5coeffIlEEdT_, symObjAddr: 0x1CB8, symBinAddr: 0x1000041F8, symSize: 0x38 }
  - { offsetInCU: 0x14FC3, offset: 0x14FC3, size: 0x8, addend: 0x0, symName: __ZNK5Eigen8internal15nullary_wrapperIdNS0_16scalar_random_opIdEELb1ELb0ELb0EEclIlEEdRKS3_T_S8_, symObjAddr: 0x1CF0, symBinAddr: 0x100004230, symSize: 0x30 }
  - { offsetInCU: 0x15017, offset: 0x15017, size: 0x8, addend: 0x0, symName: __ZNK5Eigen8internal16scalar_random_opIdEclEv, symObjAddr: 0x1D20, symBinAddr: 0x100004260, symSize: 0x20 }
  - { offsetInCU: 0x1503D, offset: 0x1503D, size: 0x8, addend: 0x0, symName: __ZN5Eigen8internal19random_default_implIdLb0ELb0EE3runEv, symObjAddr: 0x1D54, symBinAddr: 0x100004294, symSize: 0x34 }
  - { offsetInCU: 0x15051, offset: 0x15051, size: 0x8, addend: 0x0, symName: __ZN5Eigen8internal19random_default_implIdLb0ELb0EE3runERKdS4_, symObjAddr: 0x1D88, symBinAddr: 0x1000042C8, symSize: 0x68 }
  - { offsetInCU: 0x15084, offset: 0x15084, size: 0x8, addend: 0x0, symName: __ZN5Eigen8internal9evaluatorINS_6MatrixIdLin1ELin1ELi0ELin1ELin1EEEED2Ev, symObjAddr: 0x1DF0, symBinAddr: 0x100004330, symSize: 0x2C }
  - { offsetInCU: 0x150B1, offset: 0x150B1, size: 0x8, addend: 0x0, symName: __ZN5Eigen8internal9evaluatorINS_15PlainObjectBaseINS_6MatrixIdLin1ELin1ELi0ELin1ELin1EEEEEED2Ev, symObjAddr: 0x1E1C, symBinAddr: 0x10000435C, symSize: 0x2C }
  - { offsetInCU: 0x150DD, offset: 0x150DD, size: 0x8, addend: 0x0, symName: __ZN5Eigen8internal9evaluatorINS_14CwiseNullaryOpINS0_16scalar_random_opIdEENS_6MatrixIdLin1ELin1ELi0ELin1ELin1EEEEEED2Ev, symObjAddr: 0x1E48, symBinAddr: 0x100004388, symSize: 0x2C }
  - { offsetInCU: 0x15109, offset: 0x15109, size: 0x8, addend: 0x0, symName: __ZN5Eigen8internal9assign_opIddEC2Ev, symObjAddr: 0x1E74, symBinAddr: 0x1000043B4, symSize: 0x14 }
  - { offsetInCU: 0x15133, offset: 0x15133, size: 0x8, addend: 0x0, symName: __ZN5Eigen8internal13scalar_sum_opIddEC1Ev, symObjAddr: 0x1E88, symBinAddr: 0x1000043C8, symSize: 0x2C }
  - { offsetInCU: 0x1515D, offset: 0x1515D, size: 0x8, addend: 0x0, symName: __ZN5Eigen13CwiseBinaryOpINS_8internal13scalar_sum_opIddEEKNS_6MatrixIdLin1ELin1ELi0ELin1ELin1EEES6_EC1ERS6_S8_RKS3_, symObjAddr: 0x1EB4, symBinAddr: 0x1000043F4, symSize: 0x44 }
  - { offsetInCU: 0x151B1, offset: 0x151B1, size: 0x8, addend: 0x0, symName: __ZN5Eigen8internal13scalar_sum_opIddEC2Ev, symObjAddr: 0x1EF8, symBinAddr: 0x100004438, symSize: 0x14 }
  - { offsetInCU: 0x151DB, offset: 0x151DB, size: 0x8, addend: 0x0, symName: __ZN5Eigen13CwiseBinaryOpINS_8internal13scalar_sum_opIddEEKNS_6MatrixIdLin1ELin1ELi0ELin1ELin1EEES6_EC2ERS6_S8_RKS3_, symObjAddr: 0x1F0C, symBinAddr: 0x10000444C, symSize: 0xF0 }
  - { offsetInCU: 0x15234, offset: 0x15234, size: 0x8, addend: 0x0, symName: __ZN5Eigen17CwiseBinaryOpImplINS_8internal13scalar_sum_opIddEEKNS_6MatrixIdLin1ELin1ELi0ELin1ELin1EEES6_NS_5DenseEEC2Ev, symObjAddr: 0x1FFC, symBinAddr: 0x10000453C, symSize: 0x2C }
  - { offsetInCU: 0x15260, offset: 0x15260, size: 0x8, addend: 0x0, symName: __ZN5Eigen8internal13scalar_sum_opIddEC1ERKS2_, symObjAddr: 0x2028, symBinAddr: 0x100004568, symSize: 0x34 }
  - { offsetInCU: 0x15295, offset: 0x15295, size: 0x8, addend: 0x0, symName: __ZN5Eigen10MatrixBaseINS_13CwiseBinaryOpINS_8internal13scalar_sum_opIddEEKNS_6MatrixIdLin1ELin1ELi0ELin1ELin1EEES7_EEEC2Ev, symObjAddr: 0x205C, symBinAddr: 0x10000459C, symSize: 0x2C }
  - { offsetInCU: 0x152BF, offset: 0x152BF, size: 0x8, addend: 0x0, symName: __ZN5Eigen9DenseBaseINS_13CwiseBinaryOpINS_8internal13scalar_sum_opIddEEKNS_6MatrixIdLin1ELin1ELi0ELin1ELin1EEES7_EEEC2Ev, symObjAddr: 0x2088, symBinAddr: 0x1000045C8, symSize: 0x14 }
  - { offsetInCU: 0x152E9, offset: 0x152E9, size: 0x8, addend: 0x0, symName: __ZN5Eigen8internal13scalar_sum_opIddEC2ERKS2_, symObjAddr: 0x209C, symBinAddr: 0x1000045DC, symSize: 0x18 }
  - { offsetInCU: 0x1531E, offset: 0x1531E, size: 0x8, addend: 0x0, symName: __ZN5Eigen6MatrixIdLin1ELin1ELi0ELin1ELin1EEC2INS_13CwiseBinaryOpINS_8internal13scalar_sum_opIddEEKS1_S7_EEEERKNS_9EigenBaseIT_EE, symObjAddr: 0x20B4, symBinAddr: 0x1000045F4, symSize: 0x40 }
  - { offsetInCU: 0x15360, offset: 0x15360, size: 0x8, addend: 0x0, symName: __ZNK5Eigen9EigenBaseINS_13CwiseBinaryOpINS_8internal13scalar_sum_opIddEEKNS_6MatrixIdLin1ELin1ELi0ELin1ELin1EEES7_EEE7derivedEv, symObjAddr: 0x20F4, symBinAddr: 0x100004634, symSize: 0x14 }
  - { offsetInCU: 0x15386, offset: 0x15386, size: 0x8, addend: 0x0, symName: __ZN5Eigen15PlainObjectBaseINS_6MatrixIdLin1ELin1ELi0ELin1ELin1EEEEC2INS_13CwiseBinaryOpINS_8internal13scalar_sum_opIddEEKS2_S9_EEEERKNS_9DenseBaseIT_EE, symObjAddr: 0x2108, symBinAddr: 0x100004648, symSize: 0x80 }
  - { offsetInCU: 0x153C8, offset: 0x153C8, size: 0x8, addend: 0x0, symName: __ZN5Eigen15PlainObjectBaseINS_6MatrixIdLin1ELin1ELi0ELin1ELin1EEEE10resizeLikeINS_13CwiseBinaryOpINS_8internal13scalar_sum_opIddEEKS2_S9_EEEEvRKNS_9EigenBaseIT_EE, symObjAddr: 0x2188, symBinAddr: 0x1000046C8, symSize: 0x11C }
  - { offsetInCU: 0x1545C, offset: 0x1545C, size: 0x8, addend: 0x0, symName: __ZN5Eigen15PlainObjectBaseINS_6MatrixIdLin1ELin1ELi0ELin1ELin1EEEE12_set_noaliasINS_13CwiseBinaryOpINS_8internal13scalar_sum_opIddEEKS2_S9_EEEERS2_RKNS_9DenseBaseIT_EE, symObjAddr: 0x22A4, symBinAddr: 0x1000047E4, symSize: 0x60 }
  - { offsetInCU: 0x1549A, offset: 0x1549A, size: 0x8, addend: 0x0, symName: __ZNK5Eigen13CwiseBinaryOpINS_8internal13scalar_sum_opIddEEKNS_6MatrixIdLin1ELin1ELi0ELin1ELin1EEES6_E4rowsEv, symObjAddr: 0x2304, symBinAddr: 0x100004844, symSize: 0x28 }
  - { offsetInCU: 0x154C0, offset: 0x154C0, size: 0x8, addend: 0x0, symName: __ZNK5Eigen13CwiseBinaryOpINS_8internal13scalar_sum_opIddEEKNS_6MatrixIdLin1ELin1ELi0ELin1ELin1EEES6_E4colsEv, symObjAddr: 0x232C, symBinAddr: 0x10000486C, symSize: 0x28 }
  - { offsetInCU: 0x154E6, offset: 0x154E6, size: 0x8, addend: 0x0, symName: __ZN5Eigen8internal10AssignmentINS_6MatrixIdLin1ELin1ELi0ELin1ELin1EEENS_13CwiseBinaryOpINS0_13scalar_sum_opIddEEKS3_S7_EENS0_9assign_opIddEENS0_11Dense2DenseEvE3runERS3_RKS8_RKSA_, symObjAddr: 0x2390, symBinAddr: 0x1000048D0, symSize: 0x40 }
  - { offsetInCU: 0x15528, offset: 0x15528, size: 0x8, addend: 0x0, symName: __ZN5Eigen8internal27checkTransposeAliasing_implINS_6MatrixIdLin1ELin1ELi0ELin1ELin1EEENS_13CwiseBinaryOpINS0_13scalar_sum_opIddEEKS3_S7_EELb0EE3runERS7_RKS8_, symObjAddr: 0x2508, symBinAddr: 0x100004A48, symSize: 0x14 }
  - { offsetInCU: 0x15553, offset: 0x15553, size: 0x8, addend: 0x0, symName: __ZN5Eigen8internal9evaluatorINS_13CwiseBinaryOpINS0_13scalar_sum_opIddEEKNS_6MatrixIdLin1ELin1ELi0ELin1ELin1EEES7_EEEC1ERKS8_, symObjAddr: 0x251C, symBinAddr: 0x100004A5C, symSize: 0x34 }
  - { offsetInCU: 0x1558C, offset: 0x1558C, size: 0x8, addend: 0x0, symName: __ZN5Eigen8internal31generic_dense_assignment_kernelINS0_9evaluatorINS_6MatrixIdLin1ELin1ELi0ELin1ELin1EEEEENS2_INS_13CwiseBinaryOpINS0_13scalar_sum_opIddEEKS4_S9_EEEENS0_9assign_opIddEELi0EEC1ERS5_RKSB_RKSD_RS4_, symObjAddr: 0x2648, symBinAddr: 0x100004B88, symSize: 0x4C }
  - { offsetInCU: 0x155F2, offset: 0x155F2, size: 0x8, addend: 0x0, symName: __ZN5Eigen8internal9evaluatorINS_13CwiseBinaryOpINS0_13scalar_sum_opIddEEKNS_6MatrixIdLin1ELin1ELi0ELin1ELin1EEES7_EEED1Ev, symObjAddr: 0x273C, symBinAddr: 0x100004C7C, symSize: 0x2C }
  - { offsetInCU: 0x1561F, offset: 0x1561F, size: 0x8, addend: 0x0, symName: __ZN5Eigen8internal9evaluatorINS_13CwiseBinaryOpINS0_13scalar_sum_opIddEEKNS_6MatrixIdLin1ELin1ELi0ELin1ELin1EEES7_EEEC2ERKS8_, symObjAddr: 0x2768, symBinAddr: 0x100004CA8, symSize: 0x34 }
  - { offsetInCU: 0x15658, offset: 0x15658, size: 0x8, addend: 0x0, symName: __ZN5Eigen8internal16binary_evaluatorINS_13CwiseBinaryOpINS0_13scalar_sum_opIddEEKNS_6MatrixIdLin1ELin1ELi0ELin1ELin1EEES7_EENS0_10IndexBasedES9_ddEC2ERKS8_, symObjAddr: 0x279C, symBinAddr: 0x100004CDC, symSize: 0x64 }
  - { offsetInCU: 0x15691, offset: 0x15691, size: 0x8, addend: 0x0, symName: __ZN5Eigen8internal14evaluator_baseINS_13CwiseBinaryOpINS0_13scalar_sum_opIddEEKNS_6MatrixIdLin1ELin1ELi0ELin1ELin1EEES7_EEEC2Ev, symObjAddr: 0x2800, symBinAddr: 0x100004D40, symSize: 0x14 }
  - { offsetInCU: 0x156BB, offset: 0x156BB, size: 0x8, addend: 0x0, symName: __ZN5Eigen8internal16binary_evaluatorINS_13CwiseBinaryOpINS0_13scalar_sum_opIddEEKNS_6MatrixIdLin1ELin1ELi0ELin1ELin1EEES7_EENS0_10IndexBasedES9_ddE4DataC1ERKS8_, symObjAddr: 0x2814, symBinAddr: 0x100004D54, symSize: 0x34 }
  - { offsetInCU: 0x156F4, offset: 0x156F4, size: 0x8, addend: 0x0, symName: __ZN5Eigen8internal14evaluator_baseINS_13CwiseBinaryOpINS0_13scalar_sum_opIddEEKNS_6MatrixIdLin1ELin1ELi0ELin1ELin1EEES7_EEED2Ev, symObjAddr: 0x2848, symBinAddr: 0x100004D88, symSize: 0x14 }
  - { offsetInCU: 0x1571E, offset: 0x1571E, size: 0x8, addend: 0x0, symName: __ZN5Eigen8internal16binary_evaluatorINS_13CwiseBinaryOpINS0_13scalar_sum_opIddEEKNS_6MatrixIdLin1ELin1ELi0ELin1ELin1EEES7_EENS0_10IndexBasedES9_ddE4DataC2ERKS8_, symObjAddr: 0x285C, symBinAddr: 0x100004D9C, symSize: 0xA8 }
  - { offsetInCU: 0x15757, offset: 0x15757, size: 0x8, addend: 0x0, symName: __ZNK5Eigen13CwiseBinaryOpINS_8internal13scalar_sum_opIddEEKNS_6MatrixIdLin1ELin1ELi0ELin1ELin1EEES6_E7functorEv, symObjAddr: 0x2904, symBinAddr: 0x100004E44, symSize: 0x18 }
  - { offsetInCU: 0x1577D, offset: 0x1577D, size: 0x8, addend: 0x0, symName: __ZNK5Eigen13CwiseBinaryOpINS_8internal13scalar_sum_opIddEEKNS_6MatrixIdLin1ELin1ELi0ELin1ELin1EEES6_E3lhsEv, symObjAddr: 0x291C, symBinAddr: 0x100004E5C, symSize: 0x18 }
  - { offsetInCU: 0x157A3, offset: 0x157A3, size: 0x8, addend: 0x0, symName: __ZN5Eigen8internal9evaluatorIKNS_6MatrixIdLin1ELin1ELi0ELin1ELin1EEEEC1ERS4_, symObjAddr: 0x2934, symBinAddr: 0x100004E74, symSize: 0x34 }
  - { offsetInCU: 0x157DB, offset: 0x157DB, size: 0x8, addend: 0x0, symName: __ZNK5Eigen13CwiseBinaryOpINS_8internal13scalar_sum_opIddEEKNS_6MatrixIdLin1ELin1ELi0ELin1ELin1EEES6_E3rhsEv, symObjAddr: 0x2968, symBinAddr: 0x100004EA8, symSize: 0x18 }
  - { offsetInCU: 0x15801, offset: 0x15801, size: 0x8, addend: 0x0, symName: __ZN5Eigen8internal9evaluatorIKNS_6MatrixIdLin1ELin1ELi0ELin1ELin1EEEED1Ev, symObjAddr: 0x2980, symBinAddr: 0x100004EC0, symSize: 0x2C }
  - { offsetInCU: 0x1582D, offset: 0x1582D, size: 0x8, addend: 0x0, symName: __ZN5Eigen8internal9evaluatorIKNS_6MatrixIdLin1ELin1ELi0ELin1ELin1EEEEC2ERS4_, symObjAddr: 0x29AC, symBinAddr: 0x100004EEC, symSize: 0x34 }
  - { offsetInCU: 0x15865, offset: 0x15865, size: 0x8, addend: 0x0, symName: __ZN5Eigen8internal9evaluatorIKNS_6MatrixIdLin1ELin1ELi0ELin1ELin1EEEED2Ev, symObjAddr: 0x29E0, symBinAddr: 0x100004F20, symSize: 0x2C }
  - { offsetInCU: 0x15891, offset: 0x15891, size: 0x8, addend: 0x0, symName: __ZN5Eigen8internal31generic_dense_assignment_kernelINS0_9evaluatorINS_6MatrixIdLin1ELin1ELi0ELin1ELin1EEEEENS2_INS_13CwiseBinaryOpINS0_13scalar_sum_opIddEEKS4_S9_EEEENS0_9assign_opIddEELi0EEC2ERS5_RKSB_RKSD_RS4_, symObjAddr: 0x2A0C, symBinAddr: 0x100004F4C, symSize: 0x44 }
  - { offsetInCU: 0x158F7, offset: 0x158F7, size: 0x8, addend: 0x0, symName: __ZNK5Eigen8internal31generic_dense_assignment_kernelINS0_9evaluatorINS_6MatrixIdLin1ELin1ELi0ELin1ELin1EEEEENS2_INS_13CwiseBinaryOpINS0_13scalar_sum_opIddEEKS4_S9_EEEENS0_9assign_opIddEELi0EE4sizeEv, symObjAddr: 0x2A50, symBinAddr: 0x100004F90, symSize: 0x28 }
  - { offsetInCU: 0x1591D, offset: 0x1591D, size: 0x8, addend: 0x0, symName: __ZN5Eigen8internal31unaligned_dense_assignment_loopILb1EE3runINS0_31generic_dense_assignment_kernelINS0_9evaluatorINS_6MatrixIdLin1ELin1ELi0ELin1ELin1EEEEENS5_INS_13CwiseBinaryOpINS0_13scalar_sum_opIddEEKS7_SC_EEEENS0_9assign_opIddEELi0EEEEEvRT_ll, symObjAddr: 0x2A78, symBinAddr: 0x100004FB8, symSize: 0x18 }
  - { offsetInCU: 0x15969, offset: 0x15969, size: 0x8, addend: 0x0, symName: __ZN5Eigen8internal31generic_dense_assignment_kernelINS0_9evaluatorINS_6MatrixIdLin1ELin1ELi0ELin1ELin1EEEEENS2_INS_13CwiseBinaryOpINS0_13scalar_sum_opIddEEKS4_S9_EEEENS0_9assign_opIddEELi0EE12assignPacketILi16ELi16E19__simd128_float64_tEEvl, symObjAddr: 0x2A90, symBinAddr: 0x100004FD0, symSize: 0x64 }
  - { offsetInCU: 0x159BB, offset: 0x159BB, size: 0x8, addend: 0x0, symName: __ZN5Eigen8internal31unaligned_dense_assignment_loopILb0EE3runINS0_31generic_dense_assignment_kernelINS0_9evaluatorINS_6MatrixIdLin1ELin1ELi0ELin1ELin1EEEEENS5_INS_13CwiseBinaryOpINS0_13scalar_sum_opIddEEKS7_SC_EEEENS0_9assign_opIddEELi0EEEEEvRT_ll, symObjAddr: 0x2AF4, symBinAddr: 0x100005034, symSize: 0x68 }
  - { offsetInCU: 0x15A2D, offset: 0x15A2D, size: 0x8, addend: 0x0, symName: __ZNK5Eigen8internal9assign_opIddE12assignPacketILi16E19__simd128_float64_tEEvPdRKT0_, symObjAddr: 0x2B5C, symBinAddr: 0x10000509C, symSize: 0x40 }
  - { offsetInCU: 0x15AA8, offset: 0x15AA8, size: 0x8, addend: 0x0, symName: __ZNK5Eigen8internal16binary_evaluatorINS_13CwiseBinaryOpINS0_13scalar_sum_opIddEEKNS_6MatrixIdLin1ELin1ELi0ELin1ELin1EEES7_EENS0_10IndexBasedES9_ddE6packetILi16E19__simd128_float64_tEET0_l, symObjAddr: 0x2B9C, symBinAddr: 0x1000050DC, symSize: 0x70 }
  - { offsetInCU: 0x15AF0, offset: 0x15AF0, size: 0x8, addend: 0x0, symName: __ZNK5Eigen8internal16binary_evaluatorINS_13CwiseBinaryOpINS0_13scalar_sum_opIddEEKNS_6MatrixIdLin1ELin1ELi0ELin1ELin1EEES7_EENS0_10IndexBasedES9_ddE4Data4funcEv, symObjAddr: 0x2C38, symBinAddr: 0x100005178, symSize: 0x14 }
  - { offsetInCU: 0x15B16, offset: 0x15B16, size: 0x8, addend: 0x0, symName: __ZNK5Eigen8internal13scalar_sum_opIddE8packetOpI19__simd128_float64_tEET_RKS5_S7_, symObjAddr: 0x2C4C, symBinAddr: 0x10000518C, symSize: 0x30 }
  - { offsetInCU: 0x15B6B, offset: 0x15B6B, size: 0x8, addend: 0x0, symName: __ZNK5Eigen8internal9evaluatorINS_15PlainObjectBaseINS_6MatrixIdLin1ELin1ELi0ELin1ELin1EEEEEE6packetILi16E19__simd128_float64_tEET0_l, symObjAddr: 0x2C7C, symBinAddr: 0x1000051BC, symSize: 0x3C }
  - { offsetInCU: 0x15BD0, offset: 0x15BD0, size: 0x8, addend: 0x0, symName: __ZN5Eigen8internal31generic_dense_assignment_kernelINS0_9evaluatorINS_6MatrixIdLin1ELin1ELi0ELin1ELin1EEEEENS2_INS_13CwiseBinaryOpINS0_13scalar_sum_opIddEEKS4_S9_EEEENS0_9assign_opIddEELi0EE11assignCoeffEl, symObjAddr: 0x2D20, symBinAddr: 0x100005260, symSize: 0x64 }
  - { offsetInCU: 0x15C05, offset: 0x15C05, size: 0x8, addend: 0x0, symName: __ZNK5Eigen8internal16binary_evaluatorINS_13CwiseBinaryOpINS0_13scalar_sum_opIddEEKNS_6MatrixIdLin1ELin1ELi0ELin1ELin1EEES7_EENS0_10IndexBasedES9_ddE5coeffEl, symObjAddr: 0x2D84, symBinAddr: 0x1000052C4, symSize: 0x64 }
  - { offsetInCU: 0x15C3A, offset: 0x15C3A, size: 0x8, addend: 0x0, symName: __ZNK5Eigen8internal13scalar_sum_opIddEclERKdS4_, symObjAddr: 0x2DE8, symBinAddr: 0x100005328, symSize: 0x2C }
  - { offsetInCU: 0x15C7C, offset: 0x15C7C, size: 0x8, addend: 0x0, symName: __ZNK5Eigen8internal9evaluatorINS_15PlainObjectBaseINS_6MatrixIdLin1ELin1ELi0ELin1ELin1EEEEEE5coeffEl, symObjAddr: 0x2E14, symBinAddr: 0x100005354, symSize: 0x24 }
  - { offsetInCU: 0x15CB0, offset: 0x15CB0, size: 0x8, addend: 0x0, symName: __ZN5Eigen8internal9evaluatorINS_13CwiseBinaryOpINS0_13scalar_sum_opIddEEKNS_6MatrixIdLin1ELin1ELi0ELin1ELin1EEES7_EEED2Ev, symObjAddr: 0x2E38, symBinAddr: 0x100005378, symSize: 0x2C }
  - { offsetInCU: 0x15CDD, offset: 0x15CDD, size: 0x8, addend: 0x0, symName: __ZN5Eigen8internal16binary_evaluatorINS_13CwiseBinaryOpINS0_13scalar_sum_opIddEEKNS_6MatrixIdLin1ELin1ELi0ELin1ELin1EEES7_EENS0_10IndexBasedES9_ddED2Ev, symObjAddr: 0x2E64, symBinAddr: 0x1000053A4, symSize: 0x34 }
  - { offsetInCU: 0x15D09, offset: 0x15D09, size: 0x8, addend: 0x0, symName: __ZN5Eigen8internal16binary_evaluatorINS_13CwiseBinaryOpINS0_13scalar_sum_opIddEEKNS_6MatrixIdLin1ELin1ELi0ELin1ELin1EEES7_EENS0_10IndexBasedES9_ddE4DataD1Ev, symObjAddr: 0x2E98, symBinAddr: 0x1000053D8, symSize: 0x2C }
  - { offsetInCU: 0x15D36, offset: 0x15D36, size: 0x8, addend: 0x0, symName: __ZN5Eigen8internal16binary_evaluatorINS_13CwiseBinaryOpINS0_13scalar_sum_opIddEEKNS_6MatrixIdLin1ELin1ELi0ELin1ELin1EEES7_EENS0_10IndexBasedES9_ddE4DataD2Ev, symObjAddr: 0x2EC4, symBinAddr: 0x100005404, symSize: 0x3C }
  - { offsetInCU: 0x15D63, offset: 0x15D63, size: 0x8, addend: 0x0, symName: __ZN5Eigen8internal20scalar_difference_opIddEC1Ev, symObjAddr: 0x2F00, symBinAddr: 0x100005440, symSize: 0x2C }
  - { offsetInCU: 0x15D8D, offset: 0x15D8D, size: 0x8, addend: 0x0, symName: __ZN5Eigen13CwiseBinaryOpINS_8internal20scalar_difference_opIddEEKNS_6MatrixIdLin1ELin1ELi0ELin1ELin1EEES6_EC1ERS6_S8_RKS3_, symObjAddr: 0x2F2C, symBinAddr: 0x10000546C, symSize: 0x44 }
  - { offsetInCU: 0x15DE1, offset: 0x15DE1, size: 0x8, addend: 0x0, symName: __ZN5Eigen8internal20scalar_difference_opIddEC2Ev, symObjAddr: 0x2F70, symBinAddr: 0x1000054B0, symSize: 0x14 }
  - { offsetInCU: 0x15E0B, offset: 0x15E0B, size: 0x8, addend: 0x0, symName: __ZN5Eigen13CwiseBinaryOpINS_8internal20scalar_difference_opIddEEKNS_6MatrixIdLin1ELin1ELi0ELin1ELin1EEES6_EC2ERS6_S8_RKS3_, symObjAddr: 0x2F84, symBinAddr: 0x1000054C4, symSize: 0xF0 }
  - { offsetInCU: 0x15E64, offset: 0x15E64, size: 0x8, addend: 0x0, symName: __ZN5Eigen17CwiseBinaryOpImplINS_8internal20scalar_difference_opIddEEKNS_6MatrixIdLin1ELin1ELi0ELin1ELin1EEES6_NS_5DenseEEC2Ev, symObjAddr: 0x3074, symBinAddr: 0x1000055B4, symSize: 0x2C }
  - { offsetInCU: 0x15E90, offset: 0x15E90, size: 0x8, addend: 0x0, symName: __ZN5Eigen8internal20scalar_difference_opIddEC1ERKS2_, symObjAddr: 0x30A0, symBinAddr: 0x1000055E0, symSize: 0x34 }
  - { offsetInCU: 0x15EC5, offset: 0x15EC5, size: 0x8, addend: 0x0, symName: __ZN5Eigen10MatrixBaseINS_13CwiseBinaryOpINS_8internal20scalar_difference_opIddEEKNS_6MatrixIdLin1ELin1ELi0ELin1ELin1EEES7_EEEC2Ev, symObjAddr: 0x30D4, symBinAddr: 0x100005614, symSize: 0x2C }
  - { offsetInCU: 0x15EEF, offset: 0x15EEF, size: 0x8, addend: 0x0, symName: __ZN5Eigen9DenseBaseINS_13CwiseBinaryOpINS_8internal20scalar_difference_opIddEEKNS_6MatrixIdLin1ELin1ELi0ELin1ELin1EEES7_EEEC2Ev, symObjAddr: 0x3100, symBinAddr: 0x100005640, symSize: 0x14 }
  - { offsetInCU: 0x15F19, offset: 0x15F19, size: 0x8, addend: 0x0, symName: __ZN5Eigen8internal20scalar_difference_opIddEC2ERKS2_, symObjAddr: 0x3114, symBinAddr: 0x100005654, symSize: 0x18 }
  - { offsetInCU: 0x15F4E, offset: 0x15F4E, size: 0x8, addend: 0x0, symName: __ZN5Eigen6MatrixIdLin1ELin1ELi0ELin1ELin1EEC2INS_13CwiseBinaryOpINS_8internal20scalar_difference_opIddEEKS1_S7_EEEERKNS_9EigenBaseIT_EE, symObjAddr: 0x312C, symBinAddr: 0x10000566C, symSize: 0x40 }
  - { offsetInCU: 0x15F90, offset: 0x15F90, size: 0x8, addend: 0x0, symName: __ZNK5Eigen9EigenBaseINS_13CwiseBinaryOpINS_8internal20scalar_difference_opIddEEKNS_6MatrixIdLin1ELin1ELi0ELin1ELin1EEES7_EEE7derivedEv, symObjAddr: 0x316C, symBinAddr: 0x1000056AC, symSize: 0x14 }
  - { offsetInCU: 0x15FB6, offset: 0x15FB6, size: 0x8, addend: 0x0, symName: __ZN5Eigen15PlainObjectBaseINS_6MatrixIdLin1ELin1ELi0ELin1ELin1EEEEC2INS_13CwiseBinaryOpINS_8internal20scalar_difference_opIddEEKS2_S9_EEEERKNS_9DenseBaseIT_EE, symObjAddr: 0x3180, symBinAddr: 0x1000056C0, symSize: 0x80 }
  - { offsetInCU: 0x15FF8, offset: 0x15FF8, size: 0x8, addend: 0x0, symName: __ZN5Eigen15PlainObjectBaseINS_6MatrixIdLin1ELin1ELi0ELin1ELin1EEEE10resizeLikeINS_13CwiseBinaryOpINS_8internal20scalar_difference_opIddEEKS2_S9_EEEEvRKNS_9EigenBaseIT_EE, symObjAddr: 0x3200, symBinAddr: 0x100005740, symSize: 0x11C }
  - { offsetInCU: 0x1608C, offset: 0x1608C, size: 0x8, addend: 0x0, symName: __ZN5Eigen15PlainObjectBaseINS_6MatrixIdLin1ELin1ELi0ELin1ELin1EEEE12_set_noaliasINS_13CwiseBinaryOpINS_8internal20scalar_difference_opIddEEKS2_S9_EEEERS2_RKNS_9DenseBaseIT_EE, symObjAddr: 0x331C, symBinAddr: 0x10000585C, symSize: 0x60 }
  - { offsetInCU: 0x160CA, offset: 0x160CA, size: 0x8, addend: 0x0, symName: __ZNK5Eigen13CwiseBinaryOpINS_8internal20scalar_difference_opIddEEKNS_6MatrixIdLin1ELin1ELi0ELin1ELin1EEES6_E4rowsEv, symObjAddr: 0x337C, symBinAddr: 0x1000058BC, symSize: 0x28 }
  - { offsetInCU: 0x160F0, offset: 0x160F0, size: 0x8, addend: 0x0, symName: __ZNK5Eigen13CwiseBinaryOpINS_8internal20scalar_difference_opIddEEKNS_6MatrixIdLin1ELin1ELi0ELin1ELin1EEES6_E4colsEv, symObjAddr: 0x33A4, symBinAddr: 0x1000058E4, symSize: 0x28 }
  - { offsetInCU: 0x16116, offset: 0x16116, size: 0x8, addend: 0x0, symName: __ZN5Eigen8internal10AssignmentINS_6MatrixIdLin1ELin1ELi0ELin1ELin1EEENS_13CwiseBinaryOpINS0_20scalar_difference_opIddEEKS3_S7_EENS0_9assign_opIddEENS0_11Dense2DenseEvE3runERS3_RKS8_RKSA_, symObjAddr: 0x3408, symBinAddr: 0x100005948, symSize: 0x40 }
  - { offsetInCU: 0x16158, offset: 0x16158, size: 0x8, addend: 0x0, symName: __ZN5Eigen8internal27checkTransposeAliasing_implINS_6MatrixIdLin1ELin1ELi0ELin1ELin1EEENS_13CwiseBinaryOpINS0_20scalar_difference_opIddEEKS3_S7_EELb0EE3runERS7_RKS8_, symObjAddr: 0x3580, symBinAddr: 0x100005AC0, symSize: 0x14 }
  - { offsetInCU: 0x16183, offset: 0x16183, size: 0x8, addend: 0x0, symName: __ZN5Eigen8internal9evaluatorINS_13CwiseBinaryOpINS0_20scalar_difference_opIddEEKNS_6MatrixIdLin1ELin1ELi0ELin1ELin1EEES7_EEEC1ERKS8_, symObjAddr: 0x3594, symBinAddr: 0x100005AD4, symSize: 0x34 }
  - { offsetInCU: 0x161BC, offset: 0x161BC, size: 0x8, addend: 0x0, symName: __ZN5Eigen8internal31generic_dense_assignment_kernelINS0_9evaluatorINS_6MatrixIdLin1ELin1ELi0ELin1ELin1EEEEENS2_INS_13CwiseBinaryOpINS0_20scalar_difference_opIddEEKS4_S9_EEEENS0_9assign_opIddEELi0EEC1ERS5_RKSB_RKSD_RS4_, symObjAddr: 0x36C0, symBinAddr: 0x100005C00, symSize: 0x4C }
  - { offsetInCU: 0x16222, offset: 0x16222, size: 0x8, addend: 0x0, symName: __ZN5Eigen8internal9evaluatorINS_13CwiseBinaryOpINS0_20scalar_difference_opIddEEKNS_6MatrixIdLin1ELin1ELi0ELin1ELin1EEES7_EEED1Ev, symObjAddr: 0x37B4, symBinAddr: 0x100005CF4, symSize: 0x2C }
  - { offsetInCU: 0x1624F, offset: 0x1624F, size: 0x8, addend: 0x0, symName: __ZN5Eigen8internal9evaluatorINS_13CwiseBinaryOpINS0_20scalar_difference_opIddEEKNS_6MatrixIdLin1ELin1ELi0ELin1ELin1EEES7_EEEC2ERKS8_, symObjAddr: 0x37E0, symBinAddr: 0x100005D20, symSize: 0x34 }
  - { offsetInCU: 0x16288, offset: 0x16288, size: 0x8, addend: 0x0, symName: __ZN5Eigen8internal16binary_evaluatorINS_13CwiseBinaryOpINS0_20scalar_difference_opIddEEKNS_6MatrixIdLin1ELin1ELi0ELin1ELin1EEES7_EENS0_10IndexBasedES9_ddEC2ERKS8_, symObjAddr: 0x3814, symBinAddr: 0x100005D54, symSize: 0x64 }
  - { offsetInCU: 0x162C1, offset: 0x162C1, size: 0x8, addend: 0x0, symName: __ZN5Eigen8internal14evaluator_baseINS_13CwiseBinaryOpINS0_20scalar_difference_opIddEEKNS_6MatrixIdLin1ELin1ELi0ELin1ELin1EEES7_EEEC2Ev, symObjAddr: 0x3878, symBinAddr: 0x100005DB8, symSize: 0x14 }
  - { offsetInCU: 0x162EB, offset: 0x162EB, size: 0x8, addend: 0x0, symName: __ZN5Eigen8internal16binary_evaluatorINS_13CwiseBinaryOpINS0_20scalar_difference_opIddEEKNS_6MatrixIdLin1ELin1ELi0ELin1ELin1EEES7_EENS0_10IndexBasedES9_ddE4DataC1ERKS8_, symObjAddr: 0x388C, symBinAddr: 0x100005DCC, symSize: 0x34 }
  - { offsetInCU: 0x16324, offset: 0x16324, size: 0x8, addend: 0x0, symName: __ZN5Eigen8internal14evaluator_baseINS_13CwiseBinaryOpINS0_20scalar_difference_opIddEEKNS_6MatrixIdLin1ELin1ELi0ELin1ELin1EEES7_EEED2Ev, symObjAddr: 0x38C0, symBinAddr: 0x100005E00, symSize: 0x14 }
  - { offsetInCU: 0x1634E, offset: 0x1634E, size: 0x8, addend: 0x0, symName: __ZN5Eigen8internal16binary_evaluatorINS_13CwiseBinaryOpINS0_20scalar_difference_opIddEEKNS_6MatrixIdLin1ELin1ELi0ELin1ELin1EEES7_EENS0_10IndexBasedES9_ddE4DataC2ERKS8_, symObjAddr: 0x38D4, symBinAddr: 0x100005E14, symSize: 0xA8 }
  - { offsetInCU: 0x16387, offset: 0x16387, size: 0x8, addend: 0x0, symName: __ZNK5Eigen13CwiseBinaryOpINS_8internal20scalar_difference_opIddEEKNS_6MatrixIdLin1ELin1ELi0ELin1ELin1EEES6_E7functorEv, symObjAddr: 0x397C, symBinAddr: 0x100005EBC, symSize: 0x18 }
  - { offsetInCU: 0x163AD, offset: 0x163AD, size: 0x8, addend: 0x0, symName: __ZNK5Eigen13CwiseBinaryOpINS_8internal20scalar_difference_opIddEEKNS_6MatrixIdLin1ELin1ELi0ELin1ELin1EEES6_E3lhsEv, symObjAddr: 0x3994, symBinAddr: 0x100005ED4, symSize: 0x18 }
  - { offsetInCU: 0x163D3, offset: 0x163D3, size: 0x8, addend: 0x0, symName: __ZNK5Eigen13CwiseBinaryOpINS_8internal20scalar_difference_opIddEEKNS_6MatrixIdLin1ELin1ELi0ELin1ELin1EEES6_E3rhsEv, symObjAddr: 0x39AC, symBinAddr: 0x100005EEC, symSize: 0x18 }
  - { offsetInCU: 0x163F9, offset: 0x163F9, size: 0x8, addend: 0x0, symName: __ZN5Eigen8internal31generic_dense_assignment_kernelINS0_9evaluatorINS_6MatrixIdLin1ELin1ELi0ELin1ELin1EEEEENS2_INS_13CwiseBinaryOpINS0_20scalar_difference_opIddEEKS4_S9_EEEENS0_9assign_opIddEELi0EEC2ERS5_RKSB_RKSD_RS4_, symObjAddr: 0x39C4, symBinAddr: 0x100005F04, symSize: 0x44 }
  - { offsetInCU: 0x1645F, offset: 0x1645F, size: 0x8, addend: 0x0, symName: __ZNK5Eigen8internal31generic_dense_assignment_kernelINS0_9evaluatorINS_6MatrixIdLin1ELin1ELi0ELin1ELin1EEEEENS2_INS_13CwiseBinaryOpINS0_20scalar_difference_opIddEEKS4_S9_EEEENS0_9assign_opIddEELi0EE4sizeEv, symObjAddr: 0x3A08, symBinAddr: 0x100005F48, symSize: 0x28 }
  - { offsetInCU: 0x16485, offset: 0x16485, size: 0x8, addend: 0x0, symName: __ZN5Eigen8internal31unaligned_dense_assignment_loopILb1EE3runINS0_31generic_dense_assignment_kernelINS0_9evaluatorINS_6MatrixIdLin1ELin1ELi0ELin1ELin1EEEEENS5_INS_13CwiseBinaryOpINS0_20scalar_difference_opIddEEKS7_SC_EEEENS0_9assign_opIddEELi0EEEEEvRT_ll, symObjAddr: 0x3A30, symBinAddr: 0x100005F70, symSize: 0x18 }
  - { offsetInCU: 0x164C4, offset: 0x164C4, size: 0x8, addend: 0x0, symName: __ZN5Eigen8internal31generic_dense_assignment_kernelINS0_9evaluatorINS_6MatrixIdLin1ELin1ELi0ELin1ELin1EEEEENS2_INS_13CwiseBinaryOpINS0_20scalar_difference_opIddEEKS4_S9_EEEENS0_9assign_opIddEELi0EE12assignPacketILi16ELi16E19__simd128_float64_tEEvl, symObjAddr: 0x3A48, symBinAddr: 0x100005F88, symSize: 0x64 }
  - { offsetInCU: 0x16516, offset: 0x16516, size: 0x8, addend: 0x0, symName: __ZN5Eigen8internal31unaligned_dense_assignment_loopILb0EE3runINS0_31generic_dense_assignment_kernelINS0_9evaluatorINS_6MatrixIdLin1ELin1ELi0ELin1ELin1EEEEENS5_INS_13CwiseBinaryOpINS0_20scalar_difference_opIddEEKS7_SC_EEEENS0_9assign_opIddEELi0EEEEEvRT_ll, symObjAddr: 0x3AAC, symBinAddr: 0x100005FEC, symSize: 0x68 }
  - { offsetInCU: 0x1657E, offset: 0x1657E, size: 0x8, addend: 0x0, symName: __ZNK5Eigen8internal16binary_evaluatorINS_13CwiseBinaryOpINS0_20scalar_difference_opIddEEKNS_6MatrixIdLin1ELin1ELi0ELin1ELin1EEES7_EENS0_10IndexBasedES9_ddE6packetILi16E19__simd128_float64_tEET0_l, symObjAddr: 0x3B14, symBinAddr: 0x100006054, symSize: 0x70 }
  - { offsetInCU: 0x165C6, offset: 0x165C6, size: 0x8, addend: 0x0, symName: __ZNK5Eigen8internal16binary_evaluatorINS_13CwiseBinaryOpINS0_20scalar_difference_opIddEEKNS_6MatrixIdLin1ELin1ELi0ELin1ELin1EEES7_EENS0_10IndexBasedES9_ddE4Data4funcEv, symObjAddr: 0x3B84, symBinAddr: 0x1000060C4, symSize: 0x14 }
  - { offsetInCU: 0x165EC, offset: 0x165EC, size: 0x8, addend: 0x0, symName: __ZNK5Eigen8internal20scalar_difference_opIddE8packetOpI19__simd128_float64_tEEKT_RS6_S7_, symObjAddr: 0x3B98, symBinAddr: 0x1000060D8, symSize: 0x30 }
  - { offsetInCU: 0x16639, offset: 0x16639, size: 0x8, addend: 0x0, symName: __ZN5Eigen8internal31generic_dense_assignment_kernelINS0_9evaluatorINS_6MatrixIdLin1ELin1ELi0ELin1ELin1EEEEENS2_INS_13CwiseBinaryOpINS0_20scalar_difference_opIddEEKS4_S9_EEEENS0_9assign_opIddEELi0EE11assignCoeffEl, symObjAddr: 0x3C08, symBinAddr: 0x100006148, symSize: 0x64 }
  - { offsetInCU: 0x1666E, offset: 0x1666E, size: 0x8, addend: 0x0, symName: __ZNK5Eigen8internal16binary_evaluatorINS_13CwiseBinaryOpINS0_20scalar_difference_opIddEEKNS_6MatrixIdLin1ELin1ELi0ELin1ELin1EEES7_EENS0_10IndexBasedES9_ddE5coeffEl, symObjAddr: 0x3C6C, symBinAddr: 0x1000061AC, symSize: 0x64 }
  - { offsetInCU: 0x166A3, offset: 0x166A3, size: 0x8, addend: 0x0, symName: __ZNK5Eigen8internal20scalar_difference_opIddEclERKdS4_, symObjAddr: 0x3CD0, symBinAddr: 0x100006210, symSize: 0x2C }
  - { offsetInCU: 0x166E7, offset: 0x166E7, size: 0x8, addend: 0x0, symName: __ZN5Eigen8internal9evaluatorINS_13CwiseBinaryOpINS0_20scalar_difference_opIddEEKNS_6MatrixIdLin1ELin1ELi0ELin1ELin1EEES7_EEED2Ev, symObjAddr: 0x3CFC, symBinAddr: 0x10000623C, symSize: 0x2C }
  - { offsetInCU: 0x16714, offset: 0x16714, size: 0x8, addend: 0x0, symName: __ZN5Eigen8internal16binary_evaluatorINS_13CwiseBinaryOpINS0_20scalar_difference_opIddEEKNS_6MatrixIdLin1ELin1ELi0ELin1ELin1EEES7_EENS0_10IndexBasedES9_ddED2Ev, symObjAddr: 0x3D28, symBinAddr: 0x100006268, symSize: 0x34 }
  - { offsetInCU: 0x16740, offset: 0x16740, size: 0x8, addend: 0x0, symName: __ZN5Eigen8internal16binary_evaluatorINS_13CwiseBinaryOpINS0_20scalar_difference_opIddEEKNS_6MatrixIdLin1ELin1ELi0ELin1ELin1EEES7_EENS0_10IndexBasedES9_ddE4DataD1Ev, symObjAddr: 0x3D5C, symBinAddr: 0x10000629C, symSize: 0x2C }
  - { offsetInCU: 0x1676D, offset: 0x1676D, size: 0x8, addend: 0x0, symName: __ZN5Eigen8internal16binary_evaluatorINS_13CwiseBinaryOpINS0_20scalar_difference_opIddEEKNS_6MatrixIdLin1ELin1ELi0ELin1ELin1EEES7_EENS0_10IndexBasedES9_ddE4DataD2Ev, symObjAddr: 0x3D88, symBinAddr: 0x1000062C8, symSize: 0x3C }
  - { offsetInCU: 0x167B8, offset: 0x167B8, size: 0x8, addend: 0x0, symName: __ZNKSt3__16chrono10time_pointINS0_12steady_clockENS0_8durationIxNS_5ratioILl1ELl1000000000EEEEEE16time_since_epochB8ue170006Ev, symObjAddr: 0x3E34, symBinAddr: 0x100006374, symSize: 0x20 }
  - { offsetInCU: 0x167E8, offset: 0x167E8, size: 0x8, addend: 0x0, symName: __ZNSt3__16chrono8durationIxNS_5ratioILl1ELl1000000000EEEEC1B8ue170006IxEERKT_PNS_9enable_ifIXaasr14is_convertibleIS8_xEE5valueooL_ZNS_17integral_constantIbLb0EE5valueEEntsr23treat_as_floating_pointIS6_EE5valueEvE4typeE, symObjAddr: 0x3E54, symBinAddr: 0x100006394, symSize: 0x3C }
  - { offsetInCU: 0x16834, offset: 0x16834, size: 0x8, addend: 0x0, symName: __ZNSt3__16chrono8durationIxNS_5ratioILl1ELl1000000000EEEEC2B8ue170006IxEERKT_PNS_9enable_ifIXaasr14is_convertibleIS8_xEE5valueooL_ZNS_17integral_constantIbLb0EE5valueEEntsr23treat_as_floating_pointIS6_EE5valueEvE4typeE, symObjAddr: 0x3E90, symBinAddr: 0x1000063D0, symSize: 0x28 }
  - { offsetInCU: 0x16880, offset: 0x16880, size: 0x8, addend: 0x0, symName: __ZNSt3__111char_traitsIcE6lengthB8ue170006EPKc, symObjAddr: 0x40A4, symBinAddr: 0x1000065E4, symSize: 0x34 }
  - { offsetInCU: 0x168C1, offset: 0x168C1, size: 0x8, addend: 0x0, symName: __ZNKSt3__113basic_ostreamIcNS_11char_traitsIcEEE6sentrycvbB8ue170006Ev, symObjAddr: 0x40D8, symBinAddr: 0x100006618, symSize: 0x1C }
  - { offsetInCU: 0x168E7, offset: 0x168E7, size: 0x8, addend: 0x0, symName: __ZNSt3__119ostreambuf_iteratorIcNS_11char_traitsIcEEEC1B8ue170006ERNS_13basic_ostreamIcS2_EE, symObjAddr: 0x4334, symBinAddr: 0x100006874, symSize: 0x34 }
  - { offsetInCU: 0x1691F, offset: 0x1691F, size: 0x8, addend: 0x0, symName: __ZNKSt3__18ios_base5flagsB8ue170006Ev, symObjAddr: 0x4368, symBinAddr: 0x1000068A8, symSize: 0x18 }
  - { offsetInCU: 0x16947, offset: 0x16947, size: 0x8, addend: 0x0, symName: __ZNKSt3__19basic_iosIcNS_11char_traitsIcEEE4fillB8ue170006Ev, symObjAddr: 0x4380, symBinAddr: 0x1000068C0, symSize: 0x64 }
  - { offsetInCU: 0x1696F, offset: 0x1696F, size: 0x8, addend: 0x0, symName: __ZNKSt3__119ostreambuf_iteratorIcNS_11char_traitsIcEEE6failedB8ue170006Ev, symObjAddr: 0x43E4, symBinAddr: 0x100006924, symSize: 0x24 }
  - { offsetInCU: 0x16995, offset: 0x16995, size: 0x8, addend: 0x0, symName: __ZNSt3__19basic_iosIcNS_11char_traitsIcEEE8setstateB8ue170006Ej, symObjAddr: 0x4408, symBinAddr: 0x100006948, symSize: 0x2C }
  - { offsetInCU: 0x169CA, offset: 0x169CA, size: 0x8, addend: 0x0, symName: __ZNKSt3__18ios_base5widthB8ue170006Ev, symObjAddr: 0x4434, symBinAddr: 0x100006974, symSize: 0x18 }
  - { offsetInCU: 0x169F2, offset: 0x169F2, size: 0x8, addend: 0x0, symName: __ZNSt3__115basic_streambufIcNS_11char_traitsIcEEE5sputnB8ue170006EPKcl, symObjAddr: 0x444C, symBinAddr: 0x10000698C, symSize: 0x3C }
  - { offsetInCU: 0x16A34, offset: 0x16A34, size: 0x8, addend: 0x0, symName: __ZNSt3__112basic_stringIcNS_11char_traitsIcEENS_9allocatorIcEEEC1B8ue170006Emc, symObjAddr: 0x4488, symBinAddr: 0x1000069C8, symSize: 0x3C }
  - { offsetInCU: 0x16A7C, offset: 0x16A7C, size: 0x8, addend: 0x0, symName: __ZNKSt3__112basic_stringIcNS_11char_traitsIcEENS_9allocatorIcEEE4dataB8ue170006Ev, symObjAddr: 0x44C4, symBinAddr: 0x100006A04, symSize: 0x28 }
  - { offsetInCU: 0x16AA2, offset: 0x16AA2, size: 0x8, addend: 0x0, symName: __ZNSt3__18ios_base5widthB8ue170006El, symObjAddr: 0x44EC, symBinAddr: 0x100006A2C, symSize: 0x2C }
  - { offsetInCU: 0x16AE8, offset: 0x16AE8, size: 0x8, addend: 0x0, symName: __ZNSt3__112basic_stringIcNS_11char_traitsIcEENS_9allocatorIcEEEC2B8ue170006Emc, symObjAddr: 0x4518, symBinAddr: 0x100006A58, symSize: 0x4C }
  - { offsetInCU: 0x16B35, offset: 0x16B35, size: 0x8, addend: 0x0, symName: __ZNSt3__117__compressed_pairINS_12basic_stringIcNS_11char_traitsIcEENS_9allocatorIcEEE5__repES5_EC1B8ue170006INS_18__default_init_tagESA_EEOT_OT0_, symObjAddr: 0x4564, symBinAddr: 0x100006AA4, symSize: 0x3C }
  - { offsetInCU: 0x16B8D, offset: 0x16B8D, size: 0x8, addend: 0x0, symName: __ZNSt3__117__compressed_pairINS_12basic_stringIcNS_11char_traitsIcEENS_9allocatorIcEEE5__repES5_EC2B8ue170006INS_18__default_init_tagESA_EEOT_OT0_, symObjAddr: 0x45A0, symBinAddr: 0x100006AE0, symSize: 0x3C }
  - { offsetInCU: 0x16BE5, offset: 0x16BE5, size: 0x8, addend: 0x0, symName: __ZNSt3__122__compressed_pair_elemINS_12basic_stringIcNS_11char_traitsIcEENS_9allocatorIcEEE5__repELi0ELb0EEC2B8ue170006ENS_18__default_init_tagE, symObjAddr: 0x45DC, symBinAddr: 0x100006B1C, symSize: 0x14 }
  - { offsetInCU: 0x16C1A, offset: 0x16C1A, size: 0x8, addend: 0x0, symName: __ZNSt3__122__compressed_pair_elemINS_9allocatorIcEELi1ELb1EEC2B8ue170006ENS_18__default_init_tagE, symObjAddr: 0x45F0, symBinAddr: 0x100006B30, symSize: 0x2C }
  - { offsetInCU: 0x16C4F, offset: 0x16C4F, size: 0x8, addend: 0x0, symName: __ZNSt3__19allocatorIcEC2B8ue170006Ev, symObjAddr: 0x461C, symBinAddr: 0x100006B5C, symSize: 0x2C }
  - { offsetInCU: 0x16C79, offset: 0x16C79, size: 0x8, addend: 0x0, symName: __ZNSt3__116__non_trivial_ifILb1ENS_9allocatorIcEEEC2B8ue170006Ev, symObjAddr: 0x4648, symBinAddr: 0x100006B88, symSize: 0x14 }
  - { offsetInCU: 0x16CA3, offset: 0x16CA3, size: 0x8, addend: 0x0, symName: __ZNKSt3__112basic_stringIcNS_11char_traitsIcEENS_9allocatorIcEEE13__get_pointerB8ue170006Ev, symObjAddr: 0x4670, symBinAddr: 0x100006BB0, symSize: 0x54 }
  - { offsetInCU: 0x16CC9, offset: 0x16CC9, size: 0x8, addend: 0x0, symName: __ZNKSt3__112basic_stringIcNS_11char_traitsIcEENS_9allocatorIcEEE9__is_longB8ue170006Ev, symObjAddr: 0x46C4, symBinAddr: 0x100006C04, symSize: 0x38 }
  - { offsetInCU: 0x16CEF, offset: 0x16CEF, size: 0x8, addend: 0x0, symName: __ZNKSt3__112basic_stringIcNS_11char_traitsIcEENS_9allocatorIcEEE18__get_long_pointerB8ue170006Ev, symObjAddr: 0x46FC, symBinAddr: 0x100006C3C, symSize: 0x28 }
  - { offsetInCU: 0x16D15, offset: 0x16D15, size: 0x8, addend: 0x0, symName: __ZNKSt3__112basic_stringIcNS_11char_traitsIcEENS_9allocatorIcEEE19__get_short_pointerB8ue170006Ev, symObjAddr: 0x4724, symBinAddr: 0x100006C64, symSize: 0x28 }
  - { offsetInCU: 0x16D3B, offset: 0x16D3B, size: 0x8, addend: 0x0, symName: __ZNKSt3__117__compressed_pairINS_12basic_stringIcNS_11char_traitsIcEENS_9allocatorIcEEE5__repES5_E5firstB8ue170006Ev, symObjAddr: 0x474C, symBinAddr: 0x100006C8C, symSize: 0x24 }
  - { offsetInCU: 0x16D61, offset: 0x16D61, size: 0x8, addend: 0x0, symName: __ZNKSt3__122__compressed_pair_elemINS_12basic_stringIcNS_11char_traitsIcEENS_9allocatorIcEEE5__repELi0ELb0EE5__getB8ue170006Ev, symObjAddr: 0x4770, symBinAddr: 0x100006CB0, symSize: 0x14 }
  - { offsetInCU: 0x16D87, offset: 0x16D87, size: 0x8, addend: 0x0, symName: __ZNSt3__114pointer_traitsIPKcE10pointer_toB8ue170006ERS1_, symObjAddr: 0x4784, symBinAddr: 0x100006CC4, symSize: 0x14 }
  - { offsetInCU: 0x16DAA, offset: 0x16DAA, size: 0x8, addend: 0x0, symName: __ZNSt3__119ostreambuf_iteratorIcNS_11char_traitsIcEEEC2B8ue170006ERNS_13basic_ostreamIcS2_EE, symObjAddr: 0x4798, symBinAddr: 0x100006CD8, symSize: 0x54 }
  - { offsetInCU: 0x16DE2, offset: 0x16DE2, size: 0x8, addend: 0x0, symName: __ZNKSt3__19basic_iosIcNS_11char_traitsIcEEE5rdbufB8ue170006Ev, symObjAddr: 0x47EC, symBinAddr: 0x100006D2C, symSize: 0x24 }
  - { offsetInCU: 0x16E0A, offset: 0x16E0A, size: 0x8, addend: 0x0, symName: __ZNKSt3__18ios_base5rdbufB8ue170006Ev, symObjAddr: 0x4810, symBinAddr: 0x100006D50, symSize: 0x18 }
  - { offsetInCU: 0x16E30, offset: 0x16E30, size: 0x8, addend: 0x0, symName: __ZNSt3__111char_traitsIcE11eq_int_typeB8ue170006Eii, symObjAddr: 0x4828, symBinAddr: 0x100006D68, symSize: 0x28 }
  - { offsetInCU: 0x16E63, offset: 0x16E63, size: 0x8, addend: 0x0, symName: __ZNSt3__111char_traitsIcE3eofB8ue170006Ev, symObjAddr: 0x4850, symBinAddr: 0x100006D90, symSize: 0x8 }
  - { offsetInCU: 0x16E77, offset: 0x16E77, size: 0x8, addend: 0x0, symName: __ZNKSt3__19basic_iosIcNS_11char_traitsIcEEE5widenB8ue170006Ec, symObjAddr: 0x4858, symBinAddr: 0x100006D98, symSize: 0x84 }
  - { offsetInCU: 0x16EE5, offset: 0x16EE5, size: 0x8, addend: 0x0, symName: __ZNKSt3__15ctypeIcE5widenB8ue170006Ec, symObjAddr: 0x4908, symBinAddr: 0x100006E48, symSize: 0x38 }
  - { offsetInCU: 0x16F1A, offset: 0x16F1A, size: 0x8, addend: 0x0, symName: __ZNSt3__18ios_base8setstateB8ue170006Ej, symObjAddr: 0x4940, symBinAddr: 0x100006E80, symSize: 0x34 }
...
