---
triple:          'arm64-apple-darwin'
binary-path:     '/Users/zhazhahui/mathpackage_test/testeigen_multiplicatioin/eigen_multiplicatioin'
relocations:
  - { offsetInCU: 0x44, offset: 0x44, size: 0x8, addend: 0x0, symName: __ZN5EigenL4lastE, symObjAddr: 0x1B66BA, symBinAddr: 0x100024020, symSize: 0x0 }
  - { offsetInCU: 0x4C2, offset: 0x4C2, size: 0x8, addend: 0x0, symName: __ZN5Eigen8internal20manage_caching_sizesENS_6ActionEPlS2_S2_, symObjAddr: 0xFC70, symBinAddr: 0x100012194, symSize: 0x138 }
  - { offsetInCU: 0x4E7, offset: 0x4E7, size: 0x8, addend: 0x0, symName: __ZZN5Eigen8internal20manage_caching_sizesENS_6ActionEPlS2_S2_E12m_cacheSizes, symObjAddr: 0x1BCE0, symBinAddr: 0x100024000, symSize: 0x0 }
  - { offsetInCU: 0x4BB0, offset: 0x4BB0, size: 0x8, addend: 0x0, symName: __ZN5Eigen8internal37evaluateProductBlockingSizesHeuristicIddLi1ElEEvRT2_S3_S3_S2_, symObjAddr: 0xF480, symBinAddr: 0x1000119A4, symSize: 0x7F0 }
  - { offsetInCU: 0x6EE5, offset: 0x6EE5, size: 0x8, addend: 0x0, symName: __ZN5Eigen8internal31conditional_aligned_delete_autoIdLb1EEEvPT_m, symObjAddr: 0x788, symBinAddr: 0x100002CAC, symSize: 0x28 }
  - { offsetInCU: 0x6F31, offset: 0x6F31, size: 0x8, addend: 0x0, symName: __ZN5Eigen8internal24conditional_aligned_freeILb1EEEvPv, symObjAddr: 0x7BC, symBinAddr: 0x100002CE0, symSize: 0x24 }
  - { offsetInCU: 0x6F65, offset: 0x6F65, size: 0x8, addend: 0x0, symName: __ZN5Eigen8internal12aligned_freeEPv, symObjAddr: 0x7E0, symBinAddr: 0x100002D04, symSize: 0x24 }
  - { offsetInCU: 0x6FC7, offset: 0x6FC7, size: 0x8, addend: 0x0, symName: __ZN5Eigen8internal19throw_std_bad_allocEv, symObjAddr: 0x1008, symBinAddr: 0x10000352C, symSize: 0x34 }
  - { offsetInCU: 0x7003, offset: 0x7003, size: 0x8, addend: 0x0, symName: __ZN5Eigen8internal28conditional_aligned_new_autoIdLb1EEEPT_m, symObjAddr: 0x1108, symBinAddr: 0x10000362C, symSize: 0x84 }
  - { offsetInCU: 0x7071, offset: 0x7071, size: 0x8, addend: 0x0, symName: __ZN5Eigen8internal26conditional_aligned_mallocILb1EEEPvm, symObjAddr: 0x118C, symBinAddr: 0x1000036B0, symSize: 0x24 }
  - { offsetInCU: 0x70A7, offset: 0x70A7, size: 0x8, addend: 0x0, symName: __ZN5Eigen8internal14aligned_mallocEm, symObjAddr: 0x11B0, symBinAddr: 0x1000036D4, symSize: 0xDC }
  - { offsetInCU: 0x70E8, offset: 0x70E8, size: 0x8, addend: 0x0, symName: __ZN5Eigen8internal28check_that_malloc_is_allowedEv, symObjAddr: 0x128C, symBinAddr: 0x1000037B0, symSize: 0x4 }
  - { offsetInCU: 0x7101, offset: 0x7101, size: 0x8, addend: 0x0, symName: __ZN5Eigen8internal24call_assignment_no_aliasINS_6MatrixIdLin1ELin1ELi0ELin1ELin1EEENS_14CwiseNullaryOpINS0_16scalar_random_opIdEES3_EENS0_9assign_opIddEEEEvRT_RKT0_RKT1_, symObjAddr: 0x1290, symBinAddr: 0x1000037B4, symSize: 0x3C }
  - { offsetInCU: 0x71D9, offset: 0x71D9, size: 0x8, addend: 0x0, symName: __ZN5Eigen8internal18check_for_aliasingINS_6MatrixIdLin1ELin1ELi0ELin1ELin1EEENS_14CwiseNullaryOpINS0_16scalar_random_opIdEES3_EEEEvRKT_RKT0_, symObjAddr: 0x134C, symBinAddr: 0x100003870, symSize: 0x60 }
  - { offsetInCU: 0x7224, offset: 0x7224, size: 0x8, addend: 0x0, symName: __ZN5Eigen8internal26call_dense_assignment_loopINS_6MatrixIdLin1ELin1ELi0ELin1ELin1EEENS_14CwiseNullaryOpINS0_16scalar_random_opIdEES3_EENS0_9assign_opIddEEEEvRT_RKT0_RKT1_, symObjAddr: 0x13AC, symBinAddr: 0x1000038D0, symSize: 0xE0 }
  - { offsetInCU: 0x746A, offset: 0x746A, size: 0x8, addend: 0x0, symName: __ZN5Eigen8internal17resize_if_allowedINS_6MatrixIdLin1ELin1ELi0ELin1ELin1EEENS_14CwiseNullaryOpINS0_16scalar_random_opIdEES3_EEddEEvRT_RKT0_RKNS0_9assign_opIT1_T2_EE, symObjAddr: 0x154C, symBinAddr: 0x100003A70, symSize: 0xF8 }
  - { offsetInCU: 0x7742, offset: 0x7742, size: 0x8, addend: 0x0, symName: __ZN5Eigen8internal6randomIdEENS0_13random_retvalINS0_36global_math_functions_filtering_baseIT_vE4typeEE4typeEv, symObjAddr: 0x1CA8, symBinAddr: 0x1000041CC, symSize: 0x14 }
  - { offsetInCU: 0x77BD, offset: 0x77BD, size: 0x8, addend: 0x0, symName: __ZN5Eigen8internal24call_assignment_no_aliasINS_6MatrixIdLin1ELin1ELi0ELin1ELin1EEENS_7ProductIS3_S3_Li0EEENS0_9assign_opIddEEEEvRT_RKT0_RKT1_, symObjAddr: 0x2224, symBinAddr: 0x100004748, symSize: 0x3C }
  - { offsetInCU: 0x7B56, offset: 0x7B56, size: 0x8, addend: 0x0, symName: __ZN5Eigen8internal22ignore_unused_variableIdEEvRKT_, symObjAddr: 0x2950, symBinAddr: 0x100004E74, symSize: 0x10 }
  - { offsetInCU: 0x7B85, offset: 0x7B85, size: 0x8, addend: 0x0, symName: __ZN5Eigen8internal42call_restricted_packet_assignment_no_aliasINS_6MatrixIdLin1ELin1ELi0ELin1ELin1EEENS_7ProductIS3_S3_Li1EEENS0_9assign_opIddEEEEvRT_RKT0_RKT1_, symObjAddr: 0x2960, symBinAddr: 0x100004E84, symSize: 0xD8 }
  - { offsetInCU: 0x7C3A, offset: 0x7C3A, size: 0x8, addend: 0x0, symName: __ZN5Eigen8internal17resize_if_allowedINS_6MatrixIdLin1ELin1ELi0ELin1ELin1EEENS_7ProductIS3_S3_Li1EEEddEEvRT_RKT0_RKNS0_9assign_opIT1_T2_EE, symObjAddr: 0x2AB8, symBinAddr: 0x100004FDC, symSize: 0xF8 }
  - { offsetInCU: 0x83CF, offset: 0x83CF, size: 0x8, addend: 0x0, symName: __ZN5Eigen8internal6pstoreId19__simd128_float64_tEEvPT_RKT0_, symObjAddr: 0x5654, symBinAddr: 0x100007B78, symSize: 0x2C }
  - { offsetInCU: 0x84A6, offset: 0x84A6, size: 0x8, addend: 0x0, symName: __ZN5Eigen8internal5pset1I19__simd128_float64_tEET_RKNS0_15unpacket_traitsIS3_E4typeE, symObjAddr: 0x5748, symBinAddr: 0x100007C6C, symSize: 0x44 }
  - { offsetInCU: 0x84DD, offset: 0x84DD, size: 0x8, addend: 0x0, symName: __ZN5Eigen8internal5pmaddI19__simd128_float64_tEET_RKS3_S5_S5_, symObjAddr: 0x578C, symBinAddr: 0x100007CB0, symSize: 0x54 }
  - { offsetInCU: 0x8583, offset: 0x8583, size: 0x8, addend: 0x0, symName: __ZN5Eigen8internal6ploaduI19__simd128_float64_tEET_PKNS0_15unpacket_traitsIS3_E4typeE, symObjAddr: 0x589C, symBinAddr: 0x100007DC0, symSize: 0x28 }
  - { offsetInCU: 0x85D7, offset: 0x85D7, size: 0x8, addend: 0x0, symName: __ZN5Eigen8internal15call_assignmentINS_6MatrixIdLin1ELin1ELi0ELin1ELin1EEENS_14CwiseNullaryOpINS0_18scalar_constant_opIdEES3_EEEEvRT_RKT0_, symObjAddr: 0x5F10, symBinAddr: 0x100008434, symSize: 0x50 }
  - { offsetInCU: 0x8622, offset: 0x8622, size: 0x8, addend: 0x0, symName: __ZN5Eigen8internal15call_assignmentINS_6MatrixIdLin1ELin1ELi0ELin1ELin1EEENS_14CwiseNullaryOpINS0_18scalar_constant_opIdEES3_EENS0_9assign_opIddEEEEvRT_RKT0_RKT1_NS0_9enable_ifIXntsr25evaluator_assume_aliasingISC_EE5valueEPvE4typeE, symObjAddr: 0x5F74, symBinAddr: 0x100008498, symSize: 0x38 }
  - { offsetInCU: 0x8690, offset: 0x8690, size: 0x8, addend: 0x0, symName: __ZN5Eigen8internal24call_assignment_no_aliasINS_6MatrixIdLin1ELin1ELi0ELin1ELin1EEENS_14CwiseNullaryOpINS0_18scalar_constant_opIdEES3_EENS0_9assign_opIddEEEEvRT_RKT0_RKT1_, symObjAddr: 0x5FAC, symBinAddr: 0x1000084D0, symSize: 0x3C }
  - { offsetInCU: 0x875E, offset: 0x875E, size: 0x8, addend: 0x0, symName: __ZN5Eigen8internal18check_for_aliasingINS_6MatrixIdLin1ELin1ELi0ELin1ELin1EEENS_14CwiseNullaryOpINS0_18scalar_constant_opIdEES3_EEEEvRKT_RKT0_, symObjAddr: 0x6028, symBinAddr: 0x10000854C, symSize: 0x60 }
  - { offsetInCU: 0x87A9, offset: 0x87A9, size: 0x8, addend: 0x0, symName: __ZN5Eigen8internal26call_dense_assignment_loopINS_6MatrixIdLin1ELin1ELi0ELin1ELin1EEEEEvRT_RKNS_14CwiseNullaryOpINS0_18scalar_constant_opINS4_6ScalarEEES4_EERKNS0_9assign_opIS8_S8_EE, symObjAddr: 0x6088, symBinAddr: 0x1000085AC, symSize: 0x6C }
  - { offsetInCU: 0x8838, offset: 0x8838, size: 0x8, addend: 0x0, symName: __ZN5Eigen8internal17resize_if_allowedINS_6MatrixIdLin1ELin1ELi0ELin1ELin1EEENS_14CwiseNullaryOpINS0_18scalar_constant_opIdEES3_EEddEEvRT_RKT0_RKNS0_9assign_opIT1_T2_EE, symObjAddr: 0x6108, symBinAddr: 0x10000862C, symSize: 0xF8 }
  - { offsetInCU: 0x902F, offset: 0x902F, size: 0x8, addend: 0x0, symName: __ZN5Eigen8internal16parallelize_gemmILb1ENS0_12gemm_functorIdlNS0_29general_matrix_matrix_productIldLi0ELb0EdLi0ELb0ELi0ELi1EEENS_6MatrixIdLin1ELin1ELi0ELin1ELin1EEES6_S6_NS0_19gemm_blocking_spaceILi0EddLin1ELin1ELin1ELi1ELb0EEEEElEEvRKT0_T1_SD_SD_b, symObjAddr: 0x6630, symBinAddr: 0x100008B54, symSize: 0x64 }
  - { offsetInCU: 0x97BB, offset: 0x97BB, size: 0x8, addend: 0x0, symName: __ZN5Eigen8internal4pmulIdEET_RKS2_S4_, symObjAddr: 0x7EE0, symBinAddr: 0x10000A404, symSize: 0x28 }
  - { offsetInCU: 0x98E9, offset: 0x98E9, size: 0x8, addend: 0x0, symName: __ZN5Eigen8internal22ignore_unused_variableIlEEvRKT_, symObjAddr: 0x9CA4, symBinAddr: 0x10000C1C8, symSize: 0x10 }
  - { offsetInCU: 0x998B, offset: 0x998B, size: 0x8, addend: 0x0, symName: __ZN5Eigen8internal7pstoreuId19__simd128_float64_tEEvPT_RKT0_, symObjAddr: 0x9D20, symBinAddr: 0x10000C244, symSize: 0x2C }
  - { offsetInCU: 0xA1A9, offset: 0xA1A9, size: 0x8, addend: 0x0, symName: __ZN5Eigen8internal15call_assignmentINS_3MapINS_6MatrixIdLin1ELi1ELi0ELin1ELi1EEELi0ENS_6StrideILi0ELi0EEEEENS_9TransposeIKNS_5BlockIKNS3_IdLin1ELin1ELi0ELin1ELin1EEELi1ELin1ELb0EEEEEEEvRT_RKT0_, symObjAddr: 0xE324, symBinAddr: 0x100010848, symSize: 0x50 }
  - { offsetInCU: 0xA1F4, offset: 0xA1F4, size: 0x8, addend: 0x0, symName: __ZN5Eigen8internal15call_assignmentINS_3MapINS_6MatrixIdLin1ELi1ELi0ELin1ELi1EEELi0ENS_6StrideILi0ELi0EEEEENS_9TransposeIKNS_5BlockIKNS3_IdLin1ELin1ELi0ELin1ELin1EEELi1ELin1ELb0EEEEENS0_9assign_opIddEEEEvRT_RKT0_RKT1_NS0_9enable_ifIXntsr25evaluator_assume_aliasingISJ_EE5valueEPvE4typeE, symObjAddr: 0xE388, symBinAddr: 0x1000108AC, symSize: 0x38 }
  - { offsetInCU: 0xA262, offset: 0xA262, size: 0x8, addend: 0x0, symName: __ZN5Eigen8internal24call_assignment_no_aliasINS_3MapINS_6MatrixIdLin1ELi1ELi0ELin1ELi1EEELi0ENS_6StrideILi0ELi0EEEEENS_9TransposeIKNS_5BlockIKNS3_IdLin1ELin1ELi0ELin1ELin1EEELi1ELin1ELb0EEEEENS0_9assign_opIddEEEEvRT_RKT0_RKT1_, symObjAddr: 0xE3C0, symBinAddr: 0x1000108E4, symSize: 0x3C }
  - { offsetInCU: 0xA330, offset: 0xA330, size: 0x8, addend: 0x0, symName: __ZN5Eigen8internal18check_for_aliasingINS_3MapINS_6MatrixIdLin1ELi1ELi0ELin1ELi1EEELi0ENS_6StrideILi0ELi0EEEEENS_9TransposeIKNS_5BlockIKNS3_IdLin1ELin1ELi0ELin1ELin1EEELi1ELin1ELb0EEEEEEEvRKT_RKT0_, symObjAddr: 0xE43C, symBinAddr: 0x100010960, symSize: 0x14 }
  - { offsetInCU: 0xA37B, offset: 0xA37B, size: 0x8, addend: 0x0, symName: __ZN5Eigen8internal26call_dense_assignment_loopINS_3MapINS_6MatrixIdLin1ELi1ELi0ELin1ELi1EEELi0ENS_6StrideILi0ELi0EEEEENS_9TransposeIKNS_5BlockIKNS3_IdLin1ELin1ELi0ELin1ELin1EEELi1ELin1ELb0EEEEENS0_9assign_opIddEEEEvRT_RKT0_RKT1_, symObjAddr: 0xE450, symBinAddr: 0x100010974, symSize: 0xE0 }
  - { offsetInCU: 0xA42F, offset: 0xA42F, size: 0x8, addend: 0x0, symName: __ZN5Eigen8internal17resize_if_allowedINS_3MapINS_6MatrixIdLin1ELi1ELi0ELin1ELi1EEELi0ENS_6StrideILi0ELi0EEEEENS_9TransposeIKNS_5BlockIKNS3_IdLin1ELin1ELi0ELin1ELin1EEELi1ELin1ELb0EEEEEddEEvRT_RKT0_RKNS0_9assign_opIT1_T2_EE, symObjAddr: 0xE564, symBinAddr: 0x100010A88, symSize: 0xF8 }
  - { offsetInCU: 0xA757, offset: 0xA757, size: 0x8, addend: 0x0, symName: __ZN5Eigen8internal6preduxI19__simd128_float64_tEENS0_15unpacket_traitsIT_E4typeERKS4_, symObjAddr: 0xECF8, symBinAddr: 0x10001121C, symSize: 0x50 }
  - { offsetInCU: 0xA78E, offset: 0xA78E, size: 0x8, addend: 0x0, symName: __ZN5Eigen8internal27computeProductBlockingSizesIddLi1ElEEvRT2_S3_S3_S2_, symObjAddr: 0xF3E4, symBinAddr: 0x100011908, symSize: 0x58 }
  - { offsetInCU: 0xA80A, offset: 0xA80A, size: 0x8, addend: 0x0, symName: __ZN5Eigen8internal24useSpecificBlockingSizesIlEEbRT_S3_S3_, symObjAddr: 0xF43C, symBinAddr: 0x100011960, symSize: 0x44 }
  - { offsetInCU: 0xA85F, offset: 0xA85F, size: 0x8, addend: 0x0, symName: __ZN5Eigen8internal15queryCacheSizesERiS1_S1_, symObjAddr: 0xFE94, symBinAddr: 0x1000123B8, symSize: 0x34 }
  - { offsetInCU: 0xA8A7, offset: 0xA8A7, size: 0x8, addend: 0x0, symName: __ZN5Eigen8internal27manage_caching_sizes_helperEll, symObjAddr: 0xFEC8, symBinAddr: 0x1000123EC, symSize: 0x44 }
  - { offsetInCU: 0xA8E1, offset: 0xA8E1, size: 0x8, addend: 0x0, symName: __ZN5Eigen8internal22ignore_unused_variableIbEEvRKT_, symObjAddr: 0xFF8C, symBinAddr: 0x1000124B0, symSize: 0x10 }
  - { offsetInCU: 0xA910, offset: 0xA910, size: 0x8, addend: 0x0, symName: __ZN5Eigen8internal22ignore_unused_variableIPNS0_16GemmParallelInfoIlEEEEvRKT_, symObjAddr: 0x10DC0, symBinAddr: 0x1000132E4, symSize: 0x10 }
  - { offsetInCU: 0xA981, offset: 0xA981, size: 0x8, addend: 0x0, symName: __ZN5Eigen8internal8prefetchIdEEvPKT_, symObjAddr: 0x18434, symBinAddr: 0x10001A958, symSize: 0x18 }
  - { offsetInCU: 0xAD6A, offset: 0xAD6A, size: 0x8, addend: 0x0, symName: __ZN5Eigen8internal5ploadI19__simd128_float64_tEET_PKNS0_15unpacket_traitsIS3_E4typeE, symObjAddr: 0x19A74, symBinAddr: 0x10001BF98, symSize: 0x28 }
  - { offsetInCU: 0xADBE, offset: 0xADBE, size: 0x8, addend: 0x0, symName: __ZN5Eigen8internal4paddI19__simd128_float64_tEET_RKS3_S5_, symObjAddr: 0x19F48, symBinAddr: 0x10001C46C, symSize: 0x40 }
  - { offsetInCU: 0xAE04, offset: 0xAE04, size: 0x8, addend: 0x0, symName: __ZN5Eigen8internal5pmaddIdEET_RKS2_S4_S4_, symObjAddr: 0x19FBC, symBinAddr: 0x10001C4E0, symSize: 0x40 }
  - { offsetInCU: 0xAE59, offset: 0xAE59, size: 0x8, addend: 0x0, symName: __ZN5Eigen8internal4paddIdEET_RKS2_S4_, symObjAddr: 0x19FFC, symBinAddr: 0x10001C520, symSize: 0x28 }
  - { offsetInCU: 0xAE9C, offset: 0xAE9C, size: 0x8, addend: 0x0, symName: __ZN5Eigen8internal14aligned_deleteIdEEvPT_m, symObjAddr: 0x1A0C8, symBinAddr: 0x10001C5EC, symSize: 0x34 }
  - { offsetInCU: 0xAEDE, offset: 0xAEDE, size: 0x8, addend: 0x0, symName: __ZN5Eigen8internal26destruct_elements_of_arrayIdEEvPT_m, symObjAddr: 0x1A0FC, symBinAddr: 0x10001C620, symSize: 0x54 }
  - { offsetInCU: 0xB286, offset: 0xB286, size: 0x8, addend: 0x0, symName: __ZN5EigenL6lastp1E, symObjAddr: 0x1B66BB, symBinAddr: 0x100024021, symSize: 0x0 }
  - { offsetInCU: 0xB29F, offset: 0xB29F, size: 0x8, addend: 0x0, symName: __ZN5EigenL3allE, symObjAddr: 0x1B66BD, symBinAddr: 0x100024023, symSize: 0x0 }
  - { offsetInCU: 0x3254F, offset: 0x3254F, size: 0x8, addend: 0x0, symName: __ZN5Eigen3fixILi1EEENS_8internal8FixedIntIXT_EEEv, symObjAddr: 0x74, symBinAddr: 0x100002598, symSize: 0x20 }
  - { offsetInCU: 0x325AF, offset: 0x325AF, size: 0x8, addend: 0x0, symName: __ZN5Eigen6numext4realIdEENS_8internal11real_retvalINS2_36global_math_functions_filtering_baseIT_vE4typeEE4typeERKS5_, symObjAddr: 0x9C68, symBinAddr: 0x10000C18C, symSize: 0x24 }
  - { offsetInCU: 0x32619, offset: 0x32619, size: 0x8, addend: 0x0, symName: __ZN5Eigen6numext8div_ceilIlEET_RKS2_S4_, symObjAddr: 0xFDA8, symBinAddr: 0x1000122CC, symSize: 0x38 }
  - { offsetInCU: 0x359AC, offset: 0x359AC, size: 0x8, addend: 0x0, symName: __ZN5Eigen3fixILi0EEENS_8internal8FixedIntIXT_EEEv, symObjAddr: 0x18554, symBinAddr: 0x10001AA78, symSize: 0x20 }
  - { offsetInCU: 0x359D4, offset: 0x359D4, size: 0x8, addend: 0x0, symName: __ZN5Eigen3fixILi2EEENS_8internal8FixedIntIXT_EEEv, symObjAddr: 0x1867C, symBinAddr: 0x10001ABA0, symSize: 0x20 }
  - { offsetInCU: 0x359FC, offset: 0x359FC, size: 0x8, addend: 0x0, symName: __ZN5Eigen3fixILi3EEENS_8internal8FixedIntIXT_EEEv, symObjAddr: 0x18714, symBinAddr: 0x10001AC38, symSize: 0x20 }
  - { offsetInCU: 0x39ABD, offset: 0x39ABD, size: 0x8, addend: 0x0, symName: __ZNSt3__16chronomiB8ue170006IxNS_5ratioILl1ELl1000000000EEExS3_EENS_11common_typeIJNS0_8durationIT_T0_EENS5_IT1_T2_EEEE4typeERKS8_RKSB_, symObjAddr: 0x1A150, symBinAddr: 0x10001C674, symSize: 0x70 }
  - { offsetInCU: 0x39B2A, offset: 0x39B2A, size: 0x8, addend: 0x0, symName: __ZNSt3__16chronomiB8ue170006INS0_12steady_clockENS0_8durationIxNS_5ratioILl1ELl1000000000EEEEES6_EENS_11common_typeIJT0_T1_EE4typeERKNS0_10time_pointIT_S8_EERKNSC_ISD_S9_EE, symObjAddr: 0x38C, symBinAddr: 0x1000028B0, symSize: 0x58 }
  - { offsetInCU: 0x39B82, offset: 0x39B82, size: 0x8, addend: 0x0, symName: __ZNSt3__16chrono13duration_castB8ue170006INS0_8durationIdNS_5ratioILl1ELl1EEEEExNS3_ILl1ELl1000000000EEEEENS_9enable_ifIXsr13__is_durationIT_EE5valueES8_E4typeERKNS2_IT0_T1_EE, symObjAddr: 0x5C4, symBinAddr: 0x100002AE8, symSize: 0x30 }
  - { offsetInCU: 0x39E10, offset: 0x39E10, size: 0x8, addend: 0x0, symName: __ZNSt3__124__put_character_sequenceB8ue170006IcNS_11char_traitsIcEEEERNS_13basic_ostreamIT_T0_EES7_PKS4_m, symObjAddr: 0x1A244, symBinAddr: 0x10001C768, symSize: 0x1EC }
  - { offsetInCU: 0x3B780, offset: 0x3B780, size: 0x8, addend: 0x0, symName: __ZNSt3__1lsB8ue170006INS_11char_traitsIcEEEERNS_13basic_ostreamIcT_EES6_PKc, symObjAddr: 0x420, symBinAddr: 0x100002944, symSize: 0x48 }
  - { offsetInCU: 0x3B7C6, offset: 0x3B7C6, size: 0x8, addend: 0x0, symName: __ZNSt3__14endlB8ue170006IcNS_11char_traitsIcEEEERNS_13basic_ostreamIT_T0_EES7_, symObjAddr: 0x4AC, symBinAddr: 0x1000029D0, symSize: 0x58 }
  - { offsetInCU: 0x3B806, offset: 0x3B806, size: 0x8, addend: 0x0, symName: __ZNSt3__13minB8ue170006IlEERKT_S3_S3_, symObjAddr: 0x58C4, symBinAddr: 0x100007DE8, symSize: 0x2C }
  - { offsetInCU: 0x3B849, offset: 0x3B849, size: 0x8, addend: 0x0, symName: __ZNSt3__13minB8ue170006IlNS_6__lessIvvEEEERKT_S5_S5_T0_, symObjAddr: 0x58F0, symBinAddr: 0x100007E14, symSize: 0x54 }
  - { offsetInCU: 0x3B8E8, offset: 0x3B8E8, size: 0x8, addend: 0x0, symName: __ZNSt3__16fill_nB8ue170006IPdldEET_S2_T0_RKT1_, symObjAddr: 0x6200, symBinAddr: 0x100008724, symSize: 0x44 }
  - { offsetInCU: 0x3B94B, offset: 0x3B94B, size: 0x8, addend: 0x0, symName: __ZNSt3__18__fill_nB8ue170006IPdldEET_S2_T0_RKT1_, symObjAddr: 0x62C0, symBinAddr: 0x1000087E4, symSize: 0x64 }
  - { offsetInCU: 0x3B9AE, offset: 0x3B9AE, size: 0x8, addend: 0x0, symName: __ZNSt3__121__convert_to_integralB8ue170006El, symObjAddr: 0x6324, symBinAddr: 0x100008848, symSize: 0x14 }
  - { offsetInCU: 0x3B9DA, offset: 0x3B9DA, size: 0x8, addend: 0x0, symName: __ZNSt3__13maxB8ue170006IlEERKT_S3_S3_, symObjAddr: 0xFF0C, symBinAddr: 0x100012430, symSize: 0x2C }
  - { offsetInCU: 0x3BA1D, offset: 0x3BA1D, size: 0x8, addend: 0x0, symName: __ZNSt3__13maxB8ue170006IlNS_6__lessIvvEEEERKT_S5_S5_T0_, symObjAddr: 0xFF38, symBinAddr: 0x10001245C, symSize: 0x54 }
  - { offsetInCU: 0x3BA77, offset: 0x3BA77, size: 0x8, addend: 0x0, symName: __ZNSt3__116__pad_and_outputB8ue170006IcNS_11char_traitsIcEEEENS_19ostreambuf_iteratorIT_T0_EES6_PKS4_S8_S8_RNS_8ios_baseES4_, symObjAddr: 0x1A480, symBinAddr: 0x10001C9A4, symSize: 0x240 }
  - { offsetInCU: 0x3BB46, offset: 0x3BB46, size: 0x8, addend: 0x0, symName: __ZNSt3__112__to_addressB8ue170006IKcEEPT_S3_, symObjAddr: 0x1A9E8, symBinAddr: 0x10001CF0C, symSize: 0x14 }
  - { offsetInCU: 0x3BBAE, offset: 0x3BBAE, size: 0x8, addend: 0x0, symName: __ZNSt3__19use_facetB8ue170006INS_5ctypeIcEEEERKT_RKNS_6localeE, symObjAddr: 0x1AC68, symBinAddr: 0x10001D18C, symSize: 0x2C }
  - { offsetInCU: 0x3C07B, offset: 0x3C07B, size: 0x8, addend: 0x0, symName: __ZNSt3__118__constexpr_strlenB8ue170006EPKc, symObjAddr: 0x1AD00, symBinAddr: 0x10001D224, symSize: 0x24 }
  - { offsetInCU: 0x3E849, offset: 0x3E849, size: 0x8, addend: 0x0, symName: __ZN5Eigen8internal21dense_assignment_loopINS0_41restricted_packet_dense_assignment_kernelINS0_9evaluatorINS_6MatrixIdLin1ELin1ELi0ELin1ELin1EEEEENS3_INS_7ProductIS5_S5_Li1EEEEENS0_9assign_opIddEEEELi4ELi0EE3runERSC_, symObjAddr: 0x2BFC, symBinAddr: 0x100005120, symSize: 0x1D8 }
  - { offsetInCU: 0x3EA12, offset: 0x3EA12, size: 0x8, addend: 0x0, symName: __ZN5Eigen8internal29general_matrix_vector_productIldNS0_22const_blas_data_mapperIdlLi0EEELi0ELb0EdNS2_IdlLi1EEELb0ELi0EE3runEllRKS3_RKS4_Pdld, symObjAddr: 0x8668, symBinAddr: 0x10000AB8C, symSize: 0x15D4 }
  - { offsetInCU: 0x3F912, offset: 0x3F912, size: 0x8, addend: 0x0, symName: __ZN5Eigen8internal29general_matrix_vector_productIldNS0_22const_blas_data_mapperIdlLi1EEELi1ELb0EdNS2_IdlLi0EEELb0ELi0EE3runEllRKS3_RKS4_Pdld, symObjAddr: 0xC454, symBinAddr: 0x10000E978, symSize: 0x17A4 }
  - { offsetInCU: 0x40BCF, offset: 0x40BCF, size: 0x8, addend: 0x0, symName: __ZN5Eigen8internal13gemm_pack_lhsIdlNS0_22const_blas_data_mapperIdlLi0EEELi6ELi2E19__simd128_float64_tLi0ELb0ELb0EEclEPdRKS3_llll, symObjAddr: 0x10E00, symBinAddr: 0x100013324, symSize: 0x73C }
  - { offsetInCU: 0x41174, offset: 0x41174, size: 0x8, addend: 0x0, symName: __ZN5Eigen8internal11gebp_kernelIddlNS0_16blas_data_mapperIdlLi0ELi0ELi1EEELi6ELi4ELb0ELb0EEclERKS3_PKdS8_llldllll, symObjAddr: 0x11C4C, symBinAddr: 0x100014170, symSize: 0x67D0 }
  - { offsetInCU: 0x43A80, offset: 0x43A80, size: 0x8, addend: 0x0, symName: __ZNKSt3__16chrono15__duration_castINS0_8durationIxNS_5ratioILl1ELl1000000000EEEEENS2_IdNS3_ILl1ELl1EEEEES4_Lb1ELb0EEclB8ue170006ERKS5_, symObjAddr: 0x5F4, symBinAddr: 0x100002B18, symSize: 0x50 }
  - { offsetInCU: 0x442DE, offset: 0x442DE, size: 0x8, addend: 0x0, symName: __ZN5Eigen8internal19gemv_dense_selectorILi2ELi1ELb1EE3runINS_9TransposeIKNS_6MatrixIdLin1ELin1ELi0ELin1ELin1EEEEENS4_IKNS_5BlockIS7_Li1ELin1ELb0EEEEENS4_INS9_IS6_Li1ELin1ELb0EEEEEEEvRKT_RKT0_RT1_RKNSL_6ScalarE, symObjAddr: 0xBCE0, symBinAddr: 0x10000E204, symSize: 0x4CC }
  - { offsetInCU: 0x469E1, offset: 0x469E1, size: 0x8, addend: 0x0, symName: __ZN5Eigen8symbolic10SymbolExprINS_8internal17symbolic_last_tagEEC1Ev, symObjAddr: 0x0, symBinAddr: 0x100002524, symSize: 0x2C }
  - { offsetInCU: 0x46A0B, offset: 0x46A0B, size: 0x8, addend: 0x0, symName: __ZNK5Eigen8symbolic8BaseExprINS0_10SymbolExprINS_8internal17symbolic_last_tagEEEEplILi1EEENS0_7AddExprIS5_NS0_9ValueExprINS3_8FixedIntIXT_EEEEEEESB_, symObjAddr: 0x2C, symBinAddr: 0x100002550, symSize: 0x48 }
  - { offsetInCU: 0x46A46, offset: 0x46A46, size: 0x8, addend: 0x0, symName: __ZN5Eigen8internal5all_tC1Ev, symObjAddr: 0x94, symBinAddr: 0x1000025B8, symSize: 0x2C }
  - { offsetInCU: 0x46A6F, offset: 0x46A6F, size: 0x8, addend: 0x0, symName: __Z24testMatrixMultiplicationi, symObjAddr: 0xC0, symBinAddr: 0x1000025E4, symSize: 0x1C0 }
  - { offsetInCU: 0x46AF1, offset: 0x46AF1, size: 0x8, addend: 0x0, symName: __ZN5Eigen9DenseBaseINS_6MatrixIdLin1ELin1ELi0ELin1ELin1EEEE6RandomEll, symObjAddr: 0x280, symBinAddr: 0x1000027A4, symSize: 0x58 }
  - { offsetInCU: 0x46B2B, offset: 0x46B2B, size: 0x8, addend: 0x0, symName: __ZN5Eigen6MatrixIdLin1ELin1ELi0ELin1ELin1EEC1INS_14CwiseNullaryOpINS_8internal16scalar_random_opIdEES1_EEEERKNS_9EigenBaseIT_EE, symObjAddr: 0x2D8, symBinAddr: 0x1000027FC, symSize: 0x34 }
  - { offsetInCU: 0x46B6D, offset: 0x46B6D, size: 0x8, addend: 0x0, symName: __ZNK5Eigen10MatrixBaseINS_6MatrixIdLin1ELin1ELi0ELin1ELin1EEEEmlIS2_EEKNS_7ProductIS2_T_Li0EEERKNS0_IS6_EE, symObjAddr: 0x30C, symBinAddr: 0x100002830, symSize: 0x4C }
  - { offsetInCU: 0x46BB2, offset: 0x46BB2, size: 0x8, addend: 0x0, symName: __ZN5Eigen6MatrixIdLin1ELin1ELi0ELin1ELin1EEC1INS_7ProductIS1_S1_Li0EEEEERKNS_9EigenBaseIT_EE, symObjAddr: 0x358, symBinAddr: 0x10000287C, symSize: 0x34 }
  - { offsetInCU: 0x46BF9, offset: 0x46BF9, size: 0x8, addend: 0x0, symName: __ZNSt3__16chrono8durationIdNS_5ratioILl1ELl1EEEEC1B8ue170006IxNS2_ILl1ELl1000000000EEEEERKNS1_IT_T0_EEPNS_9enable_ifIXaasr13__no_overflowIS8_S3_EE5valueooL_ZNS_17integral_constantIbLb1EE5valueEEaaeqsr13__no_overflowIS8_S3_E4typeE3denLi1Entsr23treat_as_floating_pointIS7_EE5valueEvE4typeE, symObjAddr: 0x3E4, symBinAddr: 0x100002908, symSize: 0x3C }
  - { offsetInCU: 0x46C4F, offset: 0x46C4F, size: 0x8, addend: 0x0, symName: __ZNKSt3__16chrono8durationIdNS_5ratioILl1ELl1EEEE5countB8ue170006Ev, symObjAddr: 0x468, symBinAddr: 0x10000298C, symSize: 0x18 }
  - { offsetInCU: 0x46C75, offset: 0x46C75, size: 0x8, addend: 0x0, symName: __ZNSt3__113basic_ostreamIcNS_11char_traitsIcEEElsB8ue170006EPFRS3_S4_E, symObjAddr: 0x480, symBinAddr: 0x1000029A4, symSize: 0x2C }
  - { offsetInCU: 0x46CA9, offset: 0x46CA9, size: 0x8, addend: 0x0, symName: __ZN5Eigen6MatrixIdLin1ELin1ELi0ELin1ELin1EED1Ev, symObjAddr: 0x504, symBinAddr: 0x100002A28, symSize: 0x2C }
  - { offsetInCU: 0x46CD5, offset: 0x46CD5, size: 0x8, addend: 0x0, symName: _main, symObjAddr: 0x530, symBinAddr: 0x100002A54, symSize: 0x38 }
  - { offsetInCU: 0x46CEF, offset: 0x46CEF, size: 0x8, addend: 0x0, symName: __ZN5Eigen8internal5all_tC2Ev, symObjAddr: 0x568, symBinAddr: 0x100002A8C, symSize: 0x14 }
  - { offsetInCU: 0x46D19, offset: 0x46D19, size: 0x8, addend: 0x0, symName: __ZNSt3__16chrono8durationIdNS_5ratioILl1ELl1EEEEC2B8ue170006IxNS2_ILl1ELl1000000000EEEEERKNS1_IT_T0_EEPNS_9enable_ifIXaasr13__no_overflowIS8_S3_EE5valueooL_ZNS_17integral_constantIbLb1EE5valueEEaaeqsr13__no_overflowIS8_S3_E4typeE3denLi1Entsr23treat_as_floating_pointIS7_EE5valueEvE4typeE, symObjAddr: 0x57C, symBinAddr: 0x100002AA0, symSize: 0x48 }
  - { offsetInCU: 0x46D6F, offset: 0x46D6F, size: 0x8, addend: 0x0, symName: __ZNKSt3__16chrono8durationIxNS_5ratioILl1ELl1000000000EEEE5countB8ue170006Ev, symObjAddr: 0x644, symBinAddr: 0x100002B68, symSize: 0x18 }
  - { offsetInCU: 0x46D95, offset: 0x46D95, size: 0x8, addend: 0x0, symName: __ZNSt3__16chrono8durationIdNS_5ratioILl1ELl1EEEEC1B8ue170006IdEERKT_PNS_9enable_ifIXaasr14is_convertibleIS8_dEE5valueooL_ZNS_17integral_constantIbLb1EE5valueEEntsr23treat_as_floating_pointIS6_EE5valueEvE4typeE, symObjAddr: 0x65C, symBinAddr: 0x100002B80, symSize: 0x3C }
  - { offsetInCU: 0x46DE1, offset: 0x46DE1, size: 0x8, addend: 0x0, symName: __ZNSt3__16chrono8durationIdNS_5ratioILl1ELl1EEEEC2B8ue170006IdEERKT_PNS_9enable_ifIXaasr14is_convertibleIS8_dEE5valueooL_ZNS_17integral_constantIbLb1EE5valueEEntsr23treat_as_floating_pointIS6_EE5valueEvE4typeE, symObjAddr: 0x698, symBinAddr: 0x100002BBC, symSize: 0x28 }
  - { offsetInCU: 0x46E2D, offset: 0x46E2D, size: 0x8, addend: 0x0, symName: __ZN5Eigen6MatrixIdLin1ELin1ELi0ELin1ELin1EED2Ev, symObjAddr: 0x6C0, symBinAddr: 0x100002BE4, symSize: 0x2C }
  - { offsetInCU: 0x46E59, offset: 0x46E59, size: 0x8, addend: 0x0, symName: __ZN5Eigen15PlainObjectBaseINS_6MatrixIdLin1ELin1ELi0ELin1ELin1EEEED2Ev, symObjAddr: 0x6EC, symBinAddr: 0x100002C10, symSize: 0x2C }
  - { offsetInCU: 0x46E85, offset: 0x46E85, size: 0x8, addend: 0x0, symName: __ZN5Eigen12DenseStorageIdLin1ELin1ELin1ELi0EED1Ev, symObjAddr: 0x718, symBinAddr: 0x100002C3C, symSize: 0x2C }
  - { offsetInCU: 0x46EAF, offset: 0x46EAF, size: 0x8, addend: 0x0, symName: __ZN5Eigen12DenseStorageIdLin1ELin1ELin1ELi0EED2Ev, symObjAddr: 0x744, symBinAddr: 0x100002C68, symSize: 0x44 }
  - { offsetInCU: 0x46ED9, offset: 0x46ED9, size: 0x8, addend: 0x0, symName: __ZN5Eigen8symbolic10SymbolExprINS_8internal17symbolic_last_tagEEC2Ev, symObjAddr: 0x804, symBinAddr: 0x100002D28, symSize: 0x14 }
  - { offsetInCU: 0x46F03, offset: 0x46F03, size: 0x8, addend: 0x0, symName: __ZN5Eigen8internal8FixedIntILi1EEC1Ev, symObjAddr: 0x818, symBinAddr: 0x100002D3C, symSize: 0x2C }
  - { offsetInCU: 0x46F2D, offset: 0x46F2D, size: 0x8, addend: 0x0, symName: __ZN5Eigen8internal8FixedIntILi1EEC2Ev, symObjAddr: 0x844, symBinAddr: 0x100002D68, symSize: 0x14 }
  - { offsetInCU: 0x46F57, offset: 0x46F57, size: 0x8, addend: 0x0, symName: __ZNK5Eigen8symbolic8BaseExprINS0_10SymbolExprINS_8internal17symbolic_last_tagEEEE7derivedEv, symObjAddr: 0x858, symBinAddr: 0x100002D7C, symSize: 0x14 }
  - { offsetInCU: 0x46F7D, offset: 0x46F7D, size: 0x8, addend: 0x0, symName: __ZN5Eigen8symbolic9ValueExprINS_8internal8FixedIntILi1EEEEC1Ev, symObjAddr: 0x86C, symBinAddr: 0x100002D90, symSize: 0x2C }
  - { offsetInCU: 0x46FA7, offset: 0x46FA7, size: 0x8, addend: 0x0, symName: __ZN5Eigen8symbolic7AddExprINS0_10SymbolExprINS_8internal17symbolic_last_tagEEENS0_9ValueExprINS3_8FixedIntILi1EEEEEEC1ERKS5_RKS9_, symObjAddr: 0x898, symBinAddr: 0x100002DBC, symSize: 0x3C }
  - { offsetInCU: 0x46FED, offset: 0x46FED, size: 0x8, addend: 0x0, symName: __ZN5Eigen8symbolic9ValueExprINS_8internal8FixedIntILi1EEEEC2Ev, symObjAddr: 0x8D4, symBinAddr: 0x100002DF8, symSize: 0x14 }
  - { offsetInCU: 0x47017, offset: 0x47017, size: 0x8, addend: 0x0, symName: __ZN5Eigen8symbolic7AddExprINS0_10SymbolExprINS_8internal17symbolic_last_tagEEENS0_9ValueExprINS3_8FixedIntILi1EEEEEEC2ERKS5_RKS9_, symObjAddr: 0x8E8, symBinAddr: 0x100002E0C, symSize: 0x1C }
  - { offsetInCU: 0x4705D, offset: 0x4705D, size: 0x8, addend: 0x0, symName: __ZN5Eigen9DenseBaseINS_6MatrixIdLin1ELin1ELi0ELin1ELin1EEEE11NullaryExprINS_8internal16scalar_random_opIdEEEEKNS_14CwiseNullaryOpIT_S2_EEllRKS9_, symObjAddr: 0x904, symBinAddr: 0x100002E28, symSize: 0x48 }
  - { offsetInCU: 0x470AA, offset: 0x470AA, size: 0x8, addend: 0x0, symName: __ZN5Eigen8internal16scalar_random_opIdEC1Ev, symObjAddr: 0x94C, symBinAddr: 0x100002E70, symSize: 0x2C }
  - { offsetInCU: 0x470D4, offset: 0x470D4, size: 0x8, addend: 0x0, symName: __ZN5Eigen14CwiseNullaryOpINS_8internal16scalar_random_opIdEENS_6MatrixIdLin1ELin1ELi0ELin1ELin1EEEEC1EllRKS3_, symObjAddr: 0x978, symBinAddr: 0x100002E9C, symSize: 0x44 }
  - { offsetInCU: 0x47128, offset: 0x47128, size: 0x8, addend: 0x0, symName: __ZN5Eigen14CwiseNullaryOpINS_8internal16scalar_random_opIdEENS_6MatrixIdLin1ELin1ELi0ELin1ELin1EEEEC2EllRKS3_, symObjAddr: 0x9BC, symBinAddr: 0x100002EE0, symSize: 0xDC }
  - { offsetInCU: 0x4717C, offset: 0x4717C, size: 0x8, addend: 0x0, symName: __ZN5Eigen10MatrixBaseINS_14CwiseNullaryOpINS_8internal16scalar_random_opIdEENS_6MatrixIdLin1ELin1ELi0ELin1ELin1EEEEEEC2Ev, symObjAddr: 0xA98, symBinAddr: 0x100002FBC, symSize: 0x2C }
  - { offsetInCU: 0x471A6, offset: 0x471A6, size: 0x8, addend: 0x0, symName: __ZN5Eigen8internal19variable_if_dynamicIlLin1EEC1El, symObjAddr: 0xAC4, symBinAddr: 0x100002FE8, symSize: 0x34 }
  - { offsetInCU: 0x471DE, offset: 0x471DE, size: 0x8, addend: 0x0, symName: __ZN5Eigen8internal16scalar_random_opIdEC1ERKS2_, symObjAddr: 0xAF8, symBinAddr: 0x10000301C, symSize: 0x34 }
  - { offsetInCU: 0x47213, offset: 0x47213, size: 0x8, addend: 0x0, symName: __ZN5Eigen9DenseBaseINS_14CwiseNullaryOpINS_8internal16scalar_random_opIdEENS_6MatrixIdLin1ELin1ELi0ELin1ELin1EEEEEEC2Ev, symObjAddr: 0xB2C, symBinAddr: 0x100003050, symSize: 0x14 }
  - { offsetInCU: 0x4723D, offset: 0x4723D, size: 0x8, addend: 0x0, symName: __ZN5Eigen8internal19variable_if_dynamicIlLin1EEC2El, symObjAddr: 0xB40, symBinAddr: 0x100003064, symSize: 0x20 }
  - { offsetInCU: 0x47275, offset: 0x47275, size: 0x8, addend: 0x0, symName: __ZN5Eigen8internal16scalar_random_opIdEC2ERKS2_, symObjAddr: 0xB60, symBinAddr: 0x100003084, symSize: 0x18 }
  - { offsetInCU: 0x472AA, offset: 0x472AA, size: 0x8, addend: 0x0, symName: __ZN5Eigen8internal16scalar_random_opIdEC2Ev, symObjAddr: 0xB78, symBinAddr: 0x10000309C, symSize: 0x14 }
  - { offsetInCU: 0x472D4, offset: 0x472D4, size: 0x8, addend: 0x0, symName: __ZN5Eigen6MatrixIdLin1ELin1ELi0ELin1ELin1EEC2INS_14CwiseNullaryOpINS_8internal16scalar_random_opIdEES1_EEEERKNS_9EigenBaseIT_EE, symObjAddr: 0xB8C, symBinAddr: 0x1000030B0, symSize: 0x40 }
  - { offsetInCU: 0x47316, offset: 0x47316, size: 0x8, addend: 0x0, symName: __ZNK5Eigen9EigenBaseINS_14CwiseNullaryOpINS_8internal16scalar_random_opIdEENS_6MatrixIdLin1ELin1ELi0ELin1ELin1EEEEEE7derivedEv, symObjAddr: 0xBCC, symBinAddr: 0x1000030F0, symSize: 0x14 }
  - { offsetInCU: 0x4733C, offset: 0x4733C, size: 0x8, addend: 0x0, symName: __ZN5Eigen15PlainObjectBaseINS_6MatrixIdLin1ELin1ELi0ELin1ELin1EEEEC2INS_14CwiseNullaryOpINS_8internal16scalar_random_opIdEES2_EEEERKNS_9DenseBaseIT_EE, symObjAddr: 0xBE0, symBinAddr: 0x100003104, symSize: 0x84 }
  - { offsetInCU: 0x4737E, offset: 0x4737E, size: 0x8, addend: 0x0, symName: __ZN5Eigen10MatrixBaseINS_6MatrixIdLin1ELin1ELi0ELin1ELin1EEEEC2Ev, symObjAddr: 0xC64, symBinAddr: 0x100003188, symSize: 0x2C }
  - { offsetInCU: 0x473A8, offset: 0x473A8, size: 0x8, addend: 0x0, symName: __ZN5Eigen12DenseStorageIdLin1ELin1ELin1ELi0EEC1Ev, symObjAddr: 0xC90, symBinAddr: 0x1000031B4, symSize: 0x2C }
  - { offsetInCU: 0x473D2, offset: 0x473D2, size: 0x8, addend: 0x0, symName: __ZN5Eigen15PlainObjectBaseINS_6MatrixIdLin1ELin1ELi0ELin1ELin1EEEE22_check_template_paramsEv, symObjAddr: 0xCBC, symBinAddr: 0x1000031E0, symSize: 0x4 }
  - { offsetInCU: 0x47427, offset: 0x47427, size: 0x8, addend: 0x0, symName: __ZN5Eigen15PlainObjectBaseINS_6MatrixIdLin1ELin1ELi0ELin1ELin1EEEE10resizeLikeINS_14CwiseNullaryOpINS_8internal16scalar_random_opIdEES2_EEEEvRKNS_9EigenBaseIT_EE, symObjAddr: 0xCC0, symBinAddr: 0x1000031E4, symSize: 0x11C }
  - { offsetInCU: 0x474BB, offset: 0x474BB, size: 0x8, addend: 0x0, symName: __ZN5Eigen15PlainObjectBaseINS_6MatrixIdLin1ELin1ELi0ELin1ELin1EEEE12_set_noaliasINS_14CwiseNullaryOpINS_8internal16scalar_random_opIdEES2_EEEERS2_RKNS_9DenseBaseIT_EE, symObjAddr: 0xDDC, symBinAddr: 0x100003300, symSize: 0x60 }
  - { offsetInCU: 0x474F9, offset: 0x474F9, size: 0x8, addend: 0x0, symName: __ZN5Eigen9DenseBaseINS_6MatrixIdLin1ELin1ELi0ELin1ELin1EEEEC2Ev, symObjAddr: 0xE3C, symBinAddr: 0x100003360, symSize: 0x14 }
  - { offsetInCU: 0x47523, offset: 0x47523, size: 0x8, addend: 0x0, symName: __ZN5Eigen12DenseStorageIdLin1ELin1ELin1ELi0EEC2Ev, symObjAddr: 0xE50, symBinAddr: 0x100003374, symSize: 0x20 }
  - { offsetInCU: 0x4754D, offset: 0x4754D, size: 0x8, addend: 0x0, symName: __ZNK5Eigen14CwiseNullaryOpINS_8internal16scalar_random_opIdEENS_6MatrixIdLin1ELin1ELi0ELin1ELin1EEEE4rowsEv, symObjAddr: 0xE70, symBinAddr: 0x100003394, symSize: 0x24 }
  - { offsetInCU: 0x47573, offset: 0x47573, size: 0x8, addend: 0x0, symName: __ZNK5Eigen14CwiseNullaryOpINS_8internal16scalar_random_opIdEENS_6MatrixIdLin1ELin1ELi0ELin1ELin1EEEE4colsEv, symObjAddr: 0xE94, symBinAddr: 0x1000033B8, symSize: 0x28 }
  - { offsetInCU: 0x47599, offset: 0x47599, size: 0x8, addend: 0x0, symName: __ZN5Eigen15PlainObjectBaseINS_6MatrixIdLin1ELin1ELi0ELin1ELin1EEEE6resizeEll, symObjAddr: 0xEBC, symBinAddr: 0x1000033E0, symSize: 0x14C }
  - { offsetInCU: 0x47615, offset: 0x47615, size: 0x8, addend: 0x0, symName: __ZNK5Eigen8internal19variable_if_dynamicIlLin1EE5valueEv, symObjAddr: 0x103C, symBinAddr: 0x100003560, symSize: 0x18 }
  - { offsetInCU: 0x4763B, offset: 0x4763B, size: 0x8, addend: 0x0, symName: __ZN5Eigen12DenseStorageIdLin1ELin1ELin1ELi0EE6resizeElll, symObjAddr: 0x1054, symBinAddr: 0x100003578, symSize: 0xB4 }
  - { offsetInCU: 0x4768E, offset: 0x4768E, size: 0x8, addend: 0x0, symName: __ZN5Eigen9EigenBaseINS_6MatrixIdLin1ELin1ELi0ELin1ELin1EEEE7derivedEv, symObjAddr: 0x12CC, symBinAddr: 0x1000037F0, symSize: 0x14 }
  - { offsetInCU: 0x476B4, offset: 0x476B4, size: 0x8, addend: 0x0, symName: __ZN5Eigen8internal9assign_opIddEC1Ev, symObjAddr: 0x12E0, symBinAddr: 0x100003804, symSize: 0x2C }
  - { offsetInCU: 0x476DE, offset: 0x476DE, size: 0x8, addend: 0x0, symName: __ZN5Eigen8internal10AssignmentINS_6MatrixIdLin1ELin1ELi0ELin1ELin1EEENS_14CwiseNullaryOpINS0_16scalar_random_opIdEES3_EENS0_9assign_opIddEENS0_11Dense2DenseEvE3runERS3_RKS7_RKS9_, symObjAddr: 0x130C, symBinAddr: 0x100003830, symSize: 0x40 }
  - { offsetInCU: 0x47720, offset: 0x47720, size: 0x8, addend: 0x0, symName: __ZNK5Eigen15PlainObjectBaseINS_6MatrixIdLin1ELin1ELi0ELin1ELin1EEEE4rowsEv, symObjAddr: 0x148C, symBinAddr: 0x1000039B0, symSize: 0x24 }
  - { offsetInCU: 0x47746, offset: 0x47746, size: 0x8, addend: 0x0, symName: __ZNK5Eigen15PlainObjectBaseINS_6MatrixIdLin1ELin1ELi0ELin1ELin1EEEE4colsEv, symObjAddr: 0x14B0, symBinAddr: 0x1000039D4, symSize: 0x24 }
  - { offsetInCU: 0x4776C, offset: 0x4776C, size: 0x8, addend: 0x0, symName: __ZN5Eigen8internal27checkTransposeAliasing_implINS_6MatrixIdLin1ELin1ELi0ELin1ELin1EEENS_14CwiseNullaryOpINS0_16scalar_random_opIdEES3_EELb0EE3runERKS3_RKS7_, symObjAddr: 0x14D4, symBinAddr: 0x1000039F8, symSize: 0x14 }
  - { offsetInCU: 0x47797, offset: 0x47797, size: 0x8, addend: 0x0, symName: __ZNK5Eigen12DenseStorageIdLin1ELin1ELin1ELi0EE4rowsEv, symObjAddr: 0x14E8, symBinAddr: 0x100003A0C, symSize: 0x18 }
  - { offsetInCU: 0x477BD, offset: 0x477BD, size: 0x8, addend: 0x0, symName: __ZNK5Eigen12DenseStorageIdLin1ELin1ELin1ELi0EE4colsEv, symObjAddr: 0x1500, symBinAddr: 0x100003A24, symSize: 0x18 }
  - { offsetInCU: 0x47806, offset: 0x47806, size: 0x8, addend: 0x0, symName: __ZN5Eigen8internal9evaluatorINS_14CwiseNullaryOpINS0_16scalar_random_opIdEENS_6MatrixIdLin1ELin1ELi0ELin1ELin1EEEEEEC1ERKS7_, symObjAddr: 0x1518, symBinAddr: 0x100003A3C, symSize: 0x34 }
  - { offsetInCU: 0x4783F, offset: 0x4783F, size: 0x8, addend: 0x0, symName: __ZN5Eigen8internal9evaluatorINS_6MatrixIdLin1ELin1ELi0ELin1ELin1EEEEC1ERKS3_, symObjAddr: 0x1644, symBinAddr: 0x100003B68, symSize: 0x34 }
  - { offsetInCU: 0x47878, offset: 0x47878, size: 0x8, addend: 0x0, symName: __ZNK5Eigen9EigenBaseINS_6MatrixIdLin1ELin1ELi0ELin1ELin1EEEE18const_cast_derivedEv, symObjAddr: 0x1678, symBinAddr: 0x100003B9C, symSize: 0x14 }
  - { offsetInCU: 0x478CB, offset: 0x478CB, size: 0x8, addend: 0x0, symName: __ZN5Eigen8internal31generic_dense_assignment_kernelINS0_9evaluatorINS_6MatrixIdLin1ELin1ELi0ELin1ELin1EEEEENS2_INS_14CwiseNullaryOpINS0_16scalar_random_opIdEES4_EEEENS0_9assign_opIddEELi0EEC1ERS5_RKSA_RKSC_RS4_, symObjAddr: 0x168C, symBinAddr: 0x100003BB0, symSize: 0x4C }
  - { offsetInCU: 0x47936, offset: 0x47936, size: 0x8, addend: 0x0, symName: __ZN5Eigen8internal21dense_assignment_loopINS0_31generic_dense_assignment_kernelINS0_9evaluatorINS_6MatrixIdLin1ELin1ELi0ELin1ELin1EEEEENS3_INS_14CwiseNullaryOpINS0_16scalar_random_opIdEES5_EEEENS0_9assign_opIddEELi0EEELi1ELi0EE3runERSE_, symObjAddr: 0x16D8, symBinAddr: 0x100003BFC, symSize: 0x68 }
  - { offsetInCU: 0x47986, offset: 0x47986, size: 0x8, addend: 0x0, symName: __ZN5Eigen8internal9evaluatorINS_6MatrixIdLin1ELin1ELi0ELin1ELin1EEEED1Ev, symObjAddr: 0x1740, symBinAddr: 0x100003C64, symSize: 0x2C }
  - { offsetInCU: 0x479B3, offset: 0x479B3, size: 0x8, addend: 0x0, symName: __ZN5Eigen8internal9evaluatorINS_14CwiseNullaryOpINS0_16scalar_random_opIdEENS_6MatrixIdLin1ELin1ELi0ELin1ELin1EEEEEED1Ev, symObjAddr: 0x176C, symBinAddr: 0x100003C90, symSize: 0x2C }
  - { offsetInCU: 0x479DF, offset: 0x479DF, size: 0x8, addend: 0x0, symName: __ZN5Eigen8internal9evaluatorINS_14CwiseNullaryOpINS0_16scalar_random_opIdEENS_6MatrixIdLin1ELin1ELi0ELin1ELin1EEEEEEC2ERKS7_, symObjAddr: 0x1798, symBinAddr: 0x100003CBC, symSize: 0x74 }
  - { offsetInCU: 0x47A18, offset: 0x47A18, size: 0x8, addend: 0x0, symName: __ZN5Eigen8internal14evaluator_baseINS_14CwiseNullaryOpINS0_16scalar_random_opIdEENS_6MatrixIdLin1ELin1ELi0ELin1ELin1EEEEEEC2Ev, symObjAddr: 0x180C, symBinAddr: 0x100003D30, symSize: 0x14 }
  - { offsetInCU: 0x47A42, offset: 0x47A42, size: 0x8, addend: 0x0, symName: __ZNK5Eigen14CwiseNullaryOpINS_8internal16scalar_random_opIdEENS_6MatrixIdLin1ELin1ELi0ELin1ELin1EEEE7functorEv, symObjAddr: 0x1820, symBinAddr: 0x100003D44, symSize: 0x18 }
  - { offsetInCU: 0x47A68, offset: 0x47A68, size: 0x8, addend: 0x0, symName: __ZN5Eigen8internal14evaluator_baseINS_14CwiseNullaryOpINS0_16scalar_random_opIdEENS_6MatrixIdLin1ELin1ELi0ELin1ELin1EEEEEED2Ev, symObjAddr: 0x1838, symBinAddr: 0x100003D5C, symSize: 0x14 }
  - { offsetInCU: 0x47A92, offset: 0x47A92, size: 0x8, addend: 0x0, symName: __ZN5Eigen8internal9evaluatorINS_6MatrixIdLin1ELin1ELi0ELin1ELin1EEEEC2ERKS3_, symObjAddr: 0x184C, symBinAddr: 0x100003D70, symSize: 0x34 }
  - { offsetInCU: 0x47ACB, offset: 0x47ACB, size: 0x8, addend: 0x0, symName: __ZN5Eigen8internal9evaluatorINS_15PlainObjectBaseINS_6MatrixIdLin1ELin1ELi0ELin1ELin1EEEEEEC2ERKS5_, symObjAddr: 0x1880, symBinAddr: 0x100003DA4, symSize: 0x80 }
  - { offsetInCU: 0x47B03, offset: 0x47B03, size: 0x8, addend: 0x0, symName: __ZN5Eigen8internal14evaluator_baseINS_6MatrixIdLin1ELin1ELi0ELin1ELin1EEEEC2Ev, symObjAddr: 0x1900, symBinAddr: 0x100003E24, symSize: 0x14 }
  - { offsetInCU: 0x47B2D, offset: 0x47B2D, size: 0x8, addend: 0x0, symName: __ZNK5Eigen15PlainObjectBaseINS_6MatrixIdLin1ELin1ELi0ELin1ELin1EEEE4dataEv, symObjAddr: 0x1914, symBinAddr: 0x100003E38, symSize: 0x24 }
  - { offsetInCU: 0x47B53, offset: 0x47B53, size: 0x8, addend: 0x0, symName: __ZNK5Eigen15DenseCoeffsBaseINS_6MatrixIdLin1ELin1ELi0ELin1ELin1EEELi3EE11outerStrideEv, symObjAddr: 0x1938, symBinAddr: 0x100003E5C, symSize: 0x38 }
  - { offsetInCU: 0x47B79, offset: 0x47B79, size: 0x8, addend: 0x0, symName: __ZN5Eigen8internal30plainobjectbase_evaluator_dataIdLin1EEC1EPKdl, symObjAddr: 0x1970, symBinAddr: 0x100003E94, symSize: 0x3C }
  - { offsetInCU: 0x47BBF, offset: 0x47BBF, size: 0x8, addend: 0x0, symName: __ZN5Eigen8internal14evaluator_baseINS_6MatrixIdLin1ELin1ELi0ELin1ELin1EEEED2Ev, symObjAddr: 0x19AC, symBinAddr: 0x100003ED0, symSize: 0x14 }
  - { offsetInCU: 0x47BE9, offset: 0x47BE9, size: 0x8, addend: 0x0, symName: __ZNK5Eigen12DenseStorageIdLin1ELin1ELin1ELi0EE4dataEv, symObjAddr: 0x19C0, symBinAddr: 0x100003EE4, symSize: 0x18 }
  - { offsetInCU: 0x47C0F, offset: 0x47C0F, size: 0x8, addend: 0x0, symName: __ZNK5Eigen9EigenBaseINS_6MatrixIdLin1ELin1ELi0ELin1ELin1EEEE7derivedEv, symObjAddr: 0x19D8, symBinAddr: 0x100003EFC, symSize: 0x14 }
  - { offsetInCU: 0x47C35, offset: 0x47C35, size: 0x8, addend: 0x0, symName: __ZNK5Eigen6MatrixIdLin1ELin1ELi0ELin1ELin1EE11outerStrideEv, symObjAddr: 0x19EC, symBinAddr: 0x100003F10, symSize: 0x34 }
  - { offsetInCU: 0x47C5B, offset: 0x47C5B, size: 0x8, addend: 0x0, symName: __ZNK5Eigen9DenseBaseINS_6MatrixIdLin1ELin1ELi0ELin1ELin1EEEE9innerSizeEv, symObjAddr: 0x1A20, symBinAddr: 0x100003F44, symSize: 0x24 }
  - { offsetInCU: 0x47C81, offset: 0x47C81, size: 0x8, addend: 0x0, symName: __ZNK5Eigen9EigenBaseINS_6MatrixIdLin1ELin1ELi0ELin1ELin1EEEE4rowsEv, symObjAddr: 0x1A44, symBinAddr: 0x100003F68, symSize: 0x28 }
  - { offsetInCU: 0x47CA7, offset: 0x47CA7, size: 0x8, addend: 0x0, symName: __ZN5Eigen8internal30plainobjectbase_evaluator_dataIdLin1EEC2EPKdl, symObjAddr: 0x1A6C, symBinAddr: 0x100003F90, symSize: 0x2C }
  - { offsetInCU: 0x47CED, offset: 0x47CED, size: 0x8, addend: 0x0, symName: __ZN5Eigen8internal31generic_dense_assignment_kernelINS0_9evaluatorINS_6MatrixIdLin1ELin1ELi0ELin1ELin1EEEEENS2_INS_14CwiseNullaryOpINS0_16scalar_random_opIdEES4_EEEENS0_9assign_opIddEELi0EEC2ERS5_RKSA_RKSC_RS4_, symObjAddr: 0x1A98, symBinAddr: 0x100003FBC, symSize: 0x44 }
  - { offsetInCU: 0x47D53, offset: 0x47D53, size: 0x8, addend: 0x0, symName: __ZNK5Eigen8internal31generic_dense_assignment_kernelINS0_9evaluatorINS_6MatrixIdLin1ELin1ELi0ELin1ELin1EEEEENS2_INS_14CwiseNullaryOpINS0_16scalar_random_opIdEES4_EEEENS0_9assign_opIddEELi0EE4sizeEv, symObjAddr: 0x1ADC, symBinAddr: 0x100004000, symSize: 0x28 }
  - { offsetInCU: 0x47D79, offset: 0x47D79, size: 0x8, addend: 0x0, symName: __ZN5Eigen8internal31generic_dense_assignment_kernelINS0_9evaluatorINS_6MatrixIdLin1ELin1ELi0ELin1ELin1EEEEENS2_INS_14CwiseNullaryOpINS0_16scalar_random_opIdEES4_EEEENS0_9assign_opIddEELi0EE11assignCoeffEl, symObjAddr: 0x1B04, symBinAddr: 0x100004028, symSize: 0x64 }
  - { offsetInCU: 0x47DAE, offset: 0x47DAE, size: 0x8, addend: 0x0, symName: __ZNK5Eigen9EigenBaseINS_6MatrixIdLin1ELin1ELi0ELin1ELin1EEEE4sizeEv, symObjAddr: 0x1B68, symBinAddr: 0x10000408C, symSize: 0x44 }
  - { offsetInCU: 0x47DD4, offset: 0x47DD4, size: 0x8, addend: 0x0, symName: __ZNK5Eigen9EigenBaseINS_6MatrixIdLin1ELin1ELi0ELin1ELin1EEEE4colsEv, symObjAddr: 0x1BAC, symBinAddr: 0x1000040D0, symSize: 0x28 }
  - { offsetInCU: 0x47DFA, offset: 0x47DFA, size: 0x8, addend: 0x0, symName: __ZNK5Eigen8internal9assign_opIddE11assignCoeffERdRKd, symObjAddr: 0x1BD4, symBinAddr: 0x1000040F8, symSize: 0x28 }
  - { offsetInCU: 0x47E3C, offset: 0x47E3C, size: 0x8, addend: 0x0, symName: __ZN5Eigen8internal9evaluatorINS_15PlainObjectBaseINS_6MatrixIdLin1ELin1ELi0ELin1ELin1EEEEEE8coeffRefEl, symObjAddr: 0x1BFC, symBinAddr: 0x100004120, symSize: 0x24 }
  - { offsetInCU: 0x47E7A, offset: 0x47E7A, size: 0x8, addend: 0x0, symName: __ZNK5Eigen8internal9evaluatorINS_14CwiseNullaryOpINS0_16scalar_random_opIdEENS_6MatrixIdLin1ELin1ELi0ELin1ELin1EEEEEE5coeffIlEEdT_, symObjAddr: 0x1C20, symBinAddr: 0x100004144, symSize: 0x38 }
  - { offsetInCU: 0x47EBD, offset: 0x47EBD, size: 0x8, addend: 0x0, symName: __ZNK5Eigen8internal15nullary_wrapperIdNS0_16scalar_random_opIdEELb1ELb0ELb0EEclIlEEdRKS3_T_S8_, symObjAddr: 0x1C58, symBinAddr: 0x10000417C, symSize: 0x30 }
  - { offsetInCU: 0x47F11, offset: 0x47F11, size: 0x8, addend: 0x0, symName: __ZNK5Eigen8internal16scalar_random_opIdEclEv, symObjAddr: 0x1C88, symBinAddr: 0x1000041AC, symSize: 0x20 }
  - { offsetInCU: 0x47F37, offset: 0x47F37, size: 0x8, addend: 0x0, symName: __ZN5Eigen8internal19random_default_implIdLb0ELb0EE3runEv, symObjAddr: 0x1CBC, symBinAddr: 0x1000041E0, symSize: 0x34 }
  - { offsetInCU: 0x47F4B, offset: 0x47F4B, size: 0x8, addend: 0x0, symName: __ZN5Eigen8internal19random_default_implIdLb0ELb0EE3runERKdS4_, symObjAddr: 0x1CF0, symBinAddr: 0x100004214, symSize: 0x68 }
  - { offsetInCU: 0x47F7E, offset: 0x47F7E, size: 0x8, addend: 0x0, symName: __ZN5Eigen8internal9evaluatorINS_6MatrixIdLin1ELin1ELi0ELin1ELin1EEEED2Ev, symObjAddr: 0x1D58, symBinAddr: 0x10000427C, symSize: 0x2C }
  - { offsetInCU: 0x47FAB, offset: 0x47FAB, size: 0x8, addend: 0x0, symName: __ZN5Eigen8internal9evaluatorINS_15PlainObjectBaseINS_6MatrixIdLin1ELin1ELi0ELin1ELin1EEEEEED2Ev, symObjAddr: 0x1D84, symBinAddr: 0x1000042A8, symSize: 0x2C }
  - { offsetInCU: 0x47FD7, offset: 0x47FD7, size: 0x8, addend: 0x0, symName: __ZN5Eigen8internal9evaluatorINS_14CwiseNullaryOpINS0_16scalar_random_opIdEENS_6MatrixIdLin1ELin1ELi0ELin1ELin1EEEEEED2Ev, symObjAddr: 0x1DB0, symBinAddr: 0x1000042D4, symSize: 0x2C }
  - { offsetInCU: 0x48003, offset: 0x48003, size: 0x8, addend: 0x0, symName: __ZN5Eigen8internal9assign_opIddEC2Ev, symObjAddr: 0x1DDC, symBinAddr: 0x100004300, symSize: 0x14 }
  - { offsetInCU: 0x4802D, offset: 0x4802D, size: 0x8, addend: 0x0, symName: __ZN5Eigen7ProductINS_6MatrixIdLin1ELin1ELi0ELin1ELin1EEES2_Li0EEC1ERKS2_S5_, symObjAddr: 0x1DF0, symBinAddr: 0x100004314, symSize: 0x3C }
  - { offsetInCU: 0x48073, offset: 0x48073, size: 0x8, addend: 0x0, symName: __ZN5Eigen7ProductINS_6MatrixIdLin1ELin1ELi0ELin1ELin1EEES2_Li0EEC2ERKS2_S5_, symObjAddr: 0x1E2C, symBinAddr: 0x100004350, symSize: 0xC0 }
  - { offsetInCU: 0x480BE, offset: 0x480BE, size: 0x8, addend: 0x0, symName: __ZN5Eigen11ProductImplINS_6MatrixIdLin1ELin1ELi0ELin1ELin1EEES2_Li0ENS_5DenseEEC2Ev, symObjAddr: 0x1EEC, symBinAddr: 0x100004410, symSize: 0x2C }
  - { offsetInCU: 0x480EF, offset: 0x480EF, size: 0x8, addend: 0x0, symName: __ZN5Eigen8internal18dense_product_baseINS_6MatrixIdLin1ELin1ELi0ELin1ELin1EEES3_Li0ELi8EEC2Ev, symObjAddr: 0x1F18, symBinAddr: 0x10000443C, symSize: 0x2C }
  - { offsetInCU: 0x4811B, offset: 0x4811B, size: 0x8, addend: 0x0, symName: __ZN5Eigen10MatrixBaseINS_7ProductINS_6MatrixIdLin1ELin1ELi0ELin1ELin1EEES3_Li0EEEEC2Ev, symObjAddr: 0x1F44, symBinAddr: 0x100004468, symSize: 0x2C }
  - { offsetInCU: 0x48145, offset: 0x48145, size: 0x8, addend: 0x0, symName: __ZN5Eigen9DenseBaseINS_7ProductINS_6MatrixIdLin1ELin1ELi0ELin1ELin1EEES3_Li0EEEEC2Ev, symObjAddr: 0x1F70, symBinAddr: 0x100004494, symSize: 0x14 }
  - { offsetInCU: 0x4816F, offset: 0x4816F, size: 0x8, addend: 0x0, symName: __ZN5Eigen6MatrixIdLin1ELin1ELi0ELin1ELin1EEC2INS_7ProductIS1_S1_Li0EEEEERKNS_9EigenBaseIT_EE, symObjAddr: 0x1F84, symBinAddr: 0x1000044A8, symSize: 0x40 }
  - { offsetInCU: 0x481B1, offset: 0x481B1, size: 0x8, addend: 0x0, symName: __ZNK5Eigen9EigenBaseINS_7ProductINS_6MatrixIdLin1ELin1ELi0ELin1ELin1EEES3_Li0EEEE7derivedEv, symObjAddr: 0x1FC4, symBinAddr: 0x1000044E8, symSize: 0x14 }
  - { offsetInCU: 0x481D7, offset: 0x481D7, size: 0x8, addend: 0x0, symName: __ZN5Eigen15PlainObjectBaseINS_6MatrixIdLin1ELin1ELi0ELin1ELin1EEEEC2INS_7ProductIS2_S2_Li0EEEEERKNS_9DenseBaseIT_EE, symObjAddr: 0x1FD8, symBinAddr: 0x1000044FC, symSize: 0x80 }
  - { offsetInCU: 0x48219, offset: 0x48219, size: 0x8, addend: 0x0, symName: __ZN5Eigen15PlainObjectBaseINS_6MatrixIdLin1ELin1ELi0ELin1ELin1EEEE10resizeLikeINS_7ProductIS2_S2_Li0EEEEEvRKNS_9EigenBaseIT_EE, symObjAddr: 0x2058, symBinAddr: 0x10000457C, symSize: 0x11C }
  - { offsetInCU: 0x482AD, offset: 0x482AD, size: 0x8, addend: 0x0, symName: __ZN5Eigen15PlainObjectBaseINS_6MatrixIdLin1ELin1ELi0ELin1ELin1EEEE12_set_noaliasINS_7ProductIS2_S2_Li0EEEEERS2_RKNS_9DenseBaseIT_EE, symObjAddr: 0x2174, symBinAddr: 0x100004698, symSize: 0x60 }
  - { offsetInCU: 0x482EB, offset: 0x482EB, size: 0x8, addend: 0x0, symName: __ZNK5Eigen7ProductINS_6MatrixIdLin1ELin1ELi0ELin1ELin1EEES2_Li0EE4rowsEv, symObjAddr: 0x21D4, symBinAddr: 0x1000046F8, symSize: 0x28 }
  - { offsetInCU: 0x48311, offset: 0x48311, size: 0x8, addend: 0x0, symName: __ZNK5Eigen7ProductINS_6MatrixIdLin1ELin1ELi0ELin1ELin1EEES2_Li0EE4colsEv, symObjAddr: 0x21FC, symBinAddr: 0x100004720, symSize: 0x28 }
  - { offsetInCU: 0x48341, offset: 0x48341, size: 0x8, addend: 0x0, symName: __ZN5Eigen8internal10AssignmentINS_6MatrixIdLin1ELin1ELi0ELin1ELin1EEENS_7ProductIS3_S3_Li0EEENS0_9assign_opIddEENS0_11Dense2DenseEvE3runERS3_RKS5_RKS7_, symObjAddr: 0x2260, symBinAddr: 0x100004784, symSize: 0xB4 }
  - { offsetInCU: 0x48399, offset: 0x48399, size: 0x8, addend: 0x0, symName: __ZN5Eigen8internal20generic_product_implINS_6MatrixIdLin1ELin1ELi0ELin1ELin1EEES3_NS_10DenseShapeES4_Li8EE6evalToIS3_EEvRT_RKS3_SA_, symObjAddr: 0x2314, symBinAddr: 0x100004838, symSize: 0xE4 }
  - { offsetInCU: 0x483E4, offset: 0x483E4, size: 0x8, addend: 0x0, symName: __ZNK5Eigen7ProductINS_6MatrixIdLin1ELin1ELi0ELin1ELin1EEES2_Li0EE3lhsEv, symObjAddr: 0x23F8, symBinAddr: 0x10000491C, symSize: 0x18 }
  - { offsetInCU: 0x4840A, offset: 0x4840A, size: 0x8, addend: 0x0, symName: __ZNK5Eigen7ProductINS_6MatrixIdLin1ELin1ELi0ELin1ELin1EEES2_Li0EE3rhsEv, symObjAddr: 0x2410, symBinAddr: 0x100004934, symSize: 0x18 }
  - { offsetInCU: 0x48450, offset: 0x48450, size: 0x8, addend: 0x0, symName: __ZN5Eigen8internal20generic_product_implINS_6MatrixIdLin1ELin1ELi0ELin1ELin1EEES3_NS_10DenseShapeES4_Li3EE12eval_dynamicIS3_NS0_9assign_opIddEEEEvRT_RKS3_SC_RKT0_, symObjAddr: 0x2428, symBinAddr: 0x10000494C, symSize: 0xB0 }
  - { offsetInCU: 0x4850E, offset: 0x4850E, size: 0x8, addend: 0x0, symName: __ZN5Eigen9DenseBaseINS_6MatrixIdLin1ELin1ELi0ELin1ELin1EEEE7setZeroEv, symObjAddr: 0x24D8, symBinAddr: 0x1000049FC, symSize: 0x30 }
  - { offsetInCU: 0x4856D, offset: 0x4856D, size: 0x8, addend: 0x0, symName: __ZN5Eigen8internal20generic_product_implINS_6MatrixIdLin1ELin1ELi0ELin1ELin1EEES3_NS_10DenseShapeES4_Li8EE13scaleAndAddToIS3_EEvRT_RKS3_SA_RKd, symObjAddr: 0x2508, symBinAddr: 0x100004A2C, symSize: 0x394 }
  - { offsetInCU: 0x486AF, offset: 0x486AF, size: 0x8, addend: 0x0, symName: __ZN5Eigen8internal20generic_product_implINS_6MatrixIdLin1ELin1ELi0ELin1ELin1EEES3_NS_10DenseShapeES4_Li3EE17eval_dynamic_implIS3_S3_S3_NS0_9assign_opIddEEdEEvRT_RKT0_RKT1_RKT2_RKT3_NS0_10false_typeE, symObjAddr: 0x289C, symBinAddr: 0x100004DC0, symSize: 0x68 }
  - { offsetInCU: 0x48747, offset: 0x48747, size: 0x8, addend: 0x0, symName: __ZN5Eigen8internal11blas_traitsINS_6MatrixIdLin1ELin1ELi0ELin1ELin1EEEE7extractERKS3_, symObjAddr: 0x2904, symBinAddr: 0x100004E28, symSize: 0x14 }
  - { offsetInCU: 0x4876B, offset: 0x4876B, size: 0x8, addend: 0x0, symName: __ZNK5Eigen9DenseBaseINS_6MatrixIdLin1ELin1ELi0ELin1ELin1EEEE11conjugateIfILb0EEENS_8internal11conditionalIXT_ERKS2_S8_E4typeEv, symObjAddr: 0x2918, symBinAddr: 0x100004E3C, symSize: 0x24 }
  - { offsetInCU: 0x4879B, offset: 0x4879B, size: 0x8, addend: 0x0, symName: __ZN5Eigen8internal11blas_traitsINS_6MatrixIdLin1ELin1ELi0ELin1ELin1EEEE19extractScalarFactorERKS3_, symObjAddr: 0x293C, symBinAddr: 0x100004E60, symSize: 0x14 }
  - { offsetInCU: 0x487BB, offset: 0x487BB, size: 0x8, addend: 0x0, symName: __ZNK5Eigen10MatrixBaseINS_6MatrixIdLin1ELin1ELi0ELin1ELin1EEEE11lazyProductIS2_EEKNS_7ProductIS2_T_Li1EEERKNS0_IS6_EE, symObjAddr: 0x2A38, symBinAddr: 0x100004F5C, symSize: 0x4C }
  - { offsetInCU: 0x487FB, offset: 0x487FB, size: 0x8, addend: 0x0, symName: __ZN5Eigen8internal9evaluatorINS_7ProductINS_6MatrixIdLin1ELin1ELi0ELin1ELin1EEES4_Li1EEEEC1ERKS5_, symObjAddr: 0x2A84, symBinAddr: 0x100004FA8, symSize: 0x34 }
  - { offsetInCU: 0x48833, offset: 0x48833, size: 0x8, addend: 0x0, symName: __ZN5Eigen8internal41restricted_packet_dense_assignment_kernelINS0_9evaluatorINS_6MatrixIdLin1ELin1ELi0ELin1ELin1EEEEENS2_INS_7ProductIS4_S4_Li1EEEEENS0_9assign_opIddEEEC1ERS5_RKS8_RKSA_RS4_, symObjAddr: 0x2BB0, symBinAddr: 0x1000050D4, symSize: 0x4C }
  - { offsetInCU: 0x4889E, offset: 0x4889E, size: 0x8, addend: 0x0, symName: __ZN5Eigen8internal9evaluatorINS_7ProductINS_6MatrixIdLin1ELin1ELi0ELin1ELin1EEES4_Li1EEEED1Ev, symObjAddr: 0x2DD4, symBinAddr: 0x1000052F8, symSize: 0x2C }
  - { offsetInCU: 0x488CA, offset: 0x488CA, size: 0x8, addend: 0x0, symName: __ZN5Eigen8internal9evaluatorINS_7ProductINS_6MatrixIdLin1ELin1ELi0ELin1ELin1EEES4_Li1EEEEC2ERKS5_, symObjAddr: 0x2E00, symBinAddr: 0x100005324, symSize: 0x34 }
  - { offsetInCU: 0x48902, offset: 0x48902, size: 0x8, addend: 0x0, symName: __ZN5Eigen8internal17product_evaluatorINS_7ProductINS_6MatrixIdLin1ELin1ELi0ELin1ELin1EEES4_Li1EEELi8ENS_10DenseShapeES6_ddEC2ERKS5_, symObjAddr: 0x2E34, symBinAddr: 0x100005358, symSize: 0x110 }
  - { offsetInCU: 0x4893B, offset: 0x4893B, size: 0x8, addend: 0x0, symName: __ZN5Eigen8internal14evaluator_baseINS_7ProductINS_6MatrixIdLin1ELin1ELi0ELin1ELin1EEES4_Li1EEEEC2Ev, symObjAddr: 0x2F44, symBinAddr: 0x100005468, symSize: 0x14 }
  - { offsetInCU: 0x48965, offset: 0x48965, size: 0x8, addend: 0x0, symName: __ZNK5Eigen7ProductINS_6MatrixIdLin1ELin1ELi0ELin1ELin1EEES2_Li1EE3lhsEv, symObjAddr: 0x2F58, symBinAddr: 0x10000547C, symSize: 0x18 }
  - { offsetInCU: 0x4898B, offset: 0x4898B, size: 0x8, addend: 0x0, symName: __ZNK5Eigen7ProductINS_6MatrixIdLin1ELin1ELi0ELin1ELin1EEES2_Li1EE3rhsEv, symObjAddr: 0x2F70, symBinAddr: 0x100005494, symSize: 0x18 }
  - { offsetInCU: 0x489B1, offset: 0x489B1, size: 0x8, addend: 0x0, symName: __ZN5Eigen8internal14evaluator_baseINS_7ProductINS_6MatrixIdLin1ELin1ELi0ELin1ELin1EEES4_Li1EEEED2Ev, symObjAddr: 0x2F88, symBinAddr: 0x1000054AC, symSize: 0x14 }
  - { offsetInCU: 0x489DB, offset: 0x489DB, size: 0x8, addend: 0x0, symName: __ZNK5Eigen7ProductINS_6MatrixIdLin1ELin1ELi0ELin1ELin1EEES2_Li1EE4rowsEv, symObjAddr: 0x2F9C, symBinAddr: 0x1000054C0, symSize: 0x28 }
  - { offsetInCU: 0x48A01, offset: 0x48A01, size: 0x8, addend: 0x0, symName: __ZNK5Eigen7ProductINS_6MatrixIdLin1ELin1ELi0ELin1ELin1EEES2_Li1EE4colsEv, symObjAddr: 0x2FC4, symBinAddr: 0x1000054E8, symSize: 0x28 }
  - { offsetInCU: 0x48A27, offset: 0x48A27, size: 0x8, addend: 0x0, symName: __ZN5Eigen8internal41restricted_packet_dense_assignment_kernelINS0_9evaluatorINS_6MatrixIdLin1ELin1ELi0ELin1ELin1EEEEENS2_INS_7ProductIS4_S4_Li1EEEEENS0_9assign_opIddEEEC2ERS5_RKS8_RKSA_RS4_, symObjAddr: 0x2FEC, symBinAddr: 0x100005510, symSize: 0x4C }
  - { offsetInCU: 0x48A8D, offset: 0x48A8D, size: 0x8, addend: 0x0, symName: __ZN5Eigen8internal31generic_dense_assignment_kernelINS0_9evaluatorINS_6MatrixIdLin1ELin1ELi0ELin1ELin1EEEEENS2_INS_7ProductIS4_S4_Li1EEEEENS0_9assign_opIddEELi1EEC2ERS5_RKS8_RKSA_RS4_, symObjAddr: 0x3038, symBinAddr: 0x10000555C, symSize: 0x44 }
  - { offsetInCU: 0x48AF3, offset: 0x48AF3, size: 0x8, addend: 0x0, symName: __ZNK5Eigen8internal31generic_dense_assignment_kernelINS0_9evaluatorINS_6MatrixIdLin1ELin1ELi0ELin1ELin1EEEEENS2_INS_7ProductIS4_S4_Li1EEEEENS0_9assign_opIddEELi1EE10dstDataPtrEv, symObjAddr: 0x307C, symBinAddr: 0x1000055A0, symSize: 0x28 }
  - { offsetInCU: 0x48B19, offset: 0x48B19, size: 0x8, addend: 0x0, symName: __ZNK5Eigen8internal31generic_dense_assignment_kernelINS0_9evaluatorINS_6MatrixIdLin1ELin1ELi0ELin1ELin1EEEEENS2_INS_7ProductIS4_S4_Li1EEEEENS0_9assign_opIddEELi1EE9innerSizeEv, symObjAddr: 0x30A4, symBinAddr: 0x1000055C8, symSize: 0x28 }
  - { offsetInCU: 0x48B3F, offset: 0x48B3F, size: 0x8, addend: 0x0, symName: __ZNK5Eigen8internal31generic_dense_assignment_kernelINS0_9evaluatorINS_6MatrixIdLin1ELin1ELi0ELin1ELin1EEEEENS2_INS_7ProductIS4_S4_Li1EEEEENS0_9assign_opIddEELi1EE9outerSizeEv, symObjAddr: 0x30CC, symBinAddr: 0x1000055F0, symSize: 0x38 }
  - { offsetInCU: 0x48B65, offset: 0x48B65, size: 0x8, addend: 0x0, symName: __ZNK5Eigen8internal31generic_dense_assignment_kernelINS0_9evaluatorINS_6MatrixIdLin1ELin1ELi0ELin1ELin1EEEEENS2_INS_7ProductIS4_S4_Li1EEEEENS0_9assign_opIddEELi1EE11outerStrideEv, symObjAddr: 0x3104, symBinAddr: 0x100005628, symSize: 0x28 }
  - { offsetInCU: 0x48B8B, offset: 0x48B8B, size: 0x8, addend: 0x0, symName: __ZN5Eigen8internal31generic_dense_assignment_kernelINS0_9evaluatorINS_6MatrixIdLin1ELin1ELi0ELin1ELin1EEEEENS2_INS_7ProductIS4_S4_Li1EEEEENS0_9assign_opIddEELi1EE23assignCoeffByOuterInnerEll, symObjAddr: 0x312C, symBinAddr: 0x100005650, symSize: 0x60 }
  - { offsetInCU: 0x48BED, offset: 0x48BED, size: 0x8, addend: 0x0, symName: __ZN5Eigen8internal31generic_dense_assignment_kernelINS0_9evaluatorINS_6MatrixIdLin1ELin1ELi0ELin1ELin1EEEEENS2_INS_7ProductIS4_S4_Li1EEEEENS0_9assign_opIddEELi1EE24assignPacketByOuterInnerILi16ELi0E19__simd128_float64_tEEvll, symObjAddr: 0x318C, symBinAddr: 0x1000056B0, symSize: 0x60 }
  - { offsetInCU: 0x48C6C, offset: 0x48C6C, size: 0x8, addend: 0x0, symName: __ZN5Eigen15PlainObjectBaseINS_6MatrixIdLin1ELin1ELi0ELin1ELin1EEEE4dataEv, symObjAddr: 0x31EC, symBinAddr: 0x100005710, symSize: 0x24 }
  - { offsetInCU: 0x48C92, offset: 0x48C92, size: 0x8, addend: 0x0, symName: __ZN5Eigen12DenseStorageIdLin1ELin1ELin1ELi0EE4dataEv, symObjAddr: 0x3210, symBinAddr: 0x100005734, symSize: 0x18 }
  - { offsetInCU: 0x48CB8, offset: 0x48CB8, size: 0x8, addend: 0x0, symName: __ZNK5Eigen9DenseBaseINS_6MatrixIdLin1ELin1ELi0ELin1ELin1EEEE9outerSizeEv, symObjAddr: 0x3228, symBinAddr: 0x10000574C, symSize: 0x24 }
  - { offsetInCU: 0x48CDE, offset: 0x48CDE, size: 0x8, addend: 0x0, symName: __ZN5Eigen8internal31generic_dense_assignment_kernelINS0_9evaluatorINS_6MatrixIdLin1ELin1ELi0ELin1ELin1EEEEENS2_INS_7ProductIS4_S4_Li1EEEEENS0_9assign_opIddEELi1EE20rowIndexByOuterInnerEll, symObjAddr: 0x324C, symBinAddr: 0x100005770, symSize: 0x18 }
  - { offsetInCU: 0x48D11, offset: 0x48D11, size: 0x8, addend: 0x0, symName: __ZN5Eigen8internal31generic_dense_assignment_kernelINS0_9evaluatorINS_6MatrixIdLin1ELin1ELi0ELin1ELin1EEEEENS2_INS_7ProductIS4_S4_Li1EEEEENS0_9assign_opIddEELi1EE20colIndexByOuterInnerEll, symObjAddr: 0x3264, symBinAddr: 0x100005788, symSize: 0x18 }
  - { offsetInCU: 0x48D44, offset: 0x48D44, size: 0x8, addend: 0x0, symName: __ZN5Eigen8internal31generic_dense_assignment_kernelINS0_9evaluatorINS_6MatrixIdLin1ELin1ELi0ELin1ELin1EEEEENS2_INS_7ProductIS4_S4_Li1EEEEENS0_9assign_opIddEELi1EE11assignCoeffEll, symObjAddr: 0x327C, symBinAddr: 0x1000057A0, symSize: 0x70 }
  - { offsetInCU: 0x48D88, offset: 0x48D88, size: 0x8, addend: 0x0, symName: __ZN5Eigen8internal9evaluatorINS_15PlainObjectBaseINS_6MatrixIdLin1ELin1ELi0ELin1ELin1EEEEEE8coeffRefEll, symObjAddr: 0x32EC, symBinAddr: 0x100005810, symSize: 0x5C }
  - { offsetInCU: 0x48DCA, offset: 0x48DCA, size: 0x8, addend: 0x0, symName: __ZNK5Eigen8internal17product_evaluatorINS_7ProductINS_6MatrixIdLin1ELin1ELi0ELin1ELin1EEES4_Li1EEELi8ENS_10DenseShapeES6_ddE5coeffEll, symObjAddr: 0x3348, symBinAddr: 0x10000586C, symSize: 0x8C }
  - { offsetInCU: 0x48E0E, offset: 0x48E0E, size: 0x8, addend: 0x0, symName: __ZNK5Eigen8internal30plainobjectbase_evaluator_dataIdLin1EE11outerStrideEv, symObjAddr: 0x33D4, symBinAddr: 0x1000058F8, symSize: 0x18 }
  - { offsetInCU: 0x48E34, offset: 0x48E34, size: 0x8, addend: 0x0, symName: __ZNK5Eigen9DenseBaseINS_6MatrixIdLin1ELin1ELi0ELin1ELin1EEEE3rowEl, symObjAddr: 0x33EC, symBinAddr: 0x100005910, symSize: 0x3C }
  - { offsetInCU: 0x48E69, offset: 0x48E69, size: 0x8, addend: 0x0, symName: __ZNK5Eigen9DenseBaseINS_5BlockIKNS_6MatrixIdLin1ELin1ELi0ELin1ELin1EEELi1ELin1ELb0EEEE9transposeEv, symObjAddr: 0x3428, symBinAddr: 0x10000594C, symSize: 0x34 }
  - { offsetInCU: 0x48E91, offset: 0x48E91, size: 0x8, addend: 0x0, symName: __ZNK5Eigen10MatrixBaseINS_9TransposeIKNS_5BlockIKNS_6MatrixIdLin1ELin1ELi0ELin1ELin1EEELi1ELin1ELb0EEEEEE12cwiseProductINS2_IS5_Lin1ELi1ELb1EEEEEKNS_13CwiseBinaryOpINS_8internal17scalar_product_opIdNSD_6traitsIT_E6ScalarEEEKS8_KSG_EERKNS0_ISG_EE, symObjAddr: 0x345C, symBinAddr: 0x100005980, symSize: 0x60 }
  - { offsetInCU: 0x48ECE, offset: 0x48ECE, size: 0x8, addend: 0x0, symName: __ZNK5Eigen9DenseBaseINS_6MatrixIdLin1ELin1ELi0ELin1ELin1EEEE3colEl, symObjAddr: 0x34BC, symBinAddr: 0x1000059E0, symSize: 0x3C }
  - { offsetInCU: 0x48F03, offset: 0x48F03, size: 0x8, addend: 0x0, symName: __ZNK5Eigen9DenseBaseINS_13CwiseBinaryOpINS_8internal17scalar_product_opIddEEKNS_9TransposeIKNS_5BlockIKNS_6MatrixIdLin1ELin1ELi0ELin1ELin1EEELi1ELin1ELb0EEEEEKNS6_IS9_Lin1ELi1ELb1EEEEEE3sumEv, symObjAddr: 0x34F8, symBinAddr: 0x100005A1C, symSize: 0x74 }
  - { offsetInCU: 0x48F2C, offset: 0x48F2C, size: 0x8, addend: 0x0, symName: __ZN5Eigen5BlockIKNS_6MatrixIdLin1ELin1ELi0ELin1ELin1EEELi1ELin1ELb0EEC1ERS3_l, symObjAddr: 0x356C, symBinAddr: 0x100005A90, symSize: 0x3C }
  - { offsetInCU: 0x48F72, offset: 0x48F72, size: 0x8, addend: 0x0, symName: __ZN5Eigen5BlockIKNS_6MatrixIdLin1ELin1ELi0ELin1ELin1EEELi1ELin1ELb0EEC2ERS3_l, symObjAddr: 0x35A8, symBinAddr: 0x100005ACC, symSize: 0xCC }
  - { offsetInCU: 0x48FB8, offset: 0x48FB8, size: 0x8, addend: 0x0, symName: __ZN5Eigen9BlockImplIKNS_6MatrixIdLin1ELin1ELi0ELin1ELin1EEELi1ELin1ELb0ENS_5DenseEEC2ERS3_l, symObjAddr: 0x3674, symBinAddr: 0x100005B98, symSize: 0x3C }
  - { offsetInCU: 0x48FFE, offset: 0x48FFE, size: 0x8, addend: 0x0, symName: __ZN5Eigen8internal15BlockImpl_denseIKNS_6MatrixIdLin1ELin1ELi0ELin1ELin1EEELi1ELin1ELb0ELb1EEC2ERS4_l, symObjAddr: 0x36B0, symBinAddr: 0x100005BD4, symSize: 0xAC }
  - { offsetInCU: 0x49046, offset: 0x49046, size: 0x8, addend: 0x0, symName: __ZNK5Eigen6MatrixIdLin1ELin1ELi0ELin1ELin1EE11innerStrideEv, symObjAddr: 0x375C, symBinAddr: 0x100005C80, symSize: 0x14 }
  - { offsetInCU: 0x4906C, offset: 0x4906C, size: 0x8, addend: 0x0, symName: __ZN5Eigen7MapBaseINS_5BlockIKNS_6MatrixIdLin1ELin1ELi0ELin1ELin1EEELi1ELin1ELb0EEELi0EEC2EPKdll, symObjAddr: 0x3770, symBinAddr: 0x100005C94, symSize: 0x130 }
  - { offsetInCU: 0x490C0, offset: 0x490C0, size: 0x8, addend: 0x0, symName: __ZN5Eigen8internal15BlockImpl_denseIKNS_6MatrixIdLin1ELin1ELi0ELin1ELin1EEELi1ELin1ELb0ELb1EE4initEv, symObjAddr: 0x38A0, symBinAddr: 0x100005DC4, symSize: 0x34 }
  - { offsetInCU: 0x490E6, offset: 0x490E6, size: 0x8, addend: 0x0, symName: __ZN5Eigen10MatrixBaseINS_5BlockIKNS_6MatrixIdLin1ELin1ELi0ELin1ELin1EEELi1ELin1ELb0EEEEC2Ev, symObjAddr: 0x38D4, symBinAddr: 0x100005DF8, symSize: 0x2C }
  - { offsetInCU: 0x49110, offset: 0x49110, size: 0x8, addend: 0x0, symName: __ZN5Eigen8internal19variable_if_dynamicIlLi1EEC1El, symObjAddr: 0x3900, symBinAddr: 0x100005E24, symSize: 0x34 }
  - { offsetInCU: 0x49148, offset: 0x49148, size: 0x8, addend: 0x0, symName: __ZNK5Eigen7MapBaseINS_5BlockIKNS_6MatrixIdLin1ELin1ELi0ELin1ELin1EEELi1ELin1ELb0EEELi0EE11checkSanityIS5_EEvNS_8internal9enable_ifIXeqsr8internal6traitsIT_EE9AlignmentLi0EEPvE4typeE, symObjAddr: 0x3934, symBinAddr: 0x100005E58, symSize: 0x14 }
  - { offsetInCU: 0x49182, offset: 0x49182, size: 0x8, addend: 0x0, symName: __ZN5Eigen9DenseBaseINS_5BlockIKNS_6MatrixIdLin1ELin1ELi0ELin1ELin1EEELi1ELin1ELb0EEEEC2Ev, symObjAddr: 0x3948, symBinAddr: 0x100005E6C, symSize: 0x14 }
  - { offsetInCU: 0x491AC, offset: 0x491AC, size: 0x8, addend: 0x0, symName: __ZN5Eigen8internal19variable_if_dynamicIlLi1EEC2El, symObjAddr: 0x395C, symBinAddr: 0x100005E80, symSize: 0x64 }
  - { offsetInCU: 0x491E4, offset: 0x491E4, size: 0x8, addend: 0x0, symName: __ZNK5Eigen9EigenBaseINS_5BlockIKNS_6MatrixIdLin1ELin1ELi0ELin1ELin1EEELi1ELin1ELb0EEEE7derivedEv, symObjAddr: 0x39C0, symBinAddr: 0x100005EE4, symSize: 0x14 }
  - { offsetInCU: 0x4920A, offset: 0x4920A, size: 0x8, addend: 0x0, symName: __ZN5Eigen9TransposeIKNS_5BlockIKNS_6MatrixIdLin1ELin1ELi0ELin1ELin1EEELi1ELin1ELb0EEEEC1ERS6_, symObjAddr: 0x39D4, symBinAddr: 0x100005EF8, symSize: 0x34 }
  - { offsetInCU: 0x49242, offset: 0x49242, size: 0x8, addend: 0x0, symName: __ZN5Eigen9TransposeIKNS_5BlockIKNS_6MatrixIdLin1ELin1ELi0ELin1ELin1EEELi1ELin1ELb0EEEEC2ERS6_, symObjAddr: 0x3A08, symBinAddr: 0x100005F2C, symSize: 0x40 }
  - { offsetInCU: 0x4927A, offset: 0x4927A, size: 0x8, addend: 0x0, symName: __ZN5Eigen13TransposeImplIKNS_5BlockIKNS_6MatrixIdLin1ELin1ELi0ELin1ELin1EEELi1ELin1ELb0EEENS_5DenseEEC2Ev, symObjAddr: 0x3A48, symBinAddr: 0x100005F6C, symSize: 0x2C }
  - { offsetInCU: 0x492A4, offset: 0x492A4, size: 0x8, addend: 0x0, symName: __ZN5Eigen10MatrixBaseINS_9TransposeIKNS_5BlockIKNS_6MatrixIdLin1ELin1ELi0ELin1ELin1EEELi1ELin1ELb0EEEEEEC2Ev, symObjAddr: 0x3A74, symBinAddr: 0x100005F98, symSize: 0x2C }
  - { offsetInCU: 0x492CE, offset: 0x492CE, size: 0x8, addend: 0x0, symName: __ZN5Eigen9DenseBaseINS_9TransposeIKNS_5BlockIKNS_6MatrixIdLin1ELin1ELi0ELin1ELin1EEELi1ELin1ELb0EEEEEEC2Ev, symObjAddr: 0x3AA0, symBinAddr: 0x100005FC4, symSize: 0x14 }
  - { offsetInCU: 0x492F8, offset: 0x492F8, size: 0x8, addend: 0x0, symName: __ZNK5Eigen9EigenBaseINS_9TransposeIKNS_5BlockIKNS_6MatrixIdLin1ELin1ELi0ELin1ELin1EEELi1ELin1ELb0EEEEEE7derivedEv, symObjAddr: 0x3AB4, symBinAddr: 0x100005FD8, symSize: 0x14 }
  - { offsetInCU: 0x4931E, offset: 0x4931E, size: 0x8, addend: 0x0, symName: __ZNK5Eigen9EigenBaseINS_5BlockIKNS_6MatrixIdLin1ELin1ELi0ELin1ELin1EEELin1ELi1ELb1EEEE7derivedEv, symObjAddr: 0x3AC8, symBinAddr: 0x100005FEC, symSize: 0x14 }
  - { offsetInCU: 0x49344, offset: 0x49344, size: 0x8, addend: 0x0, symName: __ZN5Eigen8internal17scalar_product_opIddEC1Ev, symObjAddr: 0x3ADC, symBinAddr: 0x100006000, symSize: 0x2C }
  - { offsetInCU: 0x4936E, offset: 0x4936E, size: 0x8, addend: 0x0, symName: __ZN5Eigen13CwiseBinaryOpINS_8internal17scalar_product_opIddEEKNS_9TransposeIKNS_5BlockIKNS_6MatrixIdLin1ELin1ELi0ELin1ELin1EEELi1ELin1ELb0EEEEEKNS5_IS8_Lin1ELi1ELb1EEEEC1ERSC_RSE_RKS3_, symObjAddr: 0x3B08, symBinAddr: 0x10000602C, symSize: 0x44 }
  - { offsetInCU: 0x493C2, offset: 0x493C2, size: 0x8, addend: 0x0, symName: __ZN5Eigen8internal17scalar_product_opIddEC2Ev, symObjAddr: 0x3B4C, symBinAddr: 0x100006070, symSize: 0x14 }
  - { offsetInCU: 0x493EC, offset: 0x493EC, size: 0x8, addend: 0x0, symName: __ZN5Eigen13CwiseBinaryOpINS_8internal17scalar_product_opIddEEKNS_9TransposeIKNS_5BlockIKNS_6MatrixIdLin1ELin1ELi0ELin1ELin1EEELi1ELin1ELb0EEEEEKNS5_IS8_Lin1ELi1ELb1EEEEC2ERSC_RSE_RKS3_, symObjAddr: 0x3B60, symBinAddr: 0x100006084, symSize: 0x104 }
  - { offsetInCU: 0x49445, offset: 0x49445, size: 0x8, addend: 0x0, symName: __ZN5Eigen17CwiseBinaryOpImplINS_8internal17scalar_product_opIddEEKNS_9TransposeIKNS_5BlockIKNS_6MatrixIdLin1ELin1ELi0ELin1ELin1EEELi1ELin1ELb0EEEEEKNS5_IS8_Lin1ELi1ELb1EEENS_5DenseEEC2Ev, symObjAddr: 0x3C64, symBinAddr: 0x100006188, symSize: 0x2C }
  - { offsetInCU: 0x49471, offset: 0x49471, size: 0x8, addend: 0x0, symName: __ZN5Eigen8internal17scalar_product_opIddEC1ERKS2_, symObjAddr: 0x3C90, symBinAddr: 0x1000061B4, symSize: 0x34 }
  - { offsetInCU: 0x494A6, offset: 0x494A6, size: 0x8, addend: 0x0, symName: __ZNK5Eigen9TransposeIKNS_5BlockIKNS_6MatrixIdLin1ELin1ELi0ELin1ELin1EEELi1ELin1ELb0EEEE4rowsEv, symObjAddr: 0x3CC4, symBinAddr: 0x1000061E8, symSize: 0x24 }
  - { offsetInCU: 0x494CC, offset: 0x494CC, size: 0x8, addend: 0x0, symName: __ZNK5Eigen7MapBaseINS_5BlockIKNS_6MatrixIdLin1ELin1ELi0ELin1ELin1EEELin1ELi1ELb1EEELi0EE4rowsEv, symObjAddr: 0x3CE8, symBinAddr: 0x10000620C, symSize: 0x28 }
  - { offsetInCU: 0x494F2, offset: 0x494F2, size: 0x8, addend: 0x0, symName: __ZNK5Eigen9TransposeIKNS_5BlockIKNS_6MatrixIdLin1ELin1ELi0ELin1ELin1EEELi1ELin1ELb0EEEE4colsEv, symObjAddr: 0x3D10, symBinAddr: 0x100006234, symSize: 0x24 }
  - { offsetInCU: 0x49518, offset: 0x49518, size: 0x8, addend: 0x0, symName: __ZNK5Eigen7MapBaseINS_5BlockIKNS_6MatrixIdLin1ELin1ELi0ELin1ELin1EEELin1ELi1ELb1EEELi0EE4colsEv, symObjAddr: 0x3D34, symBinAddr: 0x100006258, symSize: 0x20 }
  - { offsetInCU: 0x4953E, offset: 0x4953E, size: 0x8, addend: 0x0, symName: __ZN5Eigen10MatrixBaseINS_13CwiseBinaryOpINS_8internal17scalar_product_opIddEEKNS_9TransposeIKNS_5BlockIKNS_6MatrixIdLin1ELin1ELi0ELin1ELin1EEELi1ELin1ELb0EEEEEKNS6_IS9_Lin1ELi1ELb1EEEEEEC2Ev, symObjAddr: 0x3D54, symBinAddr: 0x100006278, symSize: 0x2C }
  - { offsetInCU: 0x49568, offset: 0x49568, size: 0x8, addend: 0x0, symName: __ZN5Eigen9DenseBaseINS_13CwiseBinaryOpINS_8internal17scalar_product_opIddEEKNS_9TransposeIKNS_5BlockIKNS_6MatrixIdLin1ELin1ELi0ELin1ELin1EEELi1ELin1ELb0EEEEEKNS6_IS9_Lin1ELi1ELb1EEEEEEC2Ev, symObjAddr: 0x3D80, symBinAddr: 0x1000062A4, symSize: 0x14 }
  - { offsetInCU: 0x49592, offset: 0x49592, size: 0x8, addend: 0x0, symName: __ZN5Eigen8internal17scalar_product_opIddEC2ERKS2_, symObjAddr: 0x3D94, symBinAddr: 0x1000062B8, symSize: 0x18 }
  - { offsetInCU: 0x495C7, offset: 0x495C7, size: 0x8, addend: 0x0, symName: __ZNK5Eigen7MapBaseINS_5BlockIKNS_6MatrixIdLin1ELin1ELi0ELin1ELin1EEELi1ELin1ELb0EEELi0EE4colsEv, symObjAddr: 0x3DAC, symBinAddr: 0x1000062D0, symSize: 0x28 }
  - { offsetInCU: 0x495ED, offset: 0x495ED, size: 0x8, addend: 0x0, symName: __ZNK5Eigen7MapBaseINS_5BlockIKNS_6MatrixIdLin1ELin1ELi0ELin1ELin1EEELi1ELin1ELb0EEELi0EE4rowsEv, symObjAddr: 0x3DD4, symBinAddr: 0x1000062F8, symSize: 0x30 }
  - { offsetInCU: 0x49613, offset: 0x49613, size: 0x8, addend: 0x0, symName: __ZN5Eigen8internal19variable_if_dynamicIlLi1EE5valueEv, symObjAddr: 0x3E04, symBinAddr: 0x100006328, symSize: 0x8 }
  - { offsetInCU: 0x49627, offset: 0x49627, size: 0x8, addend: 0x0, symName: __ZN5Eigen5BlockIKNS_6MatrixIdLin1ELin1ELi0ELin1ELin1EEELin1ELi1ELb1EEC1ERS3_l, symObjAddr: 0x3E0C, symBinAddr: 0x100006330, symSize: 0x3C }
  - { offsetInCU: 0x4966D, offset: 0x4966D, size: 0x8, addend: 0x0, symName: __ZN5Eigen5BlockIKNS_6MatrixIdLin1ELin1ELi0ELin1ELin1EEELin1ELi1ELb1EEC2ERS3_l, symObjAddr: 0x3E48, symBinAddr: 0x10000636C, symSize: 0xAC }
  - { offsetInCU: 0x496B3, offset: 0x496B3, size: 0x8, addend: 0x0, symName: __ZN5Eigen9BlockImplIKNS_6MatrixIdLin1ELin1ELi0ELin1ELin1EEELin1ELi1ELb1ENS_5DenseEEC2ERS3_l, symObjAddr: 0x3EF4, symBinAddr: 0x100006418, symSize: 0x3C }
  - { offsetInCU: 0x496F9, offset: 0x496F9, size: 0x8, addend: 0x0, symName: __ZN5Eigen8internal15BlockImpl_denseIKNS_6MatrixIdLin1ELin1ELi0ELin1ELin1EEELin1ELi1ELb1ELb1EEC2ERS4_l, symObjAddr: 0x3F30, symBinAddr: 0x100006454, symSize: 0xAC }
  - { offsetInCU: 0x49741, offset: 0x49741, size: 0x8, addend: 0x0, symName: __ZN5Eigen7MapBaseINS_5BlockIKNS_6MatrixIdLin1ELin1ELi0ELin1ELin1EEELin1ELi1ELb1EEELi0EEC2EPKdll, symObjAddr: 0x3FDC, symBinAddr: 0x100006500, symSize: 0x11C }
  - { offsetInCU: 0x49795, offset: 0x49795, size: 0x8, addend: 0x0, symName: __ZN5Eigen8internal15BlockImpl_denseIKNS_6MatrixIdLin1ELin1ELi0ELin1ELin1EEELin1ELi1ELb1ELb1EE4initEv, symObjAddr: 0x40F8, symBinAddr: 0x10000661C, symSize: 0x34 }
  - { offsetInCU: 0x497BB, offset: 0x497BB, size: 0x8, addend: 0x0, symName: __ZN5Eigen10MatrixBaseINS_5BlockIKNS_6MatrixIdLin1ELin1ELi0ELin1ELin1EEELin1ELi1ELb1EEEEC2Ev, symObjAddr: 0x412C, symBinAddr: 0x100006650, symSize: 0x2C }
  - { offsetInCU: 0x497E5, offset: 0x497E5, size: 0x8, addend: 0x0, symName: __ZNK5Eigen7MapBaseINS_5BlockIKNS_6MatrixIdLin1ELin1ELi0ELin1ELin1EEELin1ELi1ELb1EEELi0EE11checkSanityIS5_EEvNS_8internal9enable_ifIXeqsr8internal6traitsIT_EE9AlignmentLi0EEPvE4typeE, symObjAddr: 0x4158, symBinAddr: 0x10000667C, symSize: 0x14 }
  - { offsetInCU: 0x4981F, offset: 0x4981F, size: 0x8, addend: 0x0, symName: __ZN5Eigen9DenseBaseINS_5BlockIKNS_6MatrixIdLin1ELin1ELi0ELin1ELin1EEELin1ELi1ELb1EEEEC2Ev, symObjAddr: 0x416C, symBinAddr: 0x100006690, symSize: 0x14 }
  - { offsetInCU: 0x49849, offset: 0x49849, size: 0x8, addend: 0x0, symName: __ZNK5Eigen9EigenBaseINS_13CwiseBinaryOpINS_8internal17scalar_product_opIddEEKNS_9TransposeIKNS_5BlockIKNS_6MatrixIdLin1ELin1ELi0ELin1ELin1EEELi1ELin1ELb0EEEEEKNS6_IS9_Lin1ELi1ELb1EEEEEE4sizeEv, symObjAddr: 0x4180, symBinAddr: 0x1000066A4, symSize: 0x44 }
  - { offsetInCU: 0x4986F, offset: 0x4986F, size: 0x8, addend: 0x0, symName: __ZNK5Eigen9EigenBaseINS_13CwiseBinaryOpINS_8internal17scalar_product_opIddEEKNS_9TransposeIKNS_5BlockIKNS_6MatrixIdLin1ELin1ELi0ELin1ELin1EEELi1ELin1ELb0EEEEEKNS6_IS9_Lin1ELi1ELb1EEEEEE7derivedEv, symObjAddr: 0x41C4, symBinAddr: 0x1000066E8, symSize: 0x14 }
  - { offsetInCU: 0x498A9, offset: 0x498A9, size: 0x8, addend: 0x0, symName: __ZNK5Eigen9DenseBaseINS_13CwiseBinaryOpINS_8internal17scalar_product_opIddEEKNS_9TransposeIKNS_5BlockIKNS_6MatrixIdLin1ELin1ELi0ELin1ELin1EEELi1ELin1ELb0EEEEEKNS6_IS9_Lin1ELi1ELb1EEEEEE5reduxINS2_13scalar_sum_opIddEEEEdRKT_, symObjAddr: 0x41D8, symBinAddr: 0x1000066FC, symSize: 0x10C }
  - { offsetInCU: 0x49905, offset: 0x49905, size: 0x8, addend: 0x0, symName: __ZN5Eigen8internal13scalar_sum_opIddEC1Ev, symObjAddr: 0x42E4, symBinAddr: 0x100006808, symSize: 0x2C }
  - { offsetInCU: 0x4992F, offset: 0x4992F, size: 0x8, addend: 0x0, symName: __ZNK5Eigen9EigenBaseINS_13CwiseBinaryOpINS_8internal17scalar_product_opIddEEKNS_9TransposeIKNS_5BlockIKNS_6MatrixIdLin1ELin1ELi0ELin1ELin1EEELi1ELin1ELb0EEEEEKNS6_IS9_Lin1ELi1ELb1EEEEEE4rowsEv, symObjAddr: 0x4310, symBinAddr: 0x100006834, symSize: 0x38 }
  - { offsetInCU: 0x49955, offset: 0x49955, size: 0x8, addend: 0x0, symName: __ZNK5Eigen9EigenBaseINS_13CwiseBinaryOpINS_8internal17scalar_product_opIddEEKNS_9TransposeIKNS_5BlockIKNS_6MatrixIdLin1ELin1ELi0ELin1ELin1EEELi1ELin1ELb0EEEEEKNS6_IS9_Lin1ELi1ELb1EEEEEE4colsEv, symObjAddr: 0x4348, symBinAddr: 0x10000686C, symSize: 0x38 }
  - { offsetInCU: 0x4997B, offset: 0x4997B, size: 0x8, addend: 0x0, symName: __ZNK5Eigen13CwiseBinaryOpINS_8internal17scalar_product_opIddEEKNS_9TransposeIKNS_5BlockIKNS_6MatrixIdLin1ELin1ELi0ELin1ELin1EEELi1ELin1ELb0EEEEEKNS5_IS8_Lin1ELi1ELb1EEEE4rowsEv, symObjAddr: 0x4380, symBinAddr: 0x1000068A4, symSize: 0x28 }
  - { offsetInCU: 0x499A1, offset: 0x499A1, size: 0x8, addend: 0x0, symName: __ZNK5Eigen13CwiseBinaryOpINS_8internal17scalar_product_opIddEEKNS_9TransposeIKNS_5BlockIKNS_6MatrixIdLin1ELin1ELi0ELin1ELin1EEELi1ELin1ELb0EEEEEKNS5_IS8_Lin1ELi1ELb1EEEE4colsEv, symObjAddr: 0x43A8, symBinAddr: 0x1000068CC, symSize: 0x24 }
  - { offsetInCU: 0x49AA8, offset: 0x49AA8, size: 0x8, addend: 0x0, symName: __ZN5Eigen8internal15redux_evaluatorINS_13CwiseBinaryOpINS0_17scalar_product_opIddEEKNS_9TransposeIKNS_5BlockIKNS_6MatrixIdLin1ELin1ELi0ELin1ELin1EEELi1ELin1ELb0EEEEEKNS6_IS9_Lin1ELi1ELb1EEEEEEC1ERKSG_, symObjAddr: 0x43CC, symBinAddr: 0x1000068F0, symSize: 0x34 }
  - { offsetInCU: 0x49AE6, offset: 0x49AE6, size: 0x8, addend: 0x0, symName: __ZN5Eigen8internal10redux_implINS0_13scalar_sum_opIddEENS0_15redux_evaluatorINS_13CwiseBinaryOpINS0_17scalar_product_opIddEEKNS_9TransposeIKNS_5BlockIKNS_6MatrixIdLin1ELin1ELi0ELin1ELin1EEELi1ELin1ELb0EEEEEKNS9_ISC_Lin1ELi1ELb1EEEEEEELi0ELi0EE3runISJ_EEdRKSK_RKS3_RKT_, symObjAddr: 0x4400, symBinAddr: 0x100006924, symSize: 0x1E0 }
  - { offsetInCU: 0x49B91, offset: 0x49B91, size: 0x8, addend: 0x0, symName: __ZN5Eigen8internal15redux_evaluatorINS_13CwiseBinaryOpINS0_17scalar_product_opIddEEKNS_9TransposeIKNS_5BlockIKNS_6MatrixIdLin1ELin1ELi0ELin1ELin1EEELi1ELin1ELb0EEEEEKNS6_IS9_Lin1ELi1ELb1EEEEEED1Ev, symObjAddr: 0x45E0, symBinAddr: 0x100006B04, symSize: 0x2C }
  - { offsetInCU: 0x49BBE, offset: 0x49BBE, size: 0x8, addend: 0x0, symName: __ZN5Eigen8internal15redux_evaluatorINS_13CwiseBinaryOpINS0_17scalar_product_opIddEEKNS_9TransposeIKNS_5BlockIKNS_6MatrixIdLin1ELin1ELi0ELin1ELin1EEELi1ELin1ELb0EEEEEKNS6_IS9_Lin1ELi1ELb1EEEEEEC2ERKSG_, symObjAddr: 0x460C, symBinAddr: 0x100006B30, symSize: 0x34 }
  - { offsetInCU: 0x49BF7, offset: 0x49BF7, size: 0x8, addend: 0x0, symName: __ZN5Eigen8internal9evaluatorINS_13CwiseBinaryOpINS0_17scalar_product_opIddEEKNS_9TransposeIKNS_5BlockIKNS_6MatrixIdLin1ELin1ELi0ELin1ELin1EEELi1ELin1ELb0EEEEEKNS6_IS9_Lin1ELi1ELb1EEEEEEC2ERKSG_, symObjAddr: 0x4640, symBinAddr: 0x100006B64, symSize: 0x34 }
  - { offsetInCU: 0x49C30, offset: 0x49C30, size: 0x8, addend: 0x0, symName: __ZN5Eigen8internal16binary_evaluatorINS_13CwiseBinaryOpINS0_17scalar_product_opIddEEKNS_9TransposeIKNS_5BlockIKNS_6MatrixIdLin1ELin1ELi0ELin1ELin1EEELi1ELin1ELb0EEEEEKNS6_IS9_Lin1ELi1ELb1EEEEENS0_10IndexBasedESH_ddEC2ERKSG_, symObjAddr: 0x4674, symBinAddr: 0x100006B98, symSize: 0x64 }
  - { offsetInCU: 0x49C69, offset: 0x49C69, size: 0x8, addend: 0x0, symName: __ZN5Eigen8internal14evaluator_baseINS_13CwiseBinaryOpINS0_17scalar_product_opIddEEKNS_9TransposeIKNS_5BlockIKNS_6MatrixIdLin1ELin1ELi0ELin1ELin1EEELi1ELin1ELb0EEEEEKNS6_IS9_Lin1ELi1ELb1EEEEEEC2Ev, symObjAddr: 0x46D8, symBinAddr: 0x100006BFC, symSize: 0x14 }
  - { offsetInCU: 0x49C93, offset: 0x49C93, size: 0x8, addend: 0x0, symName: __ZN5Eigen8internal16binary_evaluatorINS_13CwiseBinaryOpINS0_17scalar_product_opIddEEKNS_9TransposeIKNS_5BlockIKNS_6MatrixIdLin1ELin1ELi0ELin1ELin1EEELi1ELin1ELb0EEEEEKNS6_IS9_Lin1ELi1ELb1EEEEENS0_10IndexBasedESH_ddE4DataC1ERKSG_, symObjAddr: 0x46EC, symBinAddr: 0x100006C10, symSize: 0x34 }
  - { offsetInCU: 0x49CCC, offset: 0x49CCC, size: 0x8, addend: 0x0, symName: __ZN5Eigen8internal14evaluator_baseINS_13CwiseBinaryOpINS0_17scalar_product_opIddEEKNS_9TransposeIKNS_5BlockIKNS_6MatrixIdLin1ELin1ELi0ELin1ELin1EEELi1ELin1ELb0EEEEEKNS6_IS9_Lin1ELi1ELb1EEEEEED2Ev, symObjAddr: 0x4720, symBinAddr: 0x100006C44, symSize: 0x14 }
  - { offsetInCU: 0x49CF6, offset: 0x49CF6, size: 0x8, addend: 0x0, symName: __ZN5Eigen8internal16binary_evaluatorINS_13CwiseBinaryOpINS0_17scalar_product_opIddEEKNS_9TransposeIKNS_5BlockIKNS_6MatrixIdLin1ELin1ELi0ELin1ELin1EEELi1ELin1ELb0EEEEEKNS6_IS9_Lin1ELi1ELb1EEEEENS0_10IndexBasedESH_ddE4DataC2ERKSG_, symObjAddr: 0x4734, symBinAddr: 0x100006C58, symSize: 0xA8 }
  - { offsetInCU: 0x49D2F, offset: 0x49D2F, size: 0x8, addend: 0x0, symName: __ZNK5Eigen13CwiseBinaryOpINS_8internal17scalar_product_opIddEEKNS_9TransposeIKNS_5BlockIKNS_6MatrixIdLin1ELin1ELi0ELin1ELin1EEELi1ELin1ELb0EEEEEKNS5_IS8_Lin1ELi1ELb1EEEE7functorEv, symObjAddr: 0x47DC, symBinAddr: 0x100006D00, symSize: 0x18 }
  - { offsetInCU: 0x49D55, offset: 0x49D55, size: 0x8, addend: 0x0, symName: __ZNK5Eigen13CwiseBinaryOpINS_8internal17scalar_product_opIddEEKNS_9TransposeIKNS_5BlockIKNS_6MatrixIdLin1ELin1ELi0ELin1ELin1EEELi1ELin1ELb0EEEEEKNS5_IS8_Lin1ELi1ELb1EEEE3lhsEv, symObjAddr: 0x47F4, symBinAddr: 0x100006D18, symSize: 0x14 }
  - { offsetInCU: 0x49D7B, offset: 0x49D7B, size: 0x8, addend: 0x0, symName: __ZN5Eigen8internal9evaluatorIKNS_9TransposeIKNS_5BlockIKNS_6MatrixIdLin1ELin1ELi0ELin1ELin1EEELi1ELin1ELb0EEEEEEC1ERSA_, symObjAddr: 0x4808, symBinAddr: 0x100006D2C, symSize: 0x34 }
  - { offsetInCU: 0x49DB3, offset: 0x49DB3, size: 0x8, addend: 0x0, symName: __ZNK5Eigen13CwiseBinaryOpINS_8internal17scalar_product_opIddEEKNS_9TransposeIKNS_5BlockIKNS_6MatrixIdLin1ELin1ELi0ELin1ELin1EEELi1ELin1ELb0EEEEEKNS5_IS8_Lin1ELi1ELb1EEEE3rhsEv, symObjAddr: 0x483C, symBinAddr: 0x100006D60, symSize: 0x18 }
  - { offsetInCU: 0x49DD9, offset: 0x49DD9, size: 0x8, addend: 0x0, symName: __ZN5Eigen8internal9evaluatorIKNS_5BlockIKNS_6MatrixIdLin1ELin1ELi0ELin1ELin1EEELin1ELi1ELb1EEEEC1ERS7_, symObjAddr: 0x4854, symBinAddr: 0x100006D78, symSize: 0x34 }
  - { offsetInCU: 0x49E11, offset: 0x49E11, size: 0x8, addend: 0x0, symName: __ZN5Eigen8internal9evaluatorIKNS_9TransposeIKNS_5BlockIKNS_6MatrixIdLin1ELin1ELi0ELin1ELin1EEELi1ELin1ELb0EEEEEED1Ev, symObjAddr: 0x4888, symBinAddr: 0x100006DAC, symSize: 0x2C }
  - { offsetInCU: 0x49E3D, offset: 0x49E3D, size: 0x8, addend: 0x0, symName: __ZN5Eigen8internal9evaluatorIKNS_9TransposeIKNS_5BlockIKNS_6MatrixIdLin1ELin1ELi0ELin1ELin1EEELi1ELin1ELb0EEEEEEC2ERSA_, symObjAddr: 0x48B4, symBinAddr: 0x100006DD8, symSize: 0x34 }
  - { offsetInCU: 0x49E75, offset: 0x49E75, size: 0x8, addend: 0x0, symName: __ZN5Eigen8internal9evaluatorINS_9TransposeIKNS_5BlockIKNS_6MatrixIdLin1ELin1ELi0ELin1ELin1EEELi1ELin1ELb0EEEEEEC2ERKS9_, symObjAddr: 0x48E8, symBinAddr: 0x100006E0C, symSize: 0x34 }
  - { offsetInCU: 0x49EAD, offset: 0x49EAD, size: 0x8, addend: 0x0, symName: __ZN5Eigen8internal15unary_evaluatorINS_9TransposeIKNS_5BlockIKNS_6MatrixIdLin1ELin1ELi0ELin1ELin1EEELi1ELin1ELb0EEEEENS0_10IndexBasedEdEC2ERKS9_, symObjAddr: 0x491C, symBinAddr: 0x100006E40, symSize: 0x74 }
  - { offsetInCU: 0x49EE6, offset: 0x49EE6, size: 0x8, addend: 0x0, symName: __ZN5Eigen8internal14evaluator_baseINS_9TransposeIKNS_5BlockIKNS_6MatrixIdLin1ELin1ELi0ELin1ELin1EEELi1ELin1ELb0EEEEEEC2Ev, symObjAddr: 0x4990, symBinAddr: 0x100006EB4, symSize: 0x14 }
  - { offsetInCU: 0x49F10, offset: 0x49F10, size: 0x8, addend: 0x0, symName: __ZNK5Eigen9TransposeIKNS_5BlockIKNS_6MatrixIdLin1ELin1ELi0ELin1ELin1EEELi1ELin1ELb0EEEE16nestedExpressionEv, symObjAddr: 0x49A4, symBinAddr: 0x100006EC8, symSize: 0x14 }
  - { offsetInCU: 0x49F36, offset: 0x49F36, size: 0x8, addend: 0x0, symName: __ZN5Eigen8internal9evaluatorIKNS_5BlockIKNS_6MatrixIdLin1ELin1ELi0ELin1ELin1EEELi1ELin1ELb0EEEEC1ERS7_, symObjAddr: 0x49B8, symBinAddr: 0x100006EDC, symSize: 0x34 }
  - { offsetInCU: 0x49F6E, offset: 0x49F6E, size: 0x8, addend: 0x0, symName: __ZN5Eigen8internal14evaluator_baseINS_9TransposeIKNS_5BlockIKNS_6MatrixIdLin1ELin1ELi0ELin1ELin1EEELi1ELin1ELb0EEEEEED2Ev, symObjAddr: 0x49EC, symBinAddr: 0x100006F10, symSize: 0x14 }
  - { offsetInCU: 0x49F98, offset: 0x49F98, size: 0x8, addend: 0x0, symName: __ZN5Eigen8internal9evaluatorIKNS_5BlockIKNS_6MatrixIdLin1ELin1ELi0ELin1ELin1EEELi1ELin1ELb0EEEEC2ERS7_, symObjAddr: 0x4A00, symBinAddr: 0x100006F24, symSize: 0x34 }
  - { offsetInCU: 0x49FD0, offset: 0x49FD0, size: 0x8, addend: 0x0, symName: __ZN5Eigen8internal9evaluatorINS_5BlockIKNS_6MatrixIdLin1ELin1ELi0ELin1ELin1EEELi1ELin1ELb0EEEEC2ERKS6_, symObjAddr: 0x4A34, symBinAddr: 0x100006F58, symSize: 0x34 }
  - { offsetInCU: 0x4A009, offset: 0x4A009, size: 0x8, addend: 0x0, symName: __ZN5Eigen8internal15block_evaluatorIKNS_6MatrixIdLin1ELin1ELi0ELin1ELin1EEELi1ELin1ELb0ELb1EEC2ERKNS_5BlockIS4_Li1ELin1ELb0EEE, symObjAddr: 0x4A68, symBinAddr: 0x100006F8C, symSize: 0xDC }
  - { offsetInCU: 0x4A042, offset: 0x4A042, size: 0x8, addend: 0x0, symName: __ZN5Eigen8internal17mapbase_evaluatorINS_5BlockIKNS_6MatrixIdLin1ELin1ELi0ELin1ELin1EEELi1ELin1ELb0EEENS3_IdLi1ELin1ELi1ELi1ELin1EEEEC2ERKS6_, symObjAddr: 0x4B44, symBinAddr: 0x100007068, symSize: 0xB0 }
  - { offsetInCU: 0x4A07B, offset: 0x4A07B, size: 0x8, addend: 0x0, symName: __ZNK5Eigen7MapBaseINS_5BlockIKNS_6MatrixIdLin1ELin1ELi0ELin1ELin1EEELi1ELin1ELb0EEELi0EE4dataEv, symObjAddr: 0x4BF4, symBinAddr: 0x100007118, symSize: 0x18 }
  - { offsetInCU: 0x4A0A1, offset: 0x4A0A1, size: 0x8, addend: 0x0, symName: __ZN5Eigen8internal17mapbase_evaluatorINS_5BlockIKNS_6MatrixIdLin1ELin1ELi0ELin1ELin1EEELi1ELin1ELb0EEENS3_IdLi1ELin1ELi1ELi1ELin1EEEED2Ev, symObjAddr: 0x4C0C, symBinAddr: 0x100007130, symSize: 0x2C }
  - { offsetInCU: 0x4A0CE, offset: 0x4A0CE, size: 0x8, addend: 0x0, symName: __ZN5Eigen8internal14evaluator_baseINS_5BlockIKNS_6MatrixIdLin1ELin1ELi0ELin1ELin1EEELi1ELin1ELb0EEEEC2Ev, symObjAddr: 0x4C38, symBinAddr: 0x10000715C, symSize: 0x14 }
  - { offsetInCU: 0x4A0F8, offset: 0x4A0F8, size: 0x8, addend: 0x0, symName: __ZNK5Eigen8internal15BlockImpl_denseIKNS_6MatrixIdLin1ELin1ELi0ELin1ELin1EEELi1ELin1ELb0ELb1EE11innerStrideEv, symObjAddr: 0x4C4C, symBinAddr: 0x100007170, symSize: 0x28 }
  - { offsetInCU: 0x4A11E, offset: 0x4A11E, size: 0x8, addend: 0x0, symName: __ZNK5Eigen8internal15BlockImpl_denseIKNS_6MatrixIdLin1ELin1ELi0ELin1ELin1EEELi1ELin1ELb0ELb1EE11outerStrideEv, symObjAddr: 0x4C74, symBinAddr: 0x100007198, symSize: 0x28 }
  - { offsetInCU: 0x4A144, offset: 0x4A144, size: 0x8, addend: 0x0, symName: __ZN5Eigen8internal14evaluator_baseINS_5BlockIKNS_6MatrixIdLin1ELin1ELi0ELin1ELin1EEELi1ELin1ELb0EEEED2Ev, symObjAddr: 0x4C9C, symBinAddr: 0x1000071C0, symSize: 0x14 }
  - { offsetInCU: 0x4A16E, offset: 0x4A16E, size: 0x8, addend: 0x0, symName: __ZN5Eigen8internal9evaluatorIKNS_5BlockIKNS_6MatrixIdLin1ELin1ELi0ELin1ELin1EEELin1ELi1ELb1EEEEC2ERS7_, symObjAddr: 0x4CB0, symBinAddr: 0x1000071D4, symSize: 0x34 }
  - { offsetInCU: 0x4A1A6, offset: 0x4A1A6, size: 0x8, addend: 0x0, symName: __ZN5Eigen8internal9evaluatorINS_5BlockIKNS_6MatrixIdLin1ELin1ELi0ELin1ELin1EEELin1ELi1ELb1EEEEC2ERKS6_, symObjAddr: 0x4CE4, symBinAddr: 0x100007208, symSize: 0x34 }
  - { offsetInCU: 0x4A1DF, offset: 0x4A1DF, size: 0x8, addend: 0x0, symName: __ZN5Eigen8internal15block_evaluatorIKNS_6MatrixIdLin1ELin1ELi0ELin1ELin1EEELin1ELi1ELb1ELb1EEC2ERKNS_5BlockIS4_Lin1ELi1ELb1EEE, symObjAddr: 0x4D18, symBinAddr: 0x10000723C, symSize: 0xDC }
  - { offsetInCU: 0x4A218, offset: 0x4A218, size: 0x8, addend: 0x0, symName: __ZN5Eigen8internal17mapbase_evaluatorINS_5BlockIKNS_6MatrixIdLin1ELin1ELi0ELin1ELin1EEELin1ELi1ELb1EEENS3_IdLin1ELi1ELi0ELin1ELi1EEEEC2ERKS6_, symObjAddr: 0x4DF4, symBinAddr: 0x100007318, symSize: 0xB0 }
  - { offsetInCU: 0x4A251, offset: 0x4A251, size: 0x8, addend: 0x0, symName: __ZNK5Eigen7MapBaseINS_5BlockIKNS_6MatrixIdLin1ELin1ELi0ELin1ELin1EEELin1ELi1ELb1EEELi0EE4dataEv, symObjAddr: 0x4EA4, symBinAddr: 0x1000073C8, symSize: 0x18 }
  - { offsetInCU: 0x4A277, offset: 0x4A277, size: 0x8, addend: 0x0, symName: __ZN5Eigen8internal17mapbase_evaluatorINS_5BlockIKNS_6MatrixIdLin1ELin1ELi0ELin1ELin1EEELin1ELi1ELb1EEENS3_IdLin1ELi1ELi0ELin1ELi1EEEED2Ev, symObjAddr: 0x4EBC, symBinAddr: 0x1000073E0, symSize: 0x2C }
  - { offsetInCU: 0x4A2A4, offset: 0x4A2A4, size: 0x8, addend: 0x0, symName: __ZN5Eigen8internal14evaluator_baseINS_5BlockIKNS_6MatrixIdLin1ELin1ELi0ELin1ELin1EEELin1ELi1ELb1EEEEC2Ev, symObjAddr: 0x4EE8, symBinAddr: 0x10000740C, symSize: 0x14 }
  - { offsetInCU: 0x4A2CE, offset: 0x4A2CE, size: 0x8, addend: 0x0, symName: __ZNK5Eigen8internal15BlockImpl_denseIKNS_6MatrixIdLin1ELin1ELi0ELin1ELin1EEELin1ELi1ELb1ELb1EE11innerStrideEv, symObjAddr: 0x4EFC, symBinAddr: 0x100007420, symSize: 0x28 }
  - { offsetInCU: 0x4A2F4, offset: 0x4A2F4, size: 0x8, addend: 0x0, symName: __ZNK5Eigen8internal15BlockImpl_denseIKNS_6MatrixIdLin1ELin1ELi0ELin1ELin1EEELin1ELi1ELb1ELb1EE11outerStrideEv, symObjAddr: 0x4F24, symBinAddr: 0x100007448, symSize: 0x28 }
  - { offsetInCU: 0x4A31A, offset: 0x4A31A, size: 0x8, addend: 0x0, symName: __ZN5Eigen8internal14evaluator_baseINS_5BlockIKNS_6MatrixIdLin1ELin1ELi0ELin1ELin1EEELin1ELi1ELb1EEEED2Ev, symObjAddr: 0x4F4C, symBinAddr: 0x100007470, symSize: 0x14 }
  - { offsetInCU: 0x4A344, offset: 0x4A344, size: 0x8, addend: 0x0, symName: __ZN5Eigen8internal9evaluatorIKNS_9TransposeIKNS_5BlockIKNS_6MatrixIdLin1ELin1ELi0ELin1ELin1EEELi1ELin1ELb0EEEEEED2Ev, symObjAddr: 0x4F60, symBinAddr: 0x100007484, symSize: 0x2C }
  - { offsetInCU: 0x4A370, offset: 0x4A370, size: 0x8, addend: 0x0, symName: __ZN5Eigen8internal9evaluatorINS_9TransposeIKNS_5BlockIKNS_6MatrixIdLin1ELin1ELi0ELin1ELin1EEELi1ELin1ELb0EEEEEED2Ev, symObjAddr: 0x4F8C, symBinAddr: 0x1000074B0, symSize: 0x2C }
  - { offsetInCU: 0x4A39C, offset: 0x4A39C, size: 0x8, addend: 0x0, symName: __ZN5Eigen8internal15unary_evaluatorINS_9TransposeIKNS_5BlockIKNS_6MatrixIdLin1ELin1ELi0ELin1ELin1EEELi1ELin1ELb0EEEEENS0_10IndexBasedEdED2Ev, symObjAddr: 0x4FB8, symBinAddr: 0x1000074DC, symSize: 0x34 }
  - { offsetInCU: 0x4A3C8, offset: 0x4A3C8, size: 0x8, addend: 0x0, symName: __ZN5Eigen8internal9evaluatorIKNS_5BlockIKNS_6MatrixIdLin1ELin1ELi0ELin1ELin1EEELi1ELin1ELb0EEEED1Ev, symObjAddr: 0x4FEC, symBinAddr: 0x100007510, symSize: 0x2C }
  - { offsetInCU: 0x4A3F4, offset: 0x4A3F4, size: 0x8, addend: 0x0, symName: __ZN5Eigen8internal9evaluatorIKNS_5BlockIKNS_6MatrixIdLin1ELin1ELi0ELin1ELin1EEELi1ELin1ELb0EEEED2Ev, symObjAddr: 0x5018, symBinAddr: 0x10000753C, symSize: 0x2C }
  - { offsetInCU: 0x4A420, offset: 0x4A420, size: 0x8, addend: 0x0, symName: __ZN5Eigen8internal9evaluatorINS_5BlockIKNS_6MatrixIdLin1ELin1ELi0ELin1ELin1EEELi1ELin1ELb0EEEED2Ev, symObjAddr: 0x5044, symBinAddr: 0x100007568, symSize: 0x2C }
  - { offsetInCU: 0x4A44D, offset: 0x4A44D, size: 0x8, addend: 0x0, symName: __ZN5Eigen8internal15block_evaluatorIKNS_6MatrixIdLin1ELin1ELi0ELin1ELin1EEELi1ELin1ELb0ELb1EED2Ev, symObjAddr: 0x5070, symBinAddr: 0x100007594, symSize: 0x2C }
  - { offsetInCU: 0x4A47A, offset: 0x4A47A, size: 0x8, addend: 0x0, symName: __ZNK5Eigen8internal15redux_evaluatorINS_13CwiseBinaryOpINS0_17scalar_product_opIddEEKNS_9TransposeIKNS_5BlockIKNS_6MatrixIdLin1ELin1ELi0ELin1ELin1EEELi1ELin1ELb0EEEEEKNS6_IS9_Lin1ELi1ELb1EEEEEE17coeffByOuterInnerEll, symObjAddr: 0x509C, symBinAddr: 0x1000075C0, symSize: 0x34 }
  - { offsetInCU: 0x4A4BE, offset: 0x4A4BE, size: 0x8, addend: 0x0, symName: __ZNK5Eigen9DenseBaseINS_13CwiseBinaryOpINS_8internal17scalar_product_opIddEEKNS_9TransposeIKNS_5BlockIKNS_6MatrixIdLin1ELin1ELi0ELin1ELin1EEELi1ELin1ELb0EEEEEKNS6_IS9_Lin1ELi1ELb1EEEEEE9innerSizeEv, symObjAddr: 0x50D0, symBinAddr: 0x1000075F4, symSize: 0x24 }
  - { offsetInCU: 0x4A4E4, offset: 0x4A4E4, size: 0x8, addend: 0x0, symName: __ZNK5Eigen8internal13scalar_sum_opIddEclERKdS4_, symObjAddr: 0x50F4, symBinAddr: 0x100007618, symSize: 0x2C }
  - { offsetInCU: 0x4A526, offset: 0x4A526, size: 0x8, addend: 0x0, symName: __ZNK5Eigen9DenseBaseINS_13CwiseBinaryOpINS_8internal17scalar_product_opIddEEKNS_9TransposeIKNS_5BlockIKNS_6MatrixIdLin1ELin1ELi0ELin1ELin1EEELi1ELin1ELb0EEEEEKNS6_IS9_Lin1ELi1ELb1EEEEEE9outerSizeEv, symObjAddr: 0x5120, symBinAddr: 0x100007644, symSize: 0x14 }
  - { offsetInCU: 0x4A54C, offset: 0x4A54C, size: 0x8, addend: 0x0, symName: __ZNK5Eigen8internal16binary_evaluatorINS_13CwiseBinaryOpINS0_17scalar_product_opIddEEKNS_9TransposeIKNS_5BlockIKNS_6MatrixIdLin1ELin1ELi0ELin1ELin1EEELi1ELin1ELb0EEEEEKNS6_IS9_Lin1ELi1ELb1EEEEENS0_10IndexBasedESH_ddE5coeffEll, symObjAddr: 0x5134, symBinAddr: 0x100007658, symSize: 0x7C }
  - { offsetInCU: 0x4A590, offset: 0x4A590, size: 0x8, addend: 0x0, symName: __ZNK5Eigen8internal16binary_evaluatorINS_13CwiseBinaryOpINS0_17scalar_product_opIddEEKNS_9TransposeIKNS_5BlockIKNS_6MatrixIdLin1ELin1ELi0ELin1ELin1EEELi1ELin1ELb0EEEEEKNS6_IS9_Lin1ELi1ELb1EEEEENS0_10IndexBasedESH_ddE4Data4funcEv, symObjAddr: 0x51B0, symBinAddr: 0x1000076D4, symSize: 0x14 }
  - { offsetInCU: 0x4A5B6, offset: 0x4A5B6, size: 0x8, addend: 0x0, symName: __ZNK5Eigen8internal17scalar_product_opIddEclERKdS4_, symObjAddr: 0x51C4, symBinAddr: 0x1000076E8, symSize: 0x2C }
  - { offsetInCU: 0x4A5F8, offset: 0x4A5F8, size: 0x8, addend: 0x0, symName: __ZNK5Eigen8internal15unary_evaluatorINS_9TransposeIKNS_5BlockIKNS_6MatrixIdLin1ELin1ELi0ELin1ELin1EEELi1ELin1ELb0EEEEENS0_10IndexBasedEdE5coeffEll, symObjAddr: 0x51F0, symBinAddr: 0x100007714, symSize: 0x34 }
  - { offsetInCU: 0x4A63C, offset: 0x4A63C, size: 0x8, addend: 0x0, symName: __ZNK5Eigen8internal17mapbase_evaluatorINS_5BlockIKNS_6MatrixIdLin1ELin1ELi0ELin1ELin1EEELin1ELi1ELb1EEENS3_IdLin1ELi1ELi0ELin1ELi1EEEE5coeffEll, symObjAddr: 0x5224, symBinAddr: 0x100007748, symSize: 0x78 }
  - { offsetInCU: 0x4A680, offset: 0x4A680, size: 0x8, addend: 0x0, symName: __ZNK5Eigen8internal17mapbase_evaluatorINS_5BlockIKNS_6MatrixIdLin1ELin1ELi0ELin1ELin1EEELi1ELin1ELb0EEENS3_IdLi1ELin1ELi1ELi1ELin1EEEE5coeffEll, symObjAddr: 0x529C, symBinAddr: 0x1000077C0, symSize: 0x78 }
  - { offsetInCU: 0x4A6C4, offset: 0x4A6C4, size: 0x8, addend: 0x0, symName: __ZNK5Eigen8internal17mapbase_evaluatorINS_5BlockIKNS_6MatrixIdLin1ELin1ELi0ELin1ELin1EEELi1ELin1ELb0EEENS3_IdLi1ELin1ELi1ELi1ELin1EEEE9colStrideEv, symObjAddr: 0x5314, symBinAddr: 0x100007838, symSize: 0x28 }
  - { offsetInCU: 0x4A6EA, offset: 0x4A6EA, size: 0x8, addend: 0x0, symName: __ZNK5Eigen8internal17mapbase_evaluatorINS_5BlockIKNS_6MatrixIdLin1ELin1ELi0ELin1ELin1EEELi1ELin1ELb0EEENS3_IdLi1ELin1ELi1ELi1ELin1EEEE9rowStrideEv, symObjAddr: 0x533C, symBinAddr: 0x100007860, symSize: 0x20 }
  - { offsetInCU: 0x4A710, offset: 0x4A710, size: 0x8, addend: 0x0, symName: __ZNK5Eigen8internal17mapbase_evaluatorINS_5BlockIKNS_6MatrixIdLin1ELin1ELi0ELin1ELin1EEELin1ELi1ELb1EEENS3_IdLin1ELi1ELi0ELin1ELi1EEEE9colStrideEv, symObjAddr: 0x535C, symBinAddr: 0x100007880, symSize: 0x28 }
  - { offsetInCU: 0x4A736, offset: 0x4A736, size: 0x8, addend: 0x0, symName: __ZNK5Eigen8internal17mapbase_evaluatorINS_5BlockIKNS_6MatrixIdLin1ELin1ELi0ELin1ELin1EEELin1ELi1ELb1EEENS3_IdLin1ELi1ELi0ELin1ELi1EEEE9rowStrideEv, symObjAddr: 0x5384, symBinAddr: 0x1000078A8, symSize: 0x20 }
  - { offsetInCU: 0x4A75C, offset: 0x4A75C, size: 0x8, addend: 0x0, symName: __ZN5Eigen8internal15redux_evaluatorINS_13CwiseBinaryOpINS0_17scalar_product_opIddEEKNS_9TransposeIKNS_5BlockIKNS_6MatrixIdLin1ELin1ELi0ELin1ELin1EEELi1ELin1ELb0EEEEEKNS6_IS9_Lin1ELi1ELb1EEEEEED2Ev, symObjAddr: 0x53A4, symBinAddr: 0x1000078C8, symSize: 0x2C }
  - { offsetInCU: 0x4A789, offset: 0x4A789, size: 0x8, addend: 0x0, symName: __ZN5Eigen8internal9evaluatorINS_13CwiseBinaryOpINS0_17scalar_product_opIddEEKNS_9TransposeIKNS_5BlockIKNS_6MatrixIdLin1ELin1ELi0ELin1ELin1EEELi1ELin1ELb0EEEEEKNS6_IS9_Lin1ELi1ELb1EEEEEED2Ev, symObjAddr: 0x53D0, symBinAddr: 0x1000078F4, symSize: 0x2C }
  - { offsetInCU: 0x4A7B6, offset: 0x4A7B6, size: 0x8, addend: 0x0, symName: __ZN5Eigen8internal16binary_evaluatorINS_13CwiseBinaryOpINS0_17scalar_product_opIddEEKNS_9TransposeIKNS_5BlockIKNS_6MatrixIdLin1ELin1ELi0ELin1ELin1EEELi1ELin1ELb0EEEEEKNS6_IS9_Lin1ELi1ELb1EEEEENS0_10IndexBasedESH_ddED2Ev, symObjAddr: 0x53FC, symBinAddr: 0x100007920, symSize: 0x34 }
  - { offsetInCU: 0x4A7E2, offset: 0x4A7E2, size: 0x8, addend: 0x0, symName: __ZN5Eigen8internal16binary_evaluatorINS_13CwiseBinaryOpINS0_17scalar_product_opIddEEKNS_9TransposeIKNS_5BlockIKNS_6MatrixIdLin1ELin1ELi0ELin1ELin1EEELi1ELin1ELb0EEEEEKNS6_IS9_Lin1ELi1ELb1EEEEENS0_10IndexBasedESH_ddE4DataD1Ev, symObjAddr: 0x5430, symBinAddr: 0x100007954, symSize: 0x2C }
  - { offsetInCU: 0x4A80F, offset: 0x4A80F, size: 0x8, addend: 0x0, symName: __ZN5Eigen8internal16binary_evaluatorINS_13CwiseBinaryOpINS0_17scalar_product_opIddEEKNS_9TransposeIKNS_5BlockIKNS_6MatrixIdLin1ELin1ELi0ELin1ELin1EEELi1ELin1ELb0EEEEEKNS6_IS9_Lin1ELi1ELb1EEEEENS0_10IndexBasedESH_ddE4DataD2Ev, symObjAddr: 0x545C, symBinAddr: 0x100007980, symSize: 0x3C }
  - { offsetInCU: 0x4A83C, offset: 0x4A83C, size: 0x8, addend: 0x0, symName: __ZN5Eigen8internal9evaluatorIKNS_5BlockIKNS_6MatrixIdLin1ELin1ELi0ELin1ELin1EEELin1ELi1ELb1EEEED1Ev, symObjAddr: 0x5498, symBinAddr: 0x1000079BC, symSize: 0x2C }
  - { offsetInCU: 0x4A868, offset: 0x4A868, size: 0x8, addend: 0x0, symName: __ZN5Eigen8internal9evaluatorIKNS_5BlockIKNS_6MatrixIdLin1ELin1ELi0ELin1ELin1EEELin1ELi1ELb1EEEED2Ev, symObjAddr: 0x54C4, symBinAddr: 0x1000079E8, symSize: 0x2C }
  - { offsetInCU: 0x4A894, offset: 0x4A894, size: 0x8, addend: 0x0, symName: __ZN5Eigen8internal9evaluatorINS_5BlockIKNS_6MatrixIdLin1ELin1ELi0ELin1ELin1EEELin1ELi1ELb1EEEED2Ev, symObjAddr: 0x54F0, symBinAddr: 0x100007A14, symSize: 0x2C }
  - { offsetInCU: 0x4A8C1, offset: 0x4A8C1, size: 0x8, addend: 0x0, symName: __ZN5Eigen8internal15block_evaluatorIKNS_6MatrixIdLin1ELin1ELi0ELin1ELin1EEELin1ELi1ELb1ELb1EED2Ev, symObjAddr: 0x551C, symBinAddr: 0x100007A40, symSize: 0x2C }
  - { offsetInCU: 0x4A8EE, offset: 0x4A8EE, size: 0x8, addend: 0x0, symName: __ZN5Eigen8internal13scalar_sum_opIddEC2Ev, symObjAddr: 0x5548, symBinAddr: 0x100007A6C, symSize: 0x14 }
  - { offsetInCU: 0x4A918, offset: 0x4A918, size: 0x8, addend: 0x0, symName: __ZN5Eigen8internal31generic_dense_assignment_kernelINS0_9evaluatorINS_6MatrixIdLin1ELin1ELi0ELin1ELin1EEEEENS2_INS_7ProductIS4_S4_Li1EEEEENS0_9assign_opIddEELi1EE12assignPacketILi16ELi0E19__simd128_float64_tEEvll, symObjAddr: 0x555C, symBinAddr: 0x100007A80, symSize: 0x70 }
  - { offsetInCU: 0x4A979, offset: 0x4A979, size: 0x8, addend: 0x0, symName: __ZNK5Eigen8internal9assign_opIddE12assignPacketILi16E19__simd128_float64_tEEvPdRKT0_, symObjAddr: 0x55CC, symBinAddr: 0x100007AF0, symSize: 0x40 }
  - { offsetInCU: 0x4A9F3, offset: 0x4A9F3, size: 0x8, addend: 0x0, symName: __ZNK5Eigen8internal17product_evaluatorINS_7ProductINS_6MatrixIdLin1ELin1ELi0ELin1ELin1EEES4_Li1EEELi8ENS_10DenseShapeES6_ddE6packetILi0E19__simd128_float64_tEEKT0_ll, symObjAddr: 0x560C, symBinAddr: 0x100007B30, symSize: 0x48 }
  - { offsetInCU: 0x4AA68, offset: 0x4AA68, size: 0x8, addend: 0x0, symName: __ZN5Eigen8internal24etor_product_packet_implILi0ELin1ENS0_9evaluatorINS_6MatrixIdLin1ELin1ELi0ELin1ELin1EEEEES5_19__simd128_float64_tLi0EE3runEllRKS5_S9_lRS6_, symObjAddr: 0x5680, symBinAddr: 0x100007BA4, symSize: 0xC8 }
  - { offsetInCU: 0x4AAFE, offset: 0x4AAFE, size: 0x8, addend: 0x0, symName: __ZNK5Eigen8internal9evaluatorINS_15PlainObjectBaseINS_6MatrixIdLin1ELin1ELi0ELin1ELin1EEEEEE6packetILi0E19__simd128_float64_tEET0_ll, symObjAddr: 0x57E0, symBinAddr: 0x100007D04, symSize: 0x60 }
  - { offsetInCU: 0x4AB70, offset: 0x4AB70, size: 0x8, addend: 0x0, symName: __ZNK5Eigen8internal9evaluatorINS_15PlainObjectBaseINS_6MatrixIdLin1ELin1ELi0ELin1ELin1EEEEEE5coeffEll, symObjAddr: 0x5840, symBinAddr: 0x100007D64, symSize: 0x5C }
  - { offsetInCU: 0x4ABBC, offset: 0x4ABBC, size: 0x8, addend: 0x0, symName: __ZNKSt3__16__lessIvvEclB8ue170006IllEEbRKT_RKT0_, symObjAddr: 0x5944, symBinAddr: 0x100007E68, symSize: 0x34 }
  - { offsetInCU: 0x4AC10, offset: 0x4AC10, size: 0x8, addend: 0x0, symName: __ZN5Eigen8internal9evaluatorINS_7ProductINS_6MatrixIdLin1ELin1ELi0ELin1ELin1EEES4_Li1EEEED2Ev, symObjAddr: 0x5978, symBinAddr: 0x100007E9C, symSize: 0x2C }
  - { offsetInCU: 0x4AC3C, offset: 0x4AC3C, size: 0x8, addend: 0x0, symName: __ZN5Eigen8internal17product_evaluatorINS_7ProductINS_6MatrixIdLin1ELin1ELi0ELin1ELin1EEES4_Li1EEELi8ENS_10DenseShapeES6_ddED2Ev, symObjAddr: 0x59A4, symBinAddr: 0x100007EC8, symSize: 0x44 }
  - { offsetInCU: 0x4AC68, offset: 0x4AC68, size: 0x8, addend: 0x0, symName: __ZN5Eigen7ProductINS_6MatrixIdLin1ELin1ELi0ELin1ELin1EEES2_Li1EEC1ERKS2_S5_, symObjAddr: 0x59E8, symBinAddr: 0x100007F0C, symSize: 0x3C }
  - { offsetInCU: 0x4ACAE, offset: 0x4ACAE, size: 0x8, addend: 0x0, symName: __ZN5Eigen7ProductINS_6MatrixIdLin1ELin1ELi0ELin1ELin1EEES2_Li1EEC2ERKS2_S5_, symObjAddr: 0x5A24, symBinAddr: 0x100007F48, symSize: 0xC0 }
  - { offsetInCU: 0x4ACF9, offset: 0x4ACF9, size: 0x8, addend: 0x0, symName: __ZN5Eigen11ProductImplINS_6MatrixIdLin1ELin1ELi0ELin1ELin1EEES2_Li1ENS_5DenseEEC2Ev, symObjAddr: 0x5AE4, symBinAddr: 0x100008008, symSize: 0x2C }
  - { offsetInCU: 0x4AD2A, offset: 0x4AD2A, size: 0x8, addend: 0x0, symName: __ZN5Eigen8internal18dense_product_baseINS_6MatrixIdLin1ELin1ELi0ELin1ELin1EEES3_Li1ELi8EEC2Ev, symObjAddr: 0x5B10, symBinAddr: 0x100008034, symSize: 0x2C }
  - { offsetInCU: 0x4AD56, offset: 0x4AD56, size: 0x8, addend: 0x0, symName: __ZN5Eigen10MatrixBaseINS_7ProductINS_6MatrixIdLin1ELin1ELi0ELin1ELin1EEES3_Li1EEEEC2Ev, symObjAddr: 0x5B3C, symBinAddr: 0x100008060, symSize: 0x2C }
  - { offsetInCU: 0x4AD80, offset: 0x4AD80, size: 0x8, addend: 0x0, symName: __ZN5Eigen9DenseBaseINS_7ProductINS_6MatrixIdLin1ELin1ELi0ELin1ELin1EEES3_Li1EEEEC2Ev, symObjAddr: 0x5B68, symBinAddr: 0x10000808C, symSize: 0x14 }
  - { offsetInCU: 0x4ADAA, offset: 0x4ADAA, size: 0x8, addend: 0x0, symName: __ZN5Eigen9DenseBaseINS_6MatrixIdLin1ELin1ELi0ELin1ELin1EEEE11setConstantERKd, symObjAddr: 0x5B7C, symBinAddr: 0x1000080A0, symSize: 0x64 }
  - { offsetInCU: 0x4ADE2, offset: 0x4ADE2, size: 0x8, addend: 0x0, symName: __ZN5Eigen9DenseBaseINS_6MatrixIdLin1ELin1ELi0ELin1ELin1EEEE8ConstantEllRKd, symObjAddr: 0x5BE0, symBinAddr: 0x100008104, symSize: 0x60 }
  - { offsetInCU: 0x4AE26, offset: 0x4AE26, size: 0x8, addend: 0x0, symName: __ZN5Eigen6MatrixIdLin1ELin1ELi0ELin1ELin1EEaSINS_14CwiseNullaryOpINS_8internal18scalar_constant_opIdEES1_EEEERS1_RKNS_9DenseBaseIT_EE, symObjAddr: 0x5C40, symBinAddr: 0x100008164, symSize: 0x2C }
  - { offsetInCU: 0x4AE63, offset: 0x4AE63, size: 0x8, addend: 0x0, symName: __ZN5Eigen9DenseBaseINS_6MatrixIdLin1ELin1ELi0ELin1ELin1EEEE11NullaryExprINS_8internal18scalar_constant_opIdEEEEKNS_14CwiseNullaryOpIT_S2_EEllRKS9_, symObjAddr: 0x5C6C, symBinAddr: 0x100008190, symSize: 0x48 }
  - { offsetInCU: 0x4AEB0, offset: 0x4AEB0, size: 0x8, addend: 0x0, symName: __ZN5Eigen8internal18scalar_constant_opIdEC1ERKd, symObjAddr: 0x5CB4, symBinAddr: 0x1000081D8, symSize: 0x34 }
  - { offsetInCU: 0x4AEE8, offset: 0x4AEE8, size: 0x8, addend: 0x0, symName: __ZN5Eigen14CwiseNullaryOpINS_8internal18scalar_constant_opIdEENS_6MatrixIdLin1ELin1ELi0ELin1ELin1EEEEC1EllRKS3_, symObjAddr: 0x5CE8, symBinAddr: 0x10000820C, symSize: 0x44 }
  - { offsetInCU: 0x4AF3C, offset: 0x4AF3C, size: 0x8, addend: 0x0, symName: __ZN5Eigen14CwiseNullaryOpINS_8internal18scalar_constant_opIdEENS_6MatrixIdLin1ELin1ELi0ELin1ELin1EEEEC2EllRKS3_, symObjAddr: 0x5D2C, symBinAddr: 0x100008250, symSize: 0xDC }
  - { offsetInCU: 0x4AF90, offset: 0x4AF90, size: 0x8, addend: 0x0, symName: __ZN5Eigen10MatrixBaseINS_14CwiseNullaryOpINS_8internal18scalar_constant_opIdEENS_6MatrixIdLin1ELin1ELi0ELin1ELin1EEEEEEC2Ev, symObjAddr: 0x5E08, symBinAddr: 0x10000832C, symSize: 0x2C }
  - { offsetInCU: 0x4AFBA, offset: 0x4AFBA, size: 0x8, addend: 0x0, symName: __ZN5Eigen8internal18scalar_constant_opIdEC1ERKS2_, symObjAddr: 0x5E34, symBinAddr: 0x100008358, symSize: 0x34 }
  - { offsetInCU: 0x4AFF2, offset: 0x4AFF2, size: 0x8, addend: 0x0, symName: __ZN5Eigen9DenseBaseINS_14CwiseNullaryOpINS_8internal18scalar_constant_opIdEENS_6MatrixIdLin1ELin1ELi0ELin1ELin1EEEEEEC2Ev, symObjAddr: 0x5E68, symBinAddr: 0x10000838C, symSize: 0x14 }
  - { offsetInCU: 0x4B01C, offset: 0x4B01C, size: 0x8, addend: 0x0, symName: __ZN5Eigen8internal18scalar_constant_opIdEC2ERKS2_, symObjAddr: 0x5E7C, symBinAddr: 0x1000083A0, symSize: 0x24 }
  - { offsetInCU: 0x4B054, offset: 0x4B054, size: 0x8, addend: 0x0, symName: __ZN5Eigen8internal18scalar_constant_opIdEC2ERKd, symObjAddr: 0x5EA0, symBinAddr: 0x1000083C4, symSize: 0x24 }
  - { offsetInCU: 0x4B08C, offset: 0x4B08C, size: 0x8, addend: 0x0, symName: __ZN5Eigen15PlainObjectBaseINS_6MatrixIdLin1ELin1ELi0ELin1ELin1EEEE4_setINS_14CwiseNullaryOpINS_8internal18scalar_constant_opIdEES2_EEEERS2_RKNS_9DenseBaseIT_EE, symObjAddr: 0x5EC4, symBinAddr: 0x1000083E8, symSize: 0x4C }
  - { offsetInCU: 0x4B0CA, offset: 0x4B0CA, size: 0x8, addend: 0x0, symName: __ZNK5Eigen9EigenBaseINS_14CwiseNullaryOpINS_8internal18scalar_constant_opIdEENS_6MatrixIdLin1ELin1ELi0ELin1ELin1EEEEEE7derivedEv, symObjAddr: 0x5F60, symBinAddr: 0x100008484, symSize: 0x14 }
  - { offsetInCU: 0x4B0F0, offset: 0x4B0F0, size: 0x8, addend: 0x0, symName: __ZN5Eigen8internal10AssignmentINS_6MatrixIdLin1ELin1ELi0ELin1ELin1EEENS_14CwiseNullaryOpINS0_18scalar_constant_opIdEES3_EENS0_9assign_opIddEENS0_11Dense2DenseEvE3runERS3_RKS7_RKS9_, symObjAddr: 0x5FE8, symBinAddr: 0x10000850C, symSize: 0x40 }
  - { offsetInCU: 0x4B132, offset: 0x4B132, size: 0x8, addend: 0x0, symName: __ZN5Eigen8internal27checkTransposeAliasing_implINS_6MatrixIdLin1ELin1ELi0ELin1ELin1EEENS_14CwiseNullaryOpINS0_18scalar_constant_opIdEES3_EELb0EE3runERKS3_RKS7_, symObjAddr: 0x60F4, symBinAddr: 0x100008618, symSize: 0x14 }
  - { offsetInCU: 0x4B15D, offset: 0x4B15D, size: 0x8, addend: 0x0, symName: __ZNK5Eigen14CwiseNullaryOpINS_8internal18scalar_constant_opIdEENS_6MatrixIdLin1ELin1ELi0ELin1ELin1EEEE7functorEv, symObjAddr: 0x6244, symBinAddr: 0x100008768, symSize: 0x18 }
  - { offsetInCU: 0x4B183, offset: 0x4B183, size: 0x8, addend: 0x0, symName: __ZNK5Eigen8internal18scalar_constant_opIdEclEv, symObjAddr: 0x625C, symBinAddr: 0x100008780, symSize: 0x18 }
  - { offsetInCU: 0x4B1A9, offset: 0x4B1A9, size: 0x8, addend: 0x0, symName: __ZNK5Eigen14CwiseNullaryOpINS_8internal18scalar_constant_opIdEENS_6MatrixIdLin1ELin1ELi0ELin1ELin1EEEE4rowsEv, symObjAddr: 0x6274, symBinAddr: 0x100008798, symSize: 0x24 }
  - { offsetInCU: 0x4B1CF, offset: 0x4B1CF, size: 0x8, addend: 0x0, symName: __ZNK5Eigen14CwiseNullaryOpINS_8internal18scalar_constant_opIdEENS_6MatrixIdLin1ELin1ELi0ELin1ELin1EEEE4colsEv, symObjAddr: 0x6298, symBinAddr: 0x1000087BC, symSize: 0x28 }
  - { offsetInCU: 0x4B1F5, offset: 0x4B1F5, size: 0x8, addend: 0x0, symName: __ZN5Eigen9DenseBaseINS_6MatrixIdLin1ELin1ELi0ELin1ELin1EEEE3colEl, symObjAddr: 0x6338, symBinAddr: 0x10000885C, symSize: 0x3C }
  - { offsetInCU: 0x4B3E7, offset: 0x4B3E7, size: 0x8, addend: 0x0, symName: __ZN5Eigen8internal20generic_product_implINS_6MatrixIdLin1ELin1ELi0ELin1ELin1EEEKNS_5BlockIKS3_Lin1ELi1ELb1EEENS_10DenseShapeES8_Li7EE13scaleAndAddToINS4_IS3_Lin1ELi1ELb1EEEEEvRT_RS5_RS7_RKd, symObjAddr: 0x6374, symBinAddr: 0x100008898, symSize: 0x110 }
  - { offsetInCU: 0x4B461, offset: 0x4B461, size: 0x8, addend: 0x0, symName: __ZN5Eigen9DenseBaseINS_6MatrixIdLin1ELin1ELi0ELin1ELin1EEEE3rowEl, symObjAddr: 0x6484, symBinAddr: 0x1000089A8, symSize: 0x3C }
  - { offsetInCU: 0x4B653, offset: 0x4B653, size: 0x8, addend: 0x0, symName: __ZN5Eigen8internal20generic_product_implIKNS_5BlockIKNS_6MatrixIdLin1ELin1ELi0ELin1ELin1EEELi1ELin1ELb0EEES4_NS_10DenseShapeES8_Li7EE13scaleAndAddToINS2_IS4_Li1ELin1ELb0EEEEEvRT_RS7_RS5_RKd, symObjAddr: 0x64C0, symBinAddr: 0x1000089E4, symSize: 0x110 }
  - { offsetInCU: 0x4B6EB, offset: 0x4B6EB, size: 0x8, addend: 0x0, symName: __ZN5Eigen8internal19gemm_blocking_spaceILi0EddLin1ELin1ELin1ELi1ELb0EEC1Ellllb, symObjAddr: 0x65D0, symBinAddr: 0x100008AF4, symSize: 0x60 }
  - { offsetInCU: 0x4B783, offset: 0x4B783, size: 0x8, addend: 0x0, symName: __ZN5Eigen8internal12gemm_functorIdlNS0_29general_matrix_matrix_productIldLi0ELb0EdLi0ELb0ELi0ELi1EEENS_6MatrixIdLin1ELin1ELi0ELin1ELin1EEES5_S5_NS0_19gemm_blocking_spaceILi0EddLin1ELin1ELin1ELi1ELb0EEEEC1ERKS5_SA_RS5_RKdRS7_, symObjAddr: 0x6694, symBinAddr: 0x100008BB8, symSize: 0x54 }
  - { offsetInCU: 0x4B7F3, offset: 0x4B7F3, size: 0x8, addend: 0x0, symName: __ZN5Eigen8internal19gemm_blocking_spaceILi0EddLin1ELin1ELin1ELi1ELb0EED1Ev, symObjAddr: 0x66E8, symBinAddr: 0x100008C0C, symSize: 0x2C }
  - { offsetInCU: 0x4B81D, offset: 0x4B81D, size: 0x8, addend: 0x0, symName: __ZN5Eigen5BlockINS_6MatrixIdLin1ELin1ELi0ELin1ELin1EEELin1ELi1ELb1EEC1ERS2_l, symObjAddr: 0x6714, symBinAddr: 0x100008C38, symSize: 0x3C }
  - { offsetInCU: 0x4B863, offset: 0x4B863, size: 0x8, addend: 0x0, symName: __ZN5Eigen5BlockINS_6MatrixIdLin1ELin1ELi0ELin1ELin1EEELin1ELi1ELb1EEC2ERS2_l, symObjAddr: 0x6750, symBinAddr: 0x100008C74, symSize: 0xAC }
  - { offsetInCU: 0x4B8A9, offset: 0x4B8A9, size: 0x8, addend: 0x0, symName: __ZN5Eigen9BlockImplINS_6MatrixIdLin1ELin1ELi0ELin1ELin1EEELin1ELi1ELb1ENS_5DenseEEC2ERS2_l, symObjAddr: 0x67FC, symBinAddr: 0x100008D20, symSize: 0x3C }
  - { offsetInCU: 0x4B8EF, offset: 0x4B8EF, size: 0x8, addend: 0x0, symName: __ZN5Eigen8internal15BlockImpl_denseINS_6MatrixIdLin1ELin1ELi0ELin1ELin1EEELin1ELi1ELb1ELb1EEC2ERS3_l, symObjAddr: 0x6838, symBinAddr: 0x100008D5C, symSize: 0xAC }
  - { offsetInCU: 0x4B937, offset: 0x4B937, size: 0x8, addend: 0x0, symName: __ZN5Eigen7MapBaseINS_5BlockINS_6MatrixIdLin1ELin1ELi0ELin1ELin1EEELin1ELi1ELb1EEELi1EEC2EPdll, symObjAddr: 0x68E4, symBinAddr: 0x100008E08, symSize: 0x44 }
  - { offsetInCU: 0x4B98E, offset: 0x4B98E, size: 0x8, addend: 0x0, symName: __ZN5Eigen8internal15BlockImpl_denseINS_6MatrixIdLin1ELin1ELi0ELin1ELin1EEELin1ELi1ELb1ELb1EE4initEv, symObjAddr: 0x6928, symBinAddr: 0x100008E4C, symSize: 0x34 }
  - { offsetInCU: 0x4B9B4, offset: 0x4B9B4, size: 0x8, addend: 0x0, symName: __ZN5Eigen7MapBaseINS_5BlockINS_6MatrixIdLin1ELin1ELi0ELin1ELin1EEELin1ELi1ELb1EEELi0EEC2EPdll, symObjAddr: 0x695C, symBinAddr: 0x100008E80, symSize: 0x11C }
  - { offsetInCU: 0x4BA08, offset: 0x4BA08, size: 0x8, addend: 0x0, symName: __ZN5Eigen10MatrixBaseINS_5BlockINS_6MatrixIdLin1ELin1ELi0ELin1ELin1EEELin1ELi1ELb1EEEEC2Ev, symObjAddr: 0x6A78, symBinAddr: 0x100008F9C, symSize: 0x2C }
  - { offsetInCU: 0x4BA32, offset: 0x4BA32, size: 0x8, addend: 0x0, symName: __ZNK5Eigen7MapBaseINS_5BlockINS_6MatrixIdLin1ELin1ELi0ELin1ELin1EEELin1ELi1ELb1EEELi0EE11checkSanityIS4_EEvNS_8internal9enable_ifIXeqsr8internal6traitsIT_EE9AlignmentLi0EEPvE4typeE, symObjAddr: 0x6AA4, symBinAddr: 0x100008FC8, symSize: 0x14 }
  - { offsetInCU: 0x4BA6C, offset: 0x4BA6C, size: 0x8, addend: 0x0, symName: __ZN5Eigen9DenseBaseINS_5BlockINS_6MatrixIdLin1ELin1ELi0ELin1ELin1EEELin1ELi1ELb1EEEEC2Ev, symObjAddr: 0x6AB8, symBinAddr: 0x100008FDC, symSize: 0x14 }
  - { offsetInCU: 0x4BA96, offset: 0x4BA96, size: 0x8, addend: 0x0, symName: __ZNK5Eigen9DenseBaseINS_5BlockIKNS_6MatrixIdLin1ELin1ELi0ELin1ELin1EEELi1ELin1ELb0EEEE9conjugateEv, symObjAddr: 0x6ACC, symBinAddr: 0x100008FF0, symSize: 0x24 }
  - { offsetInCU: 0x4BABC, offset: 0x4BABC, size: 0x8, addend: 0x0, symName: __ZNK5Eigen10MatrixBaseINS_5BlockIKNS_6MatrixIdLin1ELin1ELi0ELin1ELin1EEELi1ELin1ELb0EEEE3dotINS1_IKNS1_IS4_Lin1ELi1ELb1EEELin1ELi1ELb1EEEEENS_20ScalarBinaryOpTraitsIdNS_8internal6traitsIT_E6ScalarENSC_17scalar_product_opIdSG_EEE10ReturnTypeERKNS0_ISE_EE, symObjAddr: 0x6AF0, symBinAddr: 0x100009014, symSize: 0x80 }
  - { offsetInCU: 0x4BAFB, offset: 0x4BAFB, size: 0x8, addend: 0x0, symName: __ZNK5Eigen9DenseBaseINS_5BlockIKNS_6MatrixIdLin1ELin1ELi0ELin1ELin1EEELin1ELi1ELb1EEEE3colEl, symObjAddr: 0x6B70, symBinAddr: 0x100009094, symSize: 0x3C }
  - { offsetInCU: 0x4BB30, offset: 0x4BB30, size: 0x8, addend: 0x0, symName: __ZN5Eigen7MapBaseINS_5BlockINS_6MatrixIdLin1ELin1ELi0ELin1ELin1EEELin1ELi1ELb1EEELi1EE8coeffRefEll, symObjAddr: 0x6BAC, symBinAddr: 0x1000090D0, symSize: 0x78 }
  - { offsetInCU: 0x4BD02, offset: 0x4BD02, size: 0x8, addend: 0x0, symName: __ZN5Eigen8internal19gemv_dense_selectorILi2ELi0ELb1EE3runINS_6MatrixIdLin1ELin1ELi0ELin1ELin1EEENS_5BlockIKS5_Lin1ELi1ELb1EEENS6_IS5_Lin1ELi1ELb1EEEEEvRKT_RKT0_RT1_RKNSG_6ScalarE, symObjAddr: 0x6C24, symBinAddr: 0x100009148, symSize: 0x260 }
  - { offsetInCU: 0x4BF69, offset: 0x4BF69, size: 0x8, addend: 0x0, symName: __ZNK5Eigen9EigenBaseINS_5BlockIKNS_6MatrixIdLin1ELin1ELi0ELin1ELin1EEELi1ELin1ELb0EEEE4sizeEv, symObjAddr: 0x6E84, symBinAddr: 0x1000093A8, symSize: 0x44 }
  - { offsetInCU: 0x4BF8F, offset: 0x4BF8F, size: 0x8, addend: 0x0, symName: __ZNK5Eigen9EigenBaseINS_5BlockIKNS1_IKNS_6MatrixIdLin1ELin1ELi0ELin1ELin1EEELin1ELi1ELb1EEELin1ELi1ELb1EEEE4sizeEv, symObjAddr: 0x6EC8, symBinAddr: 0x1000093EC, symSize: 0x44 }
  - { offsetInCU: 0x4BFB5, offset: 0x4BFB5, size: 0x8, addend: 0x0, symName: __ZN5Eigen8internal11dot_nocheckINS_5BlockIKNS_6MatrixIdLin1ELin1ELi0ELin1ELin1EEELi1ELin1ELb0EEENS2_IKNS2_IS5_Lin1ELi1ELb1EEELin1ELi1ELb1EEELb1EE3runERKNS_10MatrixBaseIS6_EERKNSB_IS9_EE, symObjAddr: 0x6F0C, symBinAddr: 0x100009430, symSize: 0x78 }
  - { offsetInCU: 0x4BFE6, offset: 0x4BFE6, size: 0x8, addend: 0x0, symName: __ZNK5Eigen9EigenBaseINS_5BlockIKNS_6MatrixIdLin1ELin1ELi0ELin1ELin1EEELi1ELin1ELb0EEEE4rowsEv, symObjAddr: 0x6F84, symBinAddr: 0x1000094A8, symSize: 0x28 }
  - { offsetInCU: 0x4C00C, offset: 0x4C00C, size: 0x8, addend: 0x0, symName: __ZNK5Eigen9EigenBaseINS_5BlockIKNS_6MatrixIdLin1ELin1ELi0ELin1ELin1EEELi1ELin1ELb0EEEE4colsEv, symObjAddr: 0x6FAC, symBinAddr: 0x1000094D0, symSize: 0x28 }
  - { offsetInCU: 0x4C032, offset: 0x4C032, size: 0x8, addend: 0x0, symName: __ZNK5Eigen9EigenBaseINS_5BlockIKNS1_IKNS_6MatrixIdLin1ELin1ELi0ELin1ELin1EEELin1ELi1ELb1EEELin1ELi1ELb1EEEE4rowsEv, symObjAddr: 0x6FD4, symBinAddr: 0x1000094F8, symSize: 0x38 }
  - { offsetInCU: 0x4C058, offset: 0x4C058, size: 0x8, addend: 0x0, symName: __ZNK5Eigen9EigenBaseINS_5BlockIKNS1_IKNS_6MatrixIdLin1ELin1ELi0ELin1ELin1EEELin1ELi1ELb1EEELin1ELi1ELb1EEEE4colsEv, symObjAddr: 0x700C, symBinAddr: 0x100009530, symSize: 0x28 }
  - { offsetInCU: 0x4C07E, offset: 0x4C07E, size: 0x8, addend: 0x0, symName: __ZNK5Eigen9EigenBaseINS_5BlockIKNS1_IKNS_6MatrixIdLin1ELin1ELi0ELin1ELin1EEELin1ELi1ELb1EEELin1ELi1ELb1EEEE7derivedEv, symObjAddr: 0x7034, symBinAddr: 0x100009558, symSize: 0x14 }
  - { offsetInCU: 0x4C0A4, offset: 0x4C0A4, size: 0x8, addend: 0x0, symName: __ZNK5Eigen7MapBaseINS_5BlockIKNS1_IKNS_6MatrixIdLin1ELin1ELi0ELin1ELin1EEELin1ELi1ELb1EEELin1ELi1ELb1EEELi0EE4rowsEv, symObjAddr: 0x7048, symBinAddr: 0x10000956C, symSize: 0x28 }
  - { offsetInCU: 0x4C0CA, offset: 0x4C0CA, size: 0x8, addend: 0x0, symName: __ZNK5Eigen7MapBaseINS_5BlockIKNS1_IKNS_6MatrixIdLin1ELin1ELi0ELin1ELin1EEELin1ELi1ELb1EEELin1ELi1ELb1EEELi0EE4colsEv, symObjAddr: 0x7070, symBinAddr: 0x100009594, symSize: 0x20 }
  - { offsetInCU: 0x4C0F0, offset: 0x4C0F0, size: 0x8, addend: 0x0, symName: __ZNK5Eigen10MatrixBaseINS_9TransposeIKNS_5BlockIKNS_6MatrixIdLin1ELin1ELi0ELin1ELin1EEELi1ELin1ELb0EEEEEE10binaryExprINS_8internal22scalar_conj_product_opIddEENS2_IKNS2_IS5_Lin1ELi1ELb1EEELin1ELi1ELb1EEEEEKNS_13CwiseBinaryOpIT_KS8_KT0_EERKNS0_ISK_EERKSI_, symObjAddr: 0x7090, symBinAddr: 0x1000095B4, symSize: 0x54 }
  - { offsetInCU: 0x4C144, offset: 0x4C144, size: 0x8, addend: 0x0, symName: __ZN5Eigen8internal22scalar_conj_product_opIddEC1Ev, symObjAddr: 0x70E4, symBinAddr: 0x100009608, symSize: 0x2C }
  - { offsetInCU: 0x4C16E, offset: 0x4C16E, size: 0x8, addend: 0x0, symName: __ZNK5Eigen9DenseBaseINS_13CwiseBinaryOpINS_8internal22scalar_conj_product_opIddEEKNS_9TransposeIKNS_5BlockIKNS_6MatrixIdLin1ELin1ELi0ELin1ELin1EEELi1ELin1ELb0EEEEEKNS6_IKNS6_IS9_Lin1ELi1ELb1EEELin1ELi1ELb1EEEEEE3sumEv, symObjAddr: 0x7110, symBinAddr: 0x100009634, symSize: 0x74 }
  - { offsetInCU: 0x4C197, offset: 0x4C197, size: 0x8, addend: 0x0, symName: __ZN5Eigen13CwiseBinaryOpINS_8internal22scalar_conj_product_opIddEEKNS_9TransposeIKNS_5BlockIKNS_6MatrixIdLin1ELin1ELi0ELin1ELin1EEELi1ELin1ELb0EEEEEKNS5_IKNS5_IS8_Lin1ELi1ELb1EEELin1ELi1ELb1EEEEC1ERSC_RSG_RKS3_, symObjAddr: 0x7184, symBinAddr: 0x1000096A8, symSize: 0x44 }
  - { offsetInCU: 0x4C1EB, offset: 0x4C1EB, size: 0x8, addend: 0x0, symName: __ZN5Eigen13CwiseBinaryOpINS_8internal22scalar_conj_product_opIddEEKNS_9TransposeIKNS_5BlockIKNS_6MatrixIdLin1ELin1ELi0ELin1ELin1EEELi1ELin1ELb0EEEEEKNS5_IKNS5_IS8_Lin1ELi1ELb1EEELin1ELi1ELb1EEEEC2ERSC_RSG_RKS3_, symObjAddr: 0x71C8, symBinAddr: 0x1000096EC, symSize: 0x100 }
  - { offsetInCU: 0x4C244, offset: 0x4C244, size: 0x8, addend: 0x0, symName: __ZN5Eigen17CwiseBinaryOpImplINS_8internal22scalar_conj_product_opIddEEKNS_9TransposeIKNS_5BlockIKNS_6MatrixIdLin1ELin1ELi0ELin1ELin1EEELi1ELin1ELb0EEEEEKNS5_IKNS5_IS8_Lin1ELi1ELb1EEELin1ELi1ELb1EEENS_5DenseEEC2Ev, symObjAddr: 0x72C8, symBinAddr: 0x1000097EC, symSize: 0x2C }
  - { offsetInCU: 0x4C270, offset: 0x4C270, size: 0x8, addend: 0x0, symName: __ZN5Eigen8internal22scalar_conj_product_opIddEC1ERKS2_, symObjAddr: 0x72F4, symBinAddr: 0x100009818, symSize: 0x34 }
  - { offsetInCU: 0x4C2A5, offset: 0x4C2A5, size: 0x8, addend: 0x0, symName: __ZN5Eigen10MatrixBaseINS_13CwiseBinaryOpINS_8internal22scalar_conj_product_opIddEEKNS_9TransposeIKNS_5BlockIKNS_6MatrixIdLin1ELin1ELi0ELin1ELin1EEELi1ELin1ELb0EEEEEKNS6_IKNS6_IS9_Lin1ELi1ELb1EEELin1ELi1ELb1EEEEEEC2Ev, symObjAddr: 0x7328, symBinAddr: 0x10000984C, symSize: 0x2C }
  - { offsetInCU: 0x4C2CF, offset: 0x4C2CF, size: 0x8, addend: 0x0, symName: __ZN5Eigen9DenseBaseINS_13CwiseBinaryOpINS_8internal22scalar_conj_product_opIddEEKNS_9TransposeIKNS_5BlockIKNS_6MatrixIdLin1ELin1ELi0ELin1ELin1EEELi1ELin1ELb0EEEEEKNS6_IKNS6_IS9_Lin1ELi1ELb1EEELin1ELi1ELb1EEEEEEC2Ev, symObjAddr: 0x7354, symBinAddr: 0x100009878, symSize: 0x14 }
  - { offsetInCU: 0x4C2F9, offset: 0x4C2F9, size: 0x8, addend: 0x0, symName: __ZN5Eigen8internal22scalar_conj_product_opIddEC2ERKS2_, symObjAddr: 0x7368, symBinAddr: 0x10000988C, symSize: 0x18 }
  - { offsetInCU: 0x4C32E, offset: 0x4C32E, size: 0x8, addend: 0x0, symName: __ZN5Eigen8internal22scalar_conj_product_opIddEC2Ev, symObjAddr: 0x7380, symBinAddr: 0x1000098A4, symSize: 0x14 }
  - { offsetInCU: 0x4C358, offset: 0x4C358, size: 0x8, addend: 0x0, symName: __ZNK5Eigen9EigenBaseINS_13CwiseBinaryOpINS_8internal22scalar_conj_product_opIddEEKNS_9TransposeIKNS_5BlockIKNS_6MatrixIdLin1ELin1ELi0ELin1ELin1EEELi1ELin1ELb0EEEEEKNS6_IKNS6_IS9_Lin1ELi1ELb1EEELin1ELi1ELb1EEEEEE4sizeEv, symObjAddr: 0x7394, symBinAddr: 0x1000098B8, symSize: 0x44 }
  - { offsetInCU: 0x4C37E, offset: 0x4C37E, size: 0x8, addend: 0x0, symName: __ZNK5Eigen9EigenBaseINS_13CwiseBinaryOpINS_8internal22scalar_conj_product_opIddEEKNS_9TransposeIKNS_5BlockIKNS_6MatrixIdLin1ELin1ELi0ELin1ELin1EEELi1ELin1ELb0EEEEEKNS6_IKNS6_IS9_Lin1ELi1ELb1EEELin1ELi1ELb1EEEEEE7derivedEv, symObjAddr: 0x73D8, symBinAddr: 0x1000098FC, symSize: 0x14 }
  - { offsetInCU: 0x4C3A4, offset: 0x4C3A4, size: 0x8, addend: 0x0, symName: __ZNK5Eigen9DenseBaseINS_13CwiseBinaryOpINS_8internal22scalar_conj_product_opIddEEKNS_9TransposeIKNS_5BlockIKNS_6MatrixIdLin1ELin1ELi0ELin1ELin1EEELi1ELin1ELb0EEEEEKNS6_IKNS6_IS9_Lin1ELi1ELb1EEELin1ELi1ELb1EEEEEE5reduxINS2_13scalar_sum_opIddEEEEdRKT_, symObjAddr: 0x73EC, symBinAddr: 0x100009910, symSize: 0x10C }
  - { offsetInCU: 0x4C400, offset: 0x4C400, size: 0x8, addend: 0x0, symName: __ZNK5Eigen9EigenBaseINS_13CwiseBinaryOpINS_8internal22scalar_conj_product_opIddEEKNS_9TransposeIKNS_5BlockIKNS_6MatrixIdLin1ELin1ELi0ELin1ELin1EEELi1ELin1ELb0EEEEEKNS6_IKNS6_IS9_Lin1ELi1ELb1EEELin1ELi1ELb1EEEEEE4rowsEv, symObjAddr: 0x74F8, symBinAddr: 0x100009A1C, symSize: 0x38 }
  - { offsetInCU: 0x4C426, offset: 0x4C426, size: 0x8, addend: 0x0, symName: __ZNK5Eigen9EigenBaseINS_13CwiseBinaryOpINS_8internal22scalar_conj_product_opIddEEKNS_9TransposeIKNS_5BlockIKNS_6MatrixIdLin1ELin1ELi0ELin1ELin1EEELi1ELin1ELb0EEEEEKNS6_IKNS6_IS9_Lin1ELi1ELb1EEELin1ELi1ELb1EEEEEE4colsEv, symObjAddr: 0x7530, symBinAddr: 0x100009A54, symSize: 0x38 }
  - { offsetInCU: 0x4C44C, offset: 0x4C44C, size: 0x8, addend: 0x0, symName: __ZNK5Eigen13CwiseBinaryOpINS_8internal22scalar_conj_product_opIddEEKNS_9TransposeIKNS_5BlockIKNS_6MatrixIdLin1ELin1ELi0ELin1ELin1EEELi1ELin1ELb0EEEEEKNS5_IKNS5_IS8_Lin1ELi1ELb1EEELin1ELi1ELb1EEEE4rowsEv, symObjAddr: 0x7568, symBinAddr: 0x100009A8C, symSize: 0x28 }
  - { offsetInCU: 0x4C472, offset: 0x4C472, size: 0x8, addend: 0x0, symName: __ZNK5Eigen13CwiseBinaryOpINS_8internal22scalar_conj_product_opIddEEKNS_9TransposeIKNS_5BlockIKNS_6MatrixIdLin1ELin1ELi0ELin1ELin1EEELi1ELin1ELb0EEEEEKNS5_IKNS5_IS8_Lin1ELi1ELb1EEELin1ELi1ELb1EEEE4colsEv, symObjAddr: 0x7590, symBinAddr: 0x100009AB4, symSize: 0x24 }
  - { offsetInCU: 0x4C51A, offset: 0x4C51A, size: 0x8, addend: 0x0, symName: __ZN5Eigen8internal15redux_evaluatorINS_13CwiseBinaryOpINS0_22scalar_conj_product_opIddEEKNS_9TransposeIKNS_5BlockIKNS_6MatrixIdLin1ELin1ELi0ELin1ELin1EEELi1ELin1ELb0EEEEEKNS6_IKNS6_IS9_Lin1ELi1ELb1EEELin1ELi1ELb1EEEEEEC1ERKSI_, symObjAddr: 0x75B4, symBinAddr: 0x100009AD8, symSize: 0x34 }
  - { offsetInCU: 0x4C558, offset: 0x4C558, size: 0x8, addend: 0x0, symName: __ZN5Eigen8internal10redux_implINS0_13scalar_sum_opIddEENS0_15redux_evaluatorINS_13CwiseBinaryOpINS0_22scalar_conj_product_opIddEEKNS_9TransposeIKNS_5BlockIKNS_6MatrixIdLin1ELin1ELi0ELin1ELin1EEELi1ELin1ELb0EEEEEKNS9_IKNS9_ISC_Lin1ELi1ELb1EEELin1ELi1ELb1EEEEEEELi0ELi0EE3runISL_EEdRKSM_RKS3_RKT_, symObjAddr: 0x75E8, symBinAddr: 0x100009B0C, symSize: 0x1E0 }
  - { offsetInCU: 0x4C603, offset: 0x4C603, size: 0x8, addend: 0x0, symName: __ZN5Eigen8internal15redux_evaluatorINS_13CwiseBinaryOpINS0_22scalar_conj_product_opIddEEKNS_9TransposeIKNS_5BlockIKNS_6MatrixIdLin1ELin1ELi0ELin1ELin1EEELi1ELin1ELb0EEEEEKNS6_IKNS6_IS9_Lin1ELi1ELb1EEELin1ELi1ELb1EEEEEED1Ev, symObjAddr: 0x77C8, symBinAddr: 0x100009CEC, symSize: 0x2C }
  - { offsetInCU: 0x4C630, offset: 0x4C630, size: 0x8, addend: 0x0, symName: __ZN5Eigen8internal15redux_evaluatorINS_13CwiseBinaryOpINS0_22scalar_conj_product_opIddEEKNS_9TransposeIKNS_5BlockIKNS_6MatrixIdLin1ELin1ELi0ELin1ELin1EEELi1ELin1ELb0EEEEEKNS6_IKNS6_IS9_Lin1ELi1ELb1EEELin1ELi1ELb1EEEEEEC2ERKSI_, symObjAddr: 0x77F4, symBinAddr: 0x100009D18, symSize: 0x34 }
  - { offsetInCU: 0x4C669, offset: 0x4C669, size: 0x8, addend: 0x0, symName: __ZN5Eigen8internal9evaluatorINS_13CwiseBinaryOpINS0_22scalar_conj_product_opIddEEKNS_9TransposeIKNS_5BlockIKNS_6MatrixIdLin1ELin1ELi0ELin1ELin1EEELi1ELin1ELb0EEEEEKNS6_IKNS6_IS9_Lin1ELi1ELb1EEELin1ELi1ELb1EEEEEEC2ERKSI_, symObjAddr: 0x7828, symBinAddr: 0x100009D4C, symSize: 0x34 }
  - { offsetInCU: 0x4C6A2, offset: 0x4C6A2, size: 0x8, addend: 0x0, symName: __ZN5Eigen8internal16binary_evaluatorINS_13CwiseBinaryOpINS0_22scalar_conj_product_opIddEEKNS_9TransposeIKNS_5BlockIKNS_6MatrixIdLin1ELin1ELi0ELin1ELin1EEELi1ELin1ELb0EEEEEKNS6_IKNS6_IS9_Lin1ELi1ELb1EEELin1ELi1ELb1EEEEENS0_10IndexBasedESJ_ddEC2ERKSI_, symObjAddr: 0x785C, symBinAddr: 0x100009D80, symSize: 0x64 }
  - { offsetInCU: 0x4C6DB, offset: 0x4C6DB, size: 0x8, addend: 0x0, symName: __ZN5Eigen8internal14evaluator_baseINS_13CwiseBinaryOpINS0_22scalar_conj_product_opIddEEKNS_9TransposeIKNS_5BlockIKNS_6MatrixIdLin1ELin1ELi0ELin1ELin1EEELi1ELin1ELb0EEEEEKNS6_IKNS6_IS9_Lin1ELi1ELb1EEELin1ELi1ELb1EEEEEEC2Ev, symObjAddr: 0x78C0, symBinAddr: 0x100009DE4, symSize: 0x14 }
  - { offsetInCU: 0x4C705, offset: 0x4C705, size: 0x8, addend: 0x0, symName: __ZN5Eigen8internal16binary_evaluatorINS_13CwiseBinaryOpINS0_22scalar_conj_product_opIddEEKNS_9TransposeIKNS_5BlockIKNS_6MatrixIdLin1ELin1ELi0ELin1ELin1EEELi1ELin1ELb0EEEEEKNS6_IKNS6_IS9_Lin1ELi1ELb1EEELin1ELi1ELb1EEEEENS0_10IndexBasedESJ_ddE4DataC1ERKSI_, symObjAddr: 0x78D4, symBinAddr: 0x100009DF8, symSize: 0x34 }
  - { offsetInCU: 0x4C73E, offset: 0x4C73E, size: 0x8, addend: 0x0, symName: __ZN5Eigen8internal14evaluator_baseINS_13CwiseBinaryOpINS0_22scalar_conj_product_opIddEEKNS_9TransposeIKNS_5BlockIKNS_6MatrixIdLin1ELin1ELi0ELin1ELin1EEELi1ELin1ELb0EEEEEKNS6_IKNS6_IS9_Lin1ELi1ELb1EEELin1ELi1ELb1EEEEEED2Ev, symObjAddr: 0x7908, symBinAddr: 0x100009E2C, symSize: 0x14 }
  - { offsetInCU: 0x4C768, offset: 0x4C768, size: 0x8, addend: 0x0, symName: __ZN5Eigen8internal16binary_evaluatorINS_13CwiseBinaryOpINS0_22scalar_conj_product_opIddEEKNS_9TransposeIKNS_5BlockIKNS_6MatrixIdLin1ELin1ELi0ELin1ELin1EEELi1ELin1ELb0EEEEEKNS6_IKNS6_IS9_Lin1ELi1ELb1EEELin1ELi1ELb1EEEEENS0_10IndexBasedESJ_ddE4DataC2ERKSI_, symObjAddr: 0x791C, symBinAddr: 0x100009E40, symSize: 0xA8 }
  - { offsetInCU: 0x4C7A1, offset: 0x4C7A1, size: 0x8, addend: 0x0, symName: __ZNK5Eigen13CwiseBinaryOpINS_8internal22scalar_conj_product_opIddEEKNS_9TransposeIKNS_5BlockIKNS_6MatrixIdLin1ELin1ELi0ELin1ELin1EEELi1ELin1ELb0EEEEEKNS5_IKNS5_IS8_Lin1ELi1ELb1EEELin1ELi1ELb1EEEE7functorEv, symObjAddr: 0x79C4, symBinAddr: 0x100009EE8, symSize: 0x18 }
  - { offsetInCU: 0x4C7C7, offset: 0x4C7C7, size: 0x8, addend: 0x0, symName: __ZNK5Eigen13CwiseBinaryOpINS_8internal22scalar_conj_product_opIddEEKNS_9TransposeIKNS_5BlockIKNS_6MatrixIdLin1ELin1ELi0ELin1ELin1EEELi1ELin1ELb0EEEEEKNS5_IKNS5_IS8_Lin1ELi1ELb1EEELin1ELi1ELb1EEEE3lhsEv, symObjAddr: 0x79DC, symBinAddr: 0x100009F00, symSize: 0x14 }
  - { offsetInCU: 0x4C7ED, offset: 0x4C7ED, size: 0x8, addend: 0x0, symName: __ZNK5Eigen13CwiseBinaryOpINS_8internal22scalar_conj_product_opIddEEKNS_9TransposeIKNS_5BlockIKNS_6MatrixIdLin1ELin1ELi0ELin1ELin1EEELi1ELin1ELb0EEEEEKNS5_IKNS5_IS8_Lin1ELi1ELb1EEELin1ELi1ELb1EEEE3rhsEv, symObjAddr: 0x79F0, symBinAddr: 0x100009F14, symSize: 0x18 }
  - { offsetInCU: 0x4C813, offset: 0x4C813, size: 0x8, addend: 0x0, symName: __ZN5Eigen8internal9evaluatorIKNS_5BlockIKNS2_IKNS_6MatrixIdLin1ELin1ELi0ELin1ELin1EEELin1ELi1ELb1EEELin1ELi1ELb1EEEEC1ERS9_, symObjAddr: 0x7A08, symBinAddr: 0x100009F2C, symSize: 0x34 }
  - { offsetInCU: 0x4C84B, offset: 0x4C84B, size: 0x8, addend: 0x0, symName: __ZN5Eigen8internal9evaluatorIKNS_5BlockIKNS2_IKNS_6MatrixIdLin1ELin1ELi0ELin1ELin1EEELin1ELi1ELb1EEELin1ELi1ELb1EEEEC2ERS9_, symObjAddr: 0x7A3C, symBinAddr: 0x100009F60, symSize: 0x34 }
  - { offsetInCU: 0x4C883, offset: 0x4C883, size: 0x8, addend: 0x0, symName: __ZN5Eigen8internal9evaluatorINS_5BlockIKNS2_IKNS_6MatrixIdLin1ELin1ELi0ELin1ELin1EEELin1ELi1ELb1EEELin1ELi1ELb1EEEEC2ERKS8_, symObjAddr: 0x7A70, symBinAddr: 0x100009F94, symSize: 0x34 }
  - { offsetInCU: 0x4C8BC, offset: 0x4C8BC, size: 0x8, addend: 0x0, symName: __ZN5Eigen8internal15block_evaluatorIKNS_5BlockIKNS_6MatrixIdLin1ELin1ELi0ELin1ELin1EEELin1ELi1ELb1EEELin1ELi1ELb1ELb1EEC2ERKNS2_IS7_Lin1ELi1ELb1EEE, symObjAddr: 0x7AA4, symBinAddr: 0x100009FC8, symSize: 0xDC }
  - { offsetInCU: 0x4C8F5, offset: 0x4C8F5, size: 0x8, addend: 0x0, symName: __ZN5Eigen8internal17mapbase_evaluatorINS_5BlockIKNS2_IKNS_6MatrixIdLin1ELin1ELi0ELin1ELin1EEELin1ELi1ELb1EEELin1ELi1ELb1EEENS3_IdLin1ELi1ELi0ELin1ELi1EEEEC2ERKS8_, symObjAddr: 0x7B80, symBinAddr: 0x10000A0A4, symSize: 0xB0 }
  - { offsetInCU: 0x4C92E, offset: 0x4C92E, size: 0x8, addend: 0x0, symName: __ZNK5Eigen7MapBaseINS_5BlockIKNS1_IKNS_6MatrixIdLin1ELin1ELi0ELin1ELin1EEELin1ELi1ELb1EEELin1ELi1ELb1EEELi0EE4dataEv, symObjAddr: 0x7C30, symBinAddr: 0x10000A154, symSize: 0x18 }
  - { offsetInCU: 0x4C954, offset: 0x4C954, size: 0x8, addend: 0x0, symName: __ZN5Eigen8internal17mapbase_evaluatorINS_5BlockIKNS2_IKNS_6MatrixIdLin1ELin1ELi0ELin1ELin1EEELin1ELi1ELb1EEELin1ELi1ELb1EEENS3_IdLin1ELi1ELi0ELin1ELi1EEEED2Ev, symObjAddr: 0x7C48, symBinAddr: 0x10000A16C, symSize: 0x2C }
  - { offsetInCU: 0x4C981, offset: 0x4C981, size: 0x8, addend: 0x0, symName: __ZN5Eigen8internal14evaluator_baseINS_5BlockIKNS2_IKNS_6MatrixIdLin1ELin1ELi0ELin1ELin1EEELin1ELi1ELb1EEELin1ELi1ELb1EEEEC2Ev, symObjAddr: 0x7C74, symBinAddr: 0x10000A198, symSize: 0x14 }
  - { offsetInCU: 0x4C9AB, offset: 0x4C9AB, size: 0x8, addend: 0x0, symName: __ZNK5Eigen8internal15BlockImpl_denseIKNS_5BlockIKNS_6MatrixIdLin1ELin1ELi0ELin1ELin1EEELin1ELi1ELb1EEELin1ELi1ELb1ELb1EE11innerStrideEv, symObjAddr: 0x7C88, symBinAddr: 0x10000A1AC, symSize: 0x28 }
  - { offsetInCU: 0x4C9D1, offset: 0x4C9D1, size: 0x8, addend: 0x0, symName: __ZNK5Eigen8internal15BlockImpl_denseIKNS_5BlockIKNS_6MatrixIdLin1ELin1ELi0ELin1ELin1EEELin1ELi1ELb1EEELin1ELi1ELb1ELb1EE11outerStrideEv, symObjAddr: 0x7CB0, symBinAddr: 0x10000A1D4, symSize: 0x28 }
  - { offsetInCU: 0x4C9F7, offset: 0x4C9F7, size: 0x8, addend: 0x0, symName: __ZN5Eigen8internal14evaluator_baseINS_5BlockIKNS2_IKNS_6MatrixIdLin1ELin1ELi0ELin1ELin1EEELin1ELi1ELb1EEELin1ELi1ELb1EEEED2Ev, symObjAddr: 0x7CD8, symBinAddr: 0x10000A1FC, symSize: 0x14 }
  - { offsetInCU: 0x4CA21, offset: 0x4CA21, size: 0x8, addend: 0x0, symName: __ZNK5Eigen8internal15redux_evaluatorINS_13CwiseBinaryOpINS0_22scalar_conj_product_opIddEEKNS_9TransposeIKNS_5BlockIKNS_6MatrixIdLin1ELin1ELi0ELin1ELin1EEELi1ELin1ELb0EEEEEKNS6_IKNS6_IS9_Lin1ELi1ELb1EEELin1ELi1ELb1EEEEEE17coeffByOuterInnerEll, symObjAddr: 0x7CEC, symBinAddr: 0x10000A210, symSize: 0x34 }
  - { offsetInCU: 0x4CA65, offset: 0x4CA65, size: 0x8, addend: 0x0, symName: __ZNK5Eigen9DenseBaseINS_13CwiseBinaryOpINS_8internal22scalar_conj_product_opIddEEKNS_9TransposeIKNS_5BlockIKNS_6MatrixIdLin1ELin1ELi0ELin1ELin1EEELi1ELin1ELb0EEEEEKNS6_IKNS6_IS9_Lin1ELi1ELb1EEELin1ELi1ELb1EEEEEE9innerSizeEv, symObjAddr: 0x7D20, symBinAddr: 0x10000A244, symSize: 0x24 }
  - { offsetInCU: 0x4CA8B, offset: 0x4CA8B, size: 0x8, addend: 0x0, symName: __ZNK5Eigen9DenseBaseINS_13CwiseBinaryOpINS_8internal22scalar_conj_product_opIddEEKNS_9TransposeIKNS_5BlockIKNS_6MatrixIdLin1ELin1ELi0ELin1ELin1EEELi1ELin1ELb0EEEEEKNS6_IKNS6_IS9_Lin1ELi1ELb1EEELin1ELi1ELb1EEEEEE9outerSizeEv, symObjAddr: 0x7D44, symBinAddr: 0x10000A268, symSize: 0x14 }
  - { offsetInCU: 0x4CAB1, offset: 0x4CAB1, size: 0x8, addend: 0x0, symName: __ZNK5Eigen8internal16binary_evaluatorINS_13CwiseBinaryOpINS0_22scalar_conj_product_opIddEEKNS_9TransposeIKNS_5BlockIKNS_6MatrixIdLin1ELin1ELi0ELin1ELin1EEELi1ELin1ELb0EEEEEKNS6_IKNS6_IS9_Lin1ELi1ELb1EEELin1ELi1ELb1EEEEENS0_10IndexBasedESJ_ddE5coeffEll, symObjAddr: 0x7D58, symBinAddr: 0x10000A27C, symSize: 0x7C }
  - { offsetInCU: 0x4CAF5, offset: 0x4CAF5, size: 0x8, addend: 0x0, symName: __ZNK5Eigen8internal16binary_evaluatorINS_13CwiseBinaryOpINS0_22scalar_conj_product_opIddEEKNS_9TransposeIKNS_5BlockIKNS_6MatrixIdLin1ELin1ELi0ELin1ELin1EEELi1ELin1ELb0EEEEEKNS6_IKNS6_IS9_Lin1ELi1ELb1EEELin1ELi1ELb1EEEEENS0_10IndexBasedESJ_ddE4Data4funcEv, symObjAddr: 0x7DD4, symBinAddr: 0x10000A2F8, symSize: 0x14 }
  - { offsetInCU: 0x4CB1B, offset: 0x4CB1B, size: 0x8, addend: 0x0, symName: __ZNK5Eigen8internal22scalar_conj_product_opIddEclERKdS4_, symObjAddr: 0x7DE8, symBinAddr: 0x10000A30C, symSize: 0x34 }
  - { offsetInCU: 0x4CB5D, offset: 0x4CB5D, size: 0x8, addend: 0x0, symName: __ZNK5Eigen8internal17mapbase_evaluatorINS_5BlockIKNS2_IKNS_6MatrixIdLin1ELin1ELi0ELin1ELin1EEELin1ELi1ELb1EEELin1ELi1ELb1EEENS3_IdLin1ELi1ELi0ELin1ELi1EEEE5coeffEll, symObjAddr: 0x7E1C, symBinAddr: 0x10000A340, symSize: 0x78 }
  - { offsetInCU: 0x4CBAB, offset: 0x4CBAB, size: 0x8, addend: 0x0, symName: __ZNK5Eigen8internal11conj_helperIddLb0ELb0EE4pmulERKdS4_, symObjAddr: 0x7E94, symBinAddr: 0x10000A3B8, symSize: 0x4C }
  - { offsetInCU: 0x4CBF7, offset: 0x4CBF7, size: 0x8, addend: 0x0, symName: __ZNK5Eigen8internal7conj_ifILb0EE5pconjIdEERKT_S6_, symObjAddr: 0x7F08, symBinAddr: 0x10000A42C, symSize: 0x18 }
  - { offsetInCU: 0x4CC34, offset: 0x4CC34, size: 0x8, addend: 0x0, symName: __ZNK5Eigen8internal17mapbase_evaluatorINS_5BlockIKNS2_IKNS_6MatrixIdLin1ELin1ELi0ELin1ELin1EEELin1ELi1ELb1EEELin1ELi1ELb1EEENS3_IdLin1ELi1ELi0ELin1ELi1EEEE9colStrideEv, symObjAddr: 0x7F20, symBinAddr: 0x10000A444, symSize: 0x28 }
  - { offsetInCU: 0x4CC5A, offset: 0x4CC5A, size: 0x8, addend: 0x0, symName: __ZNK5Eigen8internal17mapbase_evaluatorINS_5BlockIKNS2_IKNS_6MatrixIdLin1ELin1ELi0ELin1ELin1EEELin1ELi1ELb1EEELin1ELi1ELb1EEENS3_IdLin1ELi1ELi0ELin1ELi1EEEE9rowStrideEv, symObjAddr: 0x7F48, symBinAddr: 0x10000A46C, symSize: 0x20 }
  - { offsetInCU: 0x4CC80, offset: 0x4CC80, size: 0x8, addend: 0x0, symName: __ZN5Eigen8internal15redux_evaluatorINS_13CwiseBinaryOpINS0_22scalar_conj_product_opIddEEKNS_9TransposeIKNS_5BlockIKNS_6MatrixIdLin1ELin1ELi0ELin1ELin1EEELi1ELin1ELb0EEEEEKNS6_IKNS6_IS9_Lin1ELi1ELb1EEELin1ELi1ELb1EEEEEED2Ev, symObjAddr: 0x7F68, symBinAddr: 0x10000A48C, symSize: 0x2C }
  - { offsetInCU: 0x4CCAD, offset: 0x4CCAD, size: 0x8, addend: 0x0, symName: __ZN5Eigen8internal9evaluatorINS_13CwiseBinaryOpINS0_22scalar_conj_product_opIddEEKNS_9TransposeIKNS_5BlockIKNS_6MatrixIdLin1ELin1ELi0ELin1ELin1EEELi1ELin1ELb0EEEEEKNS6_IKNS6_IS9_Lin1ELi1ELb1EEELin1ELi1ELb1EEEEEED2Ev, symObjAddr: 0x7F94, symBinAddr: 0x10000A4B8, symSize: 0x2C }
  - { offsetInCU: 0x4CCDA, offset: 0x4CCDA, size: 0x8, addend: 0x0, symName: __ZN5Eigen8internal16binary_evaluatorINS_13CwiseBinaryOpINS0_22scalar_conj_product_opIddEEKNS_9TransposeIKNS_5BlockIKNS_6MatrixIdLin1ELin1ELi0ELin1ELin1EEELi1ELin1ELb0EEEEEKNS6_IKNS6_IS9_Lin1ELi1ELb1EEELin1ELi1ELb1EEEEENS0_10IndexBasedESJ_ddED2Ev, symObjAddr: 0x7FC0, symBinAddr: 0x10000A4E4, symSize: 0x34 }
  - { offsetInCU: 0x4CD06, offset: 0x4CD06, size: 0x8, addend: 0x0, symName: __ZN5Eigen8internal16binary_evaluatorINS_13CwiseBinaryOpINS0_22scalar_conj_product_opIddEEKNS_9TransposeIKNS_5BlockIKNS_6MatrixIdLin1ELin1ELi0ELin1ELin1EEELi1ELin1ELb0EEEEEKNS6_IKNS6_IS9_Lin1ELi1ELb1EEELin1ELi1ELb1EEEEENS0_10IndexBasedESJ_ddE4DataD1Ev, symObjAddr: 0x7FF4, symBinAddr: 0x10000A518, symSize: 0x2C }
  - { offsetInCU: 0x4CD33, offset: 0x4CD33, size: 0x8, addend: 0x0, symName: __ZN5Eigen8internal16binary_evaluatorINS_13CwiseBinaryOpINS0_22scalar_conj_product_opIddEEKNS_9TransposeIKNS_5BlockIKNS_6MatrixIdLin1ELin1ELi0ELin1ELin1EEELi1ELin1ELb0EEEEEKNS6_IKNS6_IS9_Lin1ELi1ELb1EEELin1ELi1ELb1EEEEENS0_10IndexBasedESJ_ddE4DataD2Ev, symObjAddr: 0x8020, symBinAddr: 0x10000A544, symSize: 0x3C }
  - { offsetInCU: 0x4CD60, offset: 0x4CD60, size: 0x8, addend: 0x0, symName: __ZN5Eigen8internal9evaluatorIKNS_5BlockIKNS2_IKNS_6MatrixIdLin1ELin1ELi0ELin1ELin1EEELin1ELi1ELb1EEELin1ELi1ELb1EEEED1Ev, symObjAddr: 0x805C, symBinAddr: 0x10000A580, symSize: 0x2C }
  - { offsetInCU: 0x4CD8C, offset: 0x4CD8C, size: 0x8, addend: 0x0, symName: __ZN5Eigen8internal9evaluatorIKNS_5BlockIKNS2_IKNS_6MatrixIdLin1ELin1ELi0ELin1ELin1EEELin1ELi1ELb1EEELin1ELi1ELb1EEEED2Ev, symObjAddr: 0x8088, symBinAddr: 0x10000A5AC, symSize: 0x2C }
  - { offsetInCU: 0x4CDB8, offset: 0x4CDB8, size: 0x8, addend: 0x0, symName: __ZN5Eigen8internal9evaluatorINS_5BlockIKNS2_IKNS_6MatrixIdLin1ELin1ELi0ELin1ELin1EEELin1ELi1ELb1EEELin1ELi1ELb1EEEED2Ev, symObjAddr: 0x80B4, symBinAddr: 0x10000A5D8, symSize: 0x2C }
  - { offsetInCU: 0x4CDE5, offset: 0x4CDE5, size: 0x8, addend: 0x0, symName: __ZN5Eigen8internal15block_evaluatorIKNS_5BlockIKNS_6MatrixIdLin1ELin1ELi0ELin1ELin1EEELin1ELi1ELb1EEELin1ELi1ELb1ELb1EED2Ev, symObjAddr: 0x80E0, symBinAddr: 0x10000A604, symSize: 0x2C }
  - { offsetInCU: 0x4CE12, offset: 0x4CE12, size: 0x8, addend: 0x0, symName: __ZN5Eigen5BlockIKNS0_IKNS_6MatrixIdLin1ELin1ELi0ELin1ELin1EEELin1ELi1ELb1EEELin1ELi1ELb1EEC1ERS5_l, symObjAddr: 0x810C, symBinAddr: 0x10000A630, symSize: 0x3C }
  - { offsetInCU: 0x4CE58, offset: 0x4CE58, size: 0x8, addend: 0x0, symName: __ZN5Eigen5BlockIKNS0_IKNS_6MatrixIdLin1ELin1ELi0ELin1ELin1EEELin1ELi1ELb1EEELin1ELi1ELb1EEC2ERS5_l, symObjAddr: 0x8148, symBinAddr: 0x10000A66C, symSize: 0xAC }
  - { offsetInCU: 0x4CE9E, offset: 0x4CE9E, size: 0x8, addend: 0x0, symName: __ZN5Eigen9BlockImplIKNS_5BlockIKNS_6MatrixIdLin1ELin1ELi0ELin1ELin1EEELin1ELi1ELb1EEELin1ELi1ELb1ENS_5DenseEEC2ERS6_l, symObjAddr: 0x81F4, symBinAddr: 0x10000A718, symSize: 0x3C }
  - { offsetInCU: 0x4CEE4, offset: 0x4CEE4, size: 0x8, addend: 0x0, symName: __ZN5Eigen8internal15BlockImpl_denseIKNS_5BlockIKNS_6MatrixIdLin1ELin1ELi0ELin1ELin1EEELin1ELi1ELb1EEELin1ELi1ELb1ELb1EEC2ERS7_l, symObjAddr: 0x8230, symBinAddr: 0x10000A754, symSize: 0xB8 }
  - { offsetInCU: 0x4CF2C, offset: 0x4CF2C, size: 0x8, addend: 0x0, symName: __ZN5Eigen7MapBaseINS_5BlockIKNS1_IKNS_6MatrixIdLin1ELin1ELi0ELin1ELin1EEELin1ELi1ELb1EEELin1ELi1ELb1EEELi0EEC2EPKdll, symObjAddr: 0x82E8, symBinAddr: 0x10000A80C, symSize: 0x11C }
  - { offsetInCU: 0x4CF80, offset: 0x4CF80, size: 0x8, addend: 0x0, symName: __ZN5Eigen8internal19variable_if_dynamicIlLi0EEC1El, symObjAddr: 0x8404, symBinAddr: 0x10000A928, symSize: 0x34 }
  - { offsetInCU: 0x4CFB8, offset: 0x4CFB8, size: 0x8, addend: 0x0, symName: __ZN5Eigen8internal15BlockImpl_denseIKNS_5BlockIKNS_6MatrixIdLin1ELin1ELi0ELin1ELin1EEELin1ELi1ELb1EEELin1ELi1ELb1ELb1EE4initEv, symObjAddr: 0x8438, symBinAddr: 0x10000A95C, symSize: 0x34 }
  - { offsetInCU: 0x4CFDE, offset: 0x4CFDE, size: 0x8, addend: 0x0, symName: __ZN5Eigen10MatrixBaseINS_5BlockIKNS1_IKNS_6MatrixIdLin1ELin1ELi0ELin1ELin1EEELin1ELi1ELb1EEELin1ELi1ELb1EEEEC2Ev, symObjAddr: 0x846C, symBinAddr: 0x10000A990, symSize: 0x2C }
  - { offsetInCU: 0x4D008, offset: 0x4D008, size: 0x8, addend: 0x0, symName: __ZNK5Eigen7MapBaseINS_5BlockIKNS1_IKNS_6MatrixIdLin1ELin1ELi0ELin1ELin1EEELin1ELi1ELb1EEELin1ELi1ELb1EEELi0EE11checkSanityIS7_EEvNS_8internal9enable_ifIXeqsr8internal6traitsIT_EE9AlignmentLi0EEPvE4typeE, symObjAddr: 0x8498, symBinAddr: 0x10000A9BC, symSize: 0x14 }
  - { offsetInCU: 0x4D042, offset: 0x4D042, size: 0x8, addend: 0x0, symName: __ZN5Eigen9DenseBaseINS_5BlockIKNS1_IKNS_6MatrixIdLin1ELin1ELi0ELin1ELin1EEELin1ELi1ELb1EEELin1ELi1ELb1EEEEC2Ev, symObjAddr: 0x84AC, symBinAddr: 0x10000A9D0, symSize: 0x14 }
  - { offsetInCU: 0x4D06C, offset: 0x4D06C, size: 0x8, addend: 0x0, symName: __ZN5Eigen8internal19variable_if_dynamicIlLi0EEC2El, symObjAddr: 0x84C0, symBinAddr: 0x10000A9E4, symSize: 0x64 }
  - { offsetInCU: 0x4D0A4, offset: 0x4D0A4, size: 0x8, addend: 0x0, symName: __ZNK5Eigen15DenseCoeffsBaseINS_5BlockINS_6MatrixIdLin1ELin1ELi0ELin1ELin1EEELin1ELi1ELb1EEELi3EE9colStrideEv, symObjAddr: 0x8524, symBinAddr: 0x10000AA48, symSize: 0x24 }
  - { offsetInCU: 0x4D0CA, offset: 0x4D0CA, size: 0x8, addend: 0x0, symName: __ZNK5Eigen15DenseCoeffsBaseINS_5BlockINS_6MatrixIdLin1ELin1ELi0ELin1ELin1EEELin1ELi1ELb1EEELi3EE9rowStrideEv, symObjAddr: 0x8548, symBinAddr: 0x10000AA6C, symSize: 0x24 }
  - { offsetInCU: 0x4D0F0, offset: 0x4D0F0, size: 0x8, addend: 0x0, symName: __ZNK5Eigen15DenseCoeffsBaseINS_5BlockINS_6MatrixIdLin1ELin1ELi0ELin1ELin1EEELin1ELi1ELb1EEELi3EE11outerStrideEv, symObjAddr: 0x856C, symBinAddr: 0x10000AA90, symSize: 0x38 }
  - { offsetInCU: 0x4D116, offset: 0x4D116, size: 0x8, addend: 0x0, symName: __ZNK5Eigen9EigenBaseINS_5BlockINS_6MatrixIdLin1ELin1ELi0ELin1ELin1EEELin1ELi1ELb1EEEE7derivedEv, symObjAddr: 0x85A4, symBinAddr: 0x10000AAC8, symSize: 0x14 }
  - { offsetInCU: 0x4D13C, offset: 0x4D13C, size: 0x8, addend: 0x0, symName: __ZNK5Eigen8internal15BlockImpl_denseINS_6MatrixIdLin1ELin1ELi0ELin1ELin1EEELin1ELi1ELb1ELb1EE11outerStrideEv, symObjAddr: 0x85B8, symBinAddr: 0x10000AADC, symSize: 0x28 }
  - { offsetInCU: 0x4D162, offset: 0x4D162, size: 0x8, addend: 0x0, symName: __ZNK5Eigen15DenseCoeffsBaseINS_5BlockINS_6MatrixIdLin1ELin1ELi0ELin1ELin1EEELin1ELi1ELb1EEELi3EE11innerStrideEv, symObjAddr: 0x85E0, symBinAddr: 0x10000AB04, symSize: 0x28 }
  - { offsetInCU: 0x4D188, offset: 0x4D188, size: 0x8, addend: 0x0, symName: __ZNK5Eigen8internal15BlockImpl_denseINS_6MatrixIdLin1ELin1ELi0ELin1ELin1EEELin1ELi1ELb1ELb1EE11innerStrideEv, symObjAddr: 0x8608, symBinAddr: 0x10000AB2C, symSize: 0x28 }
  - { offsetInCU: 0x4D1AE, offset: 0x4D1AE, size: 0x8, addend: 0x0, symName: __ZN5Eigen8internal11blas_traitsINS_5BlockIKNS_6MatrixIdLin1ELin1ELi0ELin1ELin1EEELin1ELi1ELb1EEEE7extractERKS6_, symObjAddr: 0x8630, symBinAddr: 0x10000AB54, symSize: 0x14 }
  - { offsetInCU: 0x4D1D2, offset: 0x4D1D2, size: 0x8, addend: 0x0, symName: __ZN5Eigen8internal10get_factorIddE3runERKd, symObjAddr: 0x8644, symBinAddr: 0x10000AB68, symSize: 0x24 }
  - { offsetInCU: 0x4D29C, offset: 0x4D29C, size: 0x8, addend: 0x0, symName: __ZN5Eigen7MapBaseINS_5BlockINS_6MatrixIdLin1ELin1ELi0ELin1ELin1EEELin1ELi1ELb1EEELi1EE4dataEv, symObjAddr: 0x9C3C, symBinAddr: 0x10000C160, symSize: 0x18 }
  - { offsetInCU: 0x4D2C2, offset: 0x4D2C2, size: 0x8, addend: 0x0, symName: __ZN5Eigen8internal11blas_traitsINS_5BlockIKNS_6MatrixIdLin1ELin1ELi0ELin1ELin1EEELin1ELi1ELb1EEEE19extractScalarFactorERKS6_, symObjAddr: 0x9C54, symBinAddr: 0x10000C178, symSize: 0x14 }
  - { offsetInCU: 0x4D2E2, offset: 0x4D2E2, size: 0x8, addend: 0x0, symName: __ZN5Eigen8internal17real_default_implIdLb0EE3runERKd, symObjAddr: 0x9C8C, symBinAddr: 0x10000C1B0, symSize: 0x18 }
  - { offsetInCU: 0x4D305, offset: 0x4D305, size: 0x8, addend: 0x0, symName: __ZNK5Eigen8internal16blas_data_mapperIKdlLi0ELi0ELi1EE6strideEv, symObjAddr: 0x9CB4, symBinAddr: 0x10000C1D8, symSize: 0x18 }
  - { offsetInCU: 0x4D335, offset: 0x4D335, size: 0x8, addend: 0x0, symName: __ZNK5Eigen8internal11conj_helperI19__simd128_float64_tS2_Lb0ELb0EE5pmaddERKS2_S5_S5_, symObjAddr: 0x9CCC, symBinAddr: 0x10000C1F0, symSize: 0x54 }
  - { offsetInCU: 0x4D385, offset: 0x4D385, size: 0x8, addend: 0x0, symName: __ZNK5Eigen8internal7conj_ifILb0EE5pconjI19__simd128_float64_tEERKT_S7_, symObjAddr: 0x9D4C, symBinAddr: 0x10000C270, symSize: 0x18 }
  - { offsetInCU: 0x4D3C2, offset: 0x4D3C2, size: 0x8, addend: 0x0, symName: __ZN5Eigen5BlockINS_6MatrixIdLin1ELin1ELi0ELin1ELin1EEELi1ELin1ELb0EEC1ERS2_l, symObjAddr: 0x9D64, symBinAddr: 0x10000C288, symSize: 0x3C }
  - { offsetInCU: 0x4D408, offset: 0x4D408, size: 0x8, addend: 0x0, symName: __ZN5Eigen5BlockINS_6MatrixIdLin1ELin1ELi0ELin1ELin1EEELi1ELin1ELb0EEC2ERS2_l, symObjAddr: 0x9DA0, symBinAddr: 0x10000C2C4, symSize: 0xCC }
  - { offsetInCU: 0x4D44E, offset: 0x4D44E, size: 0x8, addend: 0x0, symName: __ZN5Eigen9BlockImplINS_6MatrixIdLin1ELin1ELi0ELin1ELin1EEELi1ELin1ELb0ENS_5DenseEEC2ERS2_l, symObjAddr: 0x9E6C, symBinAddr: 0x10000C390, symSize: 0x3C }
  - { offsetInCU: 0x4D494, offset: 0x4D494, size: 0x8, addend: 0x0, symName: __ZN5Eigen8internal15BlockImpl_denseINS_6MatrixIdLin1ELin1ELi0ELin1ELin1EEELi1ELin1ELb0ELb1EEC2ERS3_l, symObjAddr: 0x9EA8, symBinAddr: 0x10000C3CC, symSize: 0xAC }
  - { offsetInCU: 0x4D4DC, offset: 0x4D4DC, size: 0x8, addend: 0x0, symName: __ZN5Eigen7MapBaseINS_5BlockINS_6MatrixIdLin1ELin1ELi0ELin1ELin1EEELi1ELin1ELb0EEELi1EEC2EPdll, symObjAddr: 0x9F54, symBinAddr: 0x10000C478, symSize: 0x44 }
  - { offsetInCU: 0x4D533, offset: 0x4D533, size: 0x8, addend: 0x0, symName: __ZN5Eigen8internal15BlockImpl_denseINS_6MatrixIdLin1ELin1ELi0ELin1ELin1EEELi1ELin1ELb0ELb1EE4initEv, symObjAddr: 0x9F98, symBinAddr: 0x10000C4BC, symSize: 0x34 }
  - { offsetInCU: 0x4D559, offset: 0x4D559, size: 0x8, addend: 0x0, symName: __ZN5Eigen7MapBaseINS_5BlockINS_6MatrixIdLin1ELin1ELi0ELin1ELin1EEELi1ELin1ELb0EEELi0EEC2EPdll, symObjAddr: 0x9FCC, symBinAddr: 0x10000C4F0, symSize: 0x130 }
  - { offsetInCU: 0x4D5AD, offset: 0x4D5AD, size: 0x8, addend: 0x0, symName: __ZN5Eigen10MatrixBaseINS_5BlockINS_6MatrixIdLin1ELin1ELi0ELin1ELin1EEELi1ELin1ELb0EEEEC2Ev, symObjAddr: 0xA0FC, symBinAddr: 0x10000C620, symSize: 0x2C }
  - { offsetInCU: 0x4D5D7, offset: 0x4D5D7, size: 0x8, addend: 0x0, symName: __ZNK5Eigen7MapBaseINS_5BlockINS_6MatrixIdLin1ELin1ELi0ELin1ELin1EEELi1ELin1ELb0EEELi0EE11checkSanityIS4_EEvNS_8internal9enable_ifIXeqsr8internal6traitsIT_EE9AlignmentLi0EEPvE4typeE, symObjAddr: 0xA128, symBinAddr: 0x10000C64C, symSize: 0x14 }
  - { offsetInCU: 0x4D611, offset: 0x4D611, size: 0x8, addend: 0x0, symName: __ZN5Eigen9DenseBaseINS_5BlockINS_6MatrixIdLin1ELin1ELi0ELin1ELin1EEELi1ELin1ELb0EEEEC2Ev, symObjAddr: 0xA13C, symBinAddr: 0x10000C660, symSize: 0x14 }
  - { offsetInCU: 0x4D63B, offset: 0x4D63B, size: 0x8, addend: 0x0, symName: __ZNK5Eigen9DenseBaseINS_5BlockIKNS_6MatrixIdLin1ELin1ELi0ELin1ELin1EEELi1ELin1ELb0EEEE3rowEl, symObjAddr: 0xA150, symBinAddr: 0x10000C674, symSize: 0x3C }
  - { offsetInCU: 0x4D670, offset: 0x4D670, size: 0x8, addend: 0x0, symName: __ZNK5Eigen9DenseBaseINS_5BlockIKNS1_IKNS_6MatrixIdLin1ELin1ELi0ELin1ELin1EEELi1ELin1ELb0EEELi1ELin1ELb1EEEE9conjugateEv, symObjAddr: 0xA18C, symBinAddr: 0x10000C6B0, symSize: 0x24 }
  - { offsetInCU: 0x4D696, offset: 0x4D696, size: 0x8, addend: 0x0, symName: __ZNK5Eigen10MatrixBaseINS_5BlockIKNS1_IKNS_6MatrixIdLin1ELin1ELi0ELin1ELin1EEELi1ELin1ELb0EEELi1ELin1ELb1EEEE3dotINS1_IS4_Lin1ELi1ELb1EEEEENS_20ScalarBinaryOpTraitsIdNS_8internal6traitsIT_E6ScalarENSC_17scalar_product_opIdSG_EEE10ReturnTypeERKNS0_ISE_EE, symObjAddr: 0xA1B0, symBinAddr: 0x10000C6D4, symSize: 0x80 }
  - { offsetInCU: 0x4D6D5, offset: 0x4D6D5, size: 0x8, addend: 0x0, symName: __ZN5Eigen7MapBaseINS_5BlockINS_6MatrixIdLin1ELin1ELi0ELin1ELin1EEELi1ELin1ELb0EEELi1EE8coeffRefEll, symObjAddr: 0xA230, symBinAddr: 0x10000C754, symSize: 0x78 }
  - { offsetInCU: 0x4D723, offset: 0x4D723, size: 0x8, addend: 0x0, symName: __ZN5Eigen8internal19gemv_dense_selectorILi1ELi0ELb1EE3runINS_5BlockIKNS_6MatrixIdLin1ELin1ELi0ELin1ELin1EEELi1ELin1ELb0EEES6_NS4_IS6_Li1ELin1ELb0EEEEEvRKT_RKT0_RT1_RKNSG_6ScalarE, symObjAddr: 0xA2A8, symBinAddr: 0x10000C7CC, symSize: 0x70 }
  - { offsetInCU: 0x4D79A, offset: 0x4D79A, size: 0x8, addend: 0x0, symName: __ZN5Eigen5BlockIKNS0_IKNS_6MatrixIdLin1ELin1ELi0ELin1ELin1EEELi1ELin1ELb0EEELi1ELin1ELb1EEC1ERS5_l, symObjAddr: 0xA318, symBinAddr: 0x10000C83C, symSize: 0x3C }
  - { offsetInCU: 0x4D7E0, offset: 0x4D7E0, size: 0x8, addend: 0x0, symName: __ZN5Eigen5BlockIKNS0_IKNS_6MatrixIdLin1ELin1ELi0ELin1ELin1EEELi1ELin1ELb0EEELi1ELin1ELb1EEC2ERS5_l, symObjAddr: 0xA354, symBinAddr: 0x10000C878, symSize: 0xCC }
  - { offsetInCU: 0x4D826, offset: 0x4D826, size: 0x8, addend: 0x0, symName: __ZN5Eigen9BlockImplIKNS_5BlockIKNS_6MatrixIdLin1ELin1ELi0ELin1ELin1EEELi1ELin1ELb0EEELi1ELin1ELb1ENS_5DenseEEC2ERS6_l, symObjAddr: 0xA420, symBinAddr: 0x10000C944, symSize: 0x3C }
  - { offsetInCU: 0x4D86C, offset: 0x4D86C, size: 0x8, addend: 0x0, symName: __ZN5Eigen8internal15BlockImpl_denseIKNS_5BlockIKNS_6MatrixIdLin1ELin1ELi0ELin1ELin1EEELi1ELin1ELb0EEELi1ELin1ELb1ELb1EEC2ERS7_l, symObjAddr: 0xA45C, symBinAddr: 0x10000C980, symSize: 0xB8 }
  - { offsetInCU: 0x4D8B4, offset: 0x4D8B4, size: 0x8, addend: 0x0, symName: __ZN5Eigen7MapBaseINS_5BlockIKNS1_IKNS_6MatrixIdLin1ELin1ELi0ELin1ELin1EEELi1ELin1ELb0EEELi1ELin1ELb1EEELi0EEC2EPKdll, symObjAddr: 0xA514, symBinAddr: 0x10000CA38, symSize: 0x130 }
  - { offsetInCU: 0x4D908, offset: 0x4D908, size: 0x8, addend: 0x0, symName: __ZN5Eigen8internal15BlockImpl_denseIKNS_5BlockIKNS_6MatrixIdLin1ELin1ELi0ELin1ELin1EEELi1ELin1ELb0EEELi1ELin1ELb1ELb1EE4initEv, symObjAddr: 0xA644, symBinAddr: 0x10000CB68, symSize: 0x34 }
  - { offsetInCU: 0x4D92E, offset: 0x4D92E, size: 0x8, addend: 0x0, symName: __ZN5Eigen10MatrixBaseINS_5BlockIKNS1_IKNS_6MatrixIdLin1ELin1ELi0ELin1ELin1EEELi1ELin1ELb0EEELi1ELin1ELb1EEEEC2Ev, symObjAddr: 0xA678, symBinAddr: 0x10000CB9C, symSize: 0x2C }
  - { offsetInCU: 0x4D958, offset: 0x4D958, size: 0x8, addend: 0x0, symName: __ZNK5Eigen7MapBaseINS_5BlockIKNS1_IKNS_6MatrixIdLin1ELin1ELi0ELin1ELin1EEELi1ELin1ELb0EEELi1ELin1ELb1EEELi0EE11checkSanityIS7_EEvNS_8internal9enable_ifIXeqsr8internal6traitsIT_EE9AlignmentLi0EEPvE4typeE, symObjAddr: 0xA6A4, symBinAddr: 0x10000CBC8, symSize: 0x14 }
  - { offsetInCU: 0x4D992, offset: 0x4D992, size: 0x8, addend: 0x0, symName: __ZN5Eigen9DenseBaseINS_5BlockIKNS1_IKNS_6MatrixIdLin1ELin1ELi0ELin1ELin1EEELi1ELin1ELb0EEELi1ELin1ELb1EEEEC2Ev, symObjAddr: 0xA6B8, symBinAddr: 0x10000CBDC, symSize: 0x14 }
  - { offsetInCU: 0x4D9BC, offset: 0x4D9BC, size: 0x8, addend: 0x0, symName: __ZNK5Eigen9EigenBaseINS_5BlockIKNS1_IKNS_6MatrixIdLin1ELin1ELi0ELin1ELin1EEELi1ELin1ELb0EEELi1ELin1ELb1EEEE7derivedEv, symObjAddr: 0xA6CC, symBinAddr: 0x10000CBF0, symSize: 0x14 }
  - { offsetInCU: 0x4D9E2, offset: 0x4D9E2, size: 0x8, addend: 0x0, symName: __ZNK5Eigen9EigenBaseINS_5BlockIKNS1_IKNS_6MatrixIdLin1ELin1ELi0ELin1ELin1EEELi1ELin1ELb0EEELi1ELin1ELb1EEEE4sizeEv, symObjAddr: 0xA6E0, symBinAddr: 0x10000CC04, symSize: 0x44 }
  - { offsetInCU: 0x4DA08, offset: 0x4DA08, size: 0x8, addend: 0x0, symName: __ZNK5Eigen9EigenBaseINS_5BlockIKNS_6MatrixIdLin1ELin1ELi0ELin1ELin1EEELin1ELi1ELb1EEEE4sizeEv, symObjAddr: 0xA724, symBinAddr: 0x10000CC48, symSize: 0x44 }
  - { offsetInCU: 0x4DA2E, offset: 0x4DA2E, size: 0x8, addend: 0x0, symName: __ZN5Eigen8internal11dot_nocheckINS_5BlockIKNS2_IKNS_6MatrixIdLin1ELin1ELi0ELin1ELin1EEELi1ELin1ELb0EEELi1ELin1ELb1EEENS2_IS5_Lin1ELi1ELb1EEELb1EE3runERKNS_10MatrixBaseIS8_EERKNSB_IS9_EE, symObjAddr: 0xA768, symBinAddr: 0x10000CC8C, symSize: 0x78 }
  - { offsetInCU: 0x4DA5F, offset: 0x4DA5F, size: 0x8, addend: 0x0, symName: __ZNK5Eigen9EigenBaseINS_5BlockIKNS1_IKNS_6MatrixIdLin1ELin1ELi0ELin1ELin1EEELi1ELin1ELb0EEELi1ELin1ELb1EEEE4rowsEv, symObjAddr: 0xA7E0, symBinAddr: 0x10000CD04, symSize: 0x28 }
  - { offsetInCU: 0x4DA85, offset: 0x4DA85, size: 0x8, addend: 0x0, symName: __ZNK5Eigen9EigenBaseINS_5BlockIKNS1_IKNS_6MatrixIdLin1ELin1ELi0ELin1ELin1EEELi1ELin1ELb0EEELi1ELin1ELb1EEEE4colsEv, symObjAddr: 0xA808, symBinAddr: 0x10000CD2C, symSize: 0x28 }
  - { offsetInCU: 0x4DAAB, offset: 0x4DAAB, size: 0x8, addend: 0x0, symName: __ZNK5Eigen7MapBaseINS_5BlockIKNS1_IKNS_6MatrixIdLin1ELin1ELi0ELin1ELin1EEELi1ELin1ELb0EEELi1ELin1ELb1EEELi0EE4rowsEv, symObjAddr: 0xA830, symBinAddr: 0x10000CD54, symSize: 0x20 }
  - { offsetInCU: 0x4DAD1, offset: 0x4DAD1, size: 0x8, addend: 0x0, symName: __ZNK5Eigen7MapBaseINS_5BlockIKNS1_IKNS_6MatrixIdLin1ELin1ELi0ELin1ELin1EEELi1ELin1ELb0EEELi1ELin1ELb1EEELi0EE4colsEv, symObjAddr: 0xA850, symBinAddr: 0x10000CD74, symSize: 0x28 }
  - { offsetInCU: 0x4DAF7, offset: 0x4DAF7, size: 0x8, addend: 0x0, symName: __ZNK5Eigen9EigenBaseINS_5BlockIKNS_6MatrixIdLin1ELin1ELi0ELin1ELin1EEELin1ELi1ELb1EEEE4rowsEv, symObjAddr: 0xA878, symBinAddr: 0x10000CD9C, symSize: 0x28 }
  - { offsetInCU: 0x4DB1D, offset: 0x4DB1D, size: 0x8, addend: 0x0, symName: __ZNK5Eigen9EigenBaseINS_5BlockIKNS_6MatrixIdLin1ELin1ELi0ELin1ELin1EEELin1ELi1ELb1EEEE4colsEv, symObjAddr: 0xA8A0, symBinAddr: 0x10000CDC4, symSize: 0x28 }
  - { offsetInCU: 0x4DB43, offset: 0x4DB43, size: 0x8, addend: 0x0, symName: __ZNK5Eigen9DenseBaseINS_5BlockIKNS1_IKNS_6MatrixIdLin1ELin1ELi0ELin1ELin1EEELi1ELin1ELb0EEELi1ELin1ELb1EEEE9transposeEv, symObjAddr: 0xA8C8, symBinAddr: 0x10000CDEC, symSize: 0x34 }
  - { offsetInCU: 0x4DB6B, offset: 0x4DB6B, size: 0x8, addend: 0x0, symName: __ZNK5Eigen10MatrixBaseINS_9TransposeIKNS_5BlockIKNS2_IKNS_6MatrixIdLin1ELin1ELi0ELin1ELin1EEELi1ELin1ELb0EEELi1ELin1ELb1EEEEEE10binaryExprINS_8internal22scalar_conj_product_opIddEENS2_IS5_Lin1ELi1ELb1EEEEEKNS_13CwiseBinaryOpIT_KSA_KT0_EERKNS0_ISK_EERKSI_, symObjAddr: 0xA8FC, symBinAddr: 0x10000CE20, symSize: 0x54 }
  - { offsetInCU: 0x4DBBF, offset: 0x4DBBF, size: 0x8, addend: 0x0, symName: __ZNK5Eigen9DenseBaseINS_13CwiseBinaryOpINS_8internal22scalar_conj_product_opIddEEKNS_9TransposeIKNS_5BlockIKNS6_IKNS_6MatrixIdLin1ELin1ELi0ELin1ELin1EEELi1ELin1ELb0EEELi1ELin1ELb1EEEEEKNS6_IS9_Lin1ELi1ELb1EEEEEE3sumEv, symObjAddr: 0xA950, symBinAddr: 0x10000CE74, symSize: 0x74 }
  - { offsetInCU: 0x4DBE8, offset: 0x4DBE8, size: 0x8, addend: 0x0, symName: __ZN5Eigen9TransposeIKNS_5BlockIKNS1_IKNS_6MatrixIdLin1ELin1ELi0ELin1ELin1EEELi1ELin1ELb0EEELi1ELin1ELb1EEEEC1ERS8_, symObjAddr: 0xA9C4, symBinAddr: 0x10000CEE8, symSize: 0x34 }
  - { offsetInCU: 0x4DC20, offset: 0x4DC20, size: 0x8, addend: 0x0, symName: __ZN5Eigen9TransposeIKNS_5BlockIKNS1_IKNS_6MatrixIdLin1ELin1ELi0ELin1ELin1EEELi1ELin1ELb0EEELi1ELin1ELb1EEEEC2ERS8_, symObjAddr: 0xA9F8, symBinAddr: 0x10000CF1C, symSize: 0x40 }
  - { offsetInCU: 0x4DC58, offset: 0x4DC58, size: 0x8, addend: 0x0, symName: __ZN5Eigen13TransposeImplIKNS_5BlockIKNS1_IKNS_6MatrixIdLin1ELin1ELi0ELin1ELin1EEELi1ELin1ELb0EEELi1ELin1ELb1EEENS_5DenseEEC2Ev, symObjAddr: 0xAA38, symBinAddr: 0x10000CF5C, symSize: 0x2C }
  - { offsetInCU: 0x4DC82, offset: 0x4DC82, size: 0x8, addend: 0x0, symName: __ZN5Eigen10MatrixBaseINS_9TransposeIKNS_5BlockIKNS2_IKNS_6MatrixIdLin1ELin1ELi0ELin1ELin1EEELi1ELin1ELb0EEELi1ELin1ELb1EEEEEEC2Ev, symObjAddr: 0xAA64, symBinAddr: 0x10000CF88, symSize: 0x2C }
  - { offsetInCU: 0x4DCAC, offset: 0x4DCAC, size: 0x8, addend: 0x0, symName: __ZN5Eigen9DenseBaseINS_9TransposeIKNS_5BlockIKNS2_IKNS_6MatrixIdLin1ELin1ELi0ELin1ELin1EEELi1ELin1ELb0EEELi1ELin1ELb1EEEEEEC2Ev, symObjAddr: 0xAA90, symBinAddr: 0x10000CFB4, symSize: 0x14 }
  - { offsetInCU: 0x4DCD6, offset: 0x4DCD6, size: 0x8, addend: 0x0, symName: __ZNK5Eigen9EigenBaseINS_9TransposeIKNS_5BlockIKNS2_IKNS_6MatrixIdLin1ELin1ELi0ELin1ELin1EEELi1ELin1ELb0EEELi1ELin1ELb1EEEEEE7derivedEv, symObjAddr: 0xAAA4, symBinAddr: 0x10000CFC8, symSize: 0x14 }
  - { offsetInCU: 0x4DCFC, offset: 0x4DCFC, size: 0x8, addend: 0x0, symName: __ZN5Eigen13CwiseBinaryOpINS_8internal22scalar_conj_product_opIddEEKNS_9TransposeIKNS_5BlockIKNS5_IKNS_6MatrixIdLin1ELin1ELi0ELin1ELin1EEELi1ELin1ELb0EEELi1ELin1ELb1EEEEEKNS5_IS8_Lin1ELi1ELb1EEEEC1ERSE_RSG_RKS3_, symObjAddr: 0xAAB8, symBinAddr: 0x10000CFDC, symSize: 0x44 }
  - { offsetInCU: 0x4DD50, offset: 0x4DD50, size: 0x8, addend: 0x0, symName: __ZN5Eigen13CwiseBinaryOpINS_8internal22scalar_conj_product_opIddEEKNS_9TransposeIKNS_5BlockIKNS5_IKNS_6MatrixIdLin1ELin1ELi0ELin1ELin1EEELi1ELin1ELb0EEELi1ELin1ELb1EEEEEKNS5_IS8_Lin1ELi1ELb1EEEEC2ERSE_RSG_RKS3_, symObjAddr: 0xAAFC, symBinAddr: 0x10000D020, symSize: 0x100 }
  - { offsetInCU: 0x4DDA9, offset: 0x4DDA9, size: 0x8, addend: 0x0, symName: __ZN5Eigen17CwiseBinaryOpImplINS_8internal22scalar_conj_product_opIddEEKNS_9TransposeIKNS_5BlockIKNS5_IKNS_6MatrixIdLin1ELin1ELi0ELin1ELin1EEELi1ELin1ELb0EEELi1ELin1ELb1EEEEEKNS5_IS8_Lin1ELi1ELb1EEENS_5DenseEEC2Ev, symObjAddr: 0xABFC, symBinAddr: 0x10000D120, symSize: 0x2C }
  - { offsetInCU: 0x4DDD5, offset: 0x4DDD5, size: 0x8, addend: 0x0, symName: __ZNK5Eigen9TransposeIKNS_5BlockIKNS1_IKNS_6MatrixIdLin1ELin1ELi0ELin1ELin1EEELi1ELin1ELb0EEELi1ELin1ELb1EEEE4rowsEv, symObjAddr: 0xAC28, symBinAddr: 0x10000D14C, symSize: 0x24 }
  - { offsetInCU: 0x4DDFB, offset: 0x4DDFB, size: 0x8, addend: 0x0, symName: __ZNK5Eigen9TransposeIKNS_5BlockIKNS1_IKNS_6MatrixIdLin1ELin1ELi0ELin1ELin1EEELi1ELin1ELb0EEELi1ELin1ELb1EEEE4colsEv, symObjAddr: 0xAC4C, symBinAddr: 0x10000D170, symSize: 0x24 }
  - { offsetInCU: 0x4DE21, offset: 0x4DE21, size: 0x8, addend: 0x0, symName: __ZN5Eigen10MatrixBaseINS_13CwiseBinaryOpINS_8internal22scalar_conj_product_opIddEEKNS_9TransposeIKNS_5BlockIKNS6_IKNS_6MatrixIdLin1ELin1ELi0ELin1ELin1EEELi1ELin1ELb0EEELi1ELin1ELb1EEEEEKNS6_IS9_Lin1ELi1ELb1EEEEEEC2Ev, symObjAddr: 0xAC70, symBinAddr: 0x10000D194, symSize: 0x2C }
  - { offsetInCU: 0x4DE4B, offset: 0x4DE4B, size: 0x8, addend: 0x0, symName: __ZN5Eigen9DenseBaseINS_13CwiseBinaryOpINS_8internal22scalar_conj_product_opIddEEKNS_9TransposeIKNS_5BlockIKNS6_IKNS_6MatrixIdLin1ELin1ELi0ELin1ELin1EEELi1ELin1ELb0EEELi1ELin1ELb1EEEEEKNS6_IS9_Lin1ELi1ELb1EEEEEEC2Ev, symObjAddr: 0xAC9C, symBinAddr: 0x10000D1C0, symSize: 0x14 }
  - { offsetInCU: 0x4DE75, offset: 0x4DE75, size: 0x8, addend: 0x0, symName: __ZNK5Eigen9EigenBaseINS_13CwiseBinaryOpINS_8internal22scalar_conj_product_opIddEEKNS_9TransposeIKNS_5BlockIKNS6_IKNS_6MatrixIdLin1ELin1ELi0ELin1ELin1EEELi1ELin1ELb0EEELi1ELin1ELb1EEEEEKNS6_IS9_Lin1ELi1ELb1EEEEEE4sizeEv, symObjAddr: 0xACB0, symBinAddr: 0x10000D1D4, symSize: 0x44 }
  - { offsetInCU: 0x4DE9B, offset: 0x4DE9B, size: 0x8, addend: 0x0, symName: __ZNK5Eigen9EigenBaseINS_13CwiseBinaryOpINS_8internal22scalar_conj_product_opIddEEKNS_9TransposeIKNS_5BlockIKNS6_IKNS_6MatrixIdLin1ELin1ELi0ELin1ELin1EEELi1ELin1ELb0EEELi1ELin1ELb1EEEEEKNS6_IS9_Lin1ELi1ELb1EEEEEE7derivedEv, symObjAddr: 0xACF4, symBinAddr: 0x10000D218, symSize: 0x14 }
  - { offsetInCU: 0x4DEC1, offset: 0x4DEC1, size: 0x8, addend: 0x0, symName: __ZNK5Eigen9DenseBaseINS_13CwiseBinaryOpINS_8internal22scalar_conj_product_opIddEEKNS_9TransposeIKNS_5BlockIKNS6_IKNS_6MatrixIdLin1ELin1ELi0ELin1ELin1EEELi1ELin1ELb0EEELi1ELin1ELb1EEEEEKNS6_IS9_Lin1ELi1ELb1EEEEEE5reduxINS2_13scalar_sum_opIddEEEEdRKT_, symObjAddr: 0xAD08, symBinAddr: 0x10000D22C, symSize: 0x10C }
  - { offsetInCU: 0x4DF1D, offset: 0x4DF1D, size: 0x8, addend: 0x0, symName: __ZNK5Eigen9EigenBaseINS_13CwiseBinaryOpINS_8internal22scalar_conj_product_opIddEEKNS_9TransposeIKNS_5BlockIKNS6_IKNS_6MatrixIdLin1ELin1ELi0ELin1ELin1EEELi1ELin1ELb0EEELi1ELin1ELb1EEEEEKNS6_IS9_Lin1ELi1ELb1EEEEEE4rowsEv, symObjAddr: 0xAE14, symBinAddr: 0x10000D338, symSize: 0x38 }
  - { offsetInCU: 0x4DF43, offset: 0x4DF43, size: 0x8, addend: 0x0, symName: __ZNK5Eigen9EigenBaseINS_13CwiseBinaryOpINS_8internal22scalar_conj_product_opIddEEKNS_9TransposeIKNS_5BlockIKNS6_IKNS_6MatrixIdLin1ELin1ELi0ELin1ELin1EEELi1ELin1ELb0EEELi1ELin1ELb1EEEEEKNS6_IS9_Lin1ELi1ELb1EEEEEE4colsEv, symObjAddr: 0xAE4C, symBinAddr: 0x10000D370, symSize: 0x38 }
  - { offsetInCU: 0x4DF69, offset: 0x4DF69, size: 0x8, addend: 0x0, symName: __ZNK5Eigen13CwiseBinaryOpINS_8internal22scalar_conj_product_opIddEEKNS_9TransposeIKNS_5BlockIKNS5_IKNS_6MatrixIdLin1ELin1ELi0ELin1ELin1EEELi1ELin1ELb0EEELi1ELin1ELb1EEEEEKNS5_IS8_Lin1ELi1ELb1EEEE4rowsEv, symObjAddr: 0xAE84, symBinAddr: 0x10000D3A8, symSize: 0x28 }
  - { offsetInCU: 0x4DF8F, offset: 0x4DF8F, size: 0x8, addend: 0x0, symName: __ZNK5Eigen13CwiseBinaryOpINS_8internal22scalar_conj_product_opIddEEKNS_9TransposeIKNS_5BlockIKNS5_IKNS_6MatrixIdLin1ELin1ELi0ELin1ELin1EEELi1ELin1ELb0EEELi1ELin1ELb1EEEEEKNS5_IS8_Lin1ELi1ELb1EEEE4colsEv, symObjAddr: 0xAEAC, symBinAddr: 0x10000D3D0, symSize: 0x24 }
  - { offsetInCU: 0x4E073, offset: 0x4E073, size: 0x8, addend: 0x0, symName: __ZN5Eigen8internal15redux_evaluatorINS_13CwiseBinaryOpINS0_22scalar_conj_product_opIddEEKNS_9TransposeIKNS_5BlockIKNS6_IKNS_6MatrixIdLin1ELin1ELi0ELin1ELin1EEELi1ELin1ELb0EEELi1ELin1ELb1EEEEEKNS6_IS9_Lin1ELi1ELb1EEEEEEC1ERKSI_, symObjAddr: 0xAED0, symBinAddr: 0x10000D3F4, symSize: 0x34 }
  - { offsetInCU: 0x4E0B1, offset: 0x4E0B1, size: 0x8, addend: 0x0, symName: __ZN5Eigen8internal10redux_implINS0_13scalar_sum_opIddEENS0_15redux_evaluatorINS_13CwiseBinaryOpINS0_22scalar_conj_product_opIddEEKNS_9TransposeIKNS_5BlockIKNS9_IKNS_6MatrixIdLin1ELin1ELi0ELin1ELin1EEELi1ELin1ELb0EEELi1ELin1ELb1EEEEEKNS9_ISC_Lin1ELi1ELb1EEEEEEELi0ELi0EE3runISL_EEdRKSM_RKS3_RKT_, symObjAddr: 0xAF04, symBinAddr: 0x10000D428, symSize: 0x1E0 }
  - { offsetInCU: 0x4E15C, offset: 0x4E15C, size: 0x8, addend: 0x0, symName: __ZN5Eigen8internal15redux_evaluatorINS_13CwiseBinaryOpINS0_22scalar_conj_product_opIddEEKNS_9TransposeIKNS_5BlockIKNS6_IKNS_6MatrixIdLin1ELin1ELi0ELin1ELin1EEELi1ELin1ELb0EEELi1ELin1ELb1EEEEEKNS6_IS9_Lin1ELi1ELb1EEEEEED1Ev, symObjAddr: 0xB0E4, symBinAddr: 0x10000D608, symSize: 0x2C }
  - { offsetInCU: 0x4E189, offset: 0x4E189, size: 0x8, addend: 0x0, symName: __ZN5Eigen8internal15redux_evaluatorINS_13CwiseBinaryOpINS0_22scalar_conj_product_opIddEEKNS_9TransposeIKNS_5BlockIKNS6_IKNS_6MatrixIdLin1ELin1ELi0ELin1ELin1EEELi1ELin1ELb0EEELi1ELin1ELb1EEEEEKNS6_IS9_Lin1ELi1ELb1EEEEEEC2ERKSI_, symObjAddr: 0xB110, symBinAddr: 0x10000D634, symSize: 0x34 }
  - { offsetInCU: 0x4E1C2, offset: 0x4E1C2, size: 0x8, addend: 0x0, symName: __ZN5Eigen8internal9evaluatorINS_13CwiseBinaryOpINS0_22scalar_conj_product_opIddEEKNS_9TransposeIKNS_5BlockIKNS6_IKNS_6MatrixIdLin1ELin1ELi0ELin1ELin1EEELi1ELin1ELb0EEELi1ELin1ELb1EEEEEKNS6_IS9_Lin1ELi1ELb1EEEEEEC2ERKSI_, symObjAddr: 0xB144, symBinAddr: 0x10000D668, symSize: 0x34 }
  - { offsetInCU: 0x4E1FB, offset: 0x4E1FB, size: 0x8, addend: 0x0, symName: __ZN5Eigen8internal16binary_evaluatorINS_13CwiseBinaryOpINS0_22scalar_conj_product_opIddEEKNS_9TransposeIKNS_5BlockIKNS6_IKNS_6MatrixIdLin1ELin1ELi0ELin1ELin1EEELi1ELin1ELb0EEELi1ELin1ELb1EEEEEKNS6_IS9_Lin1ELi1ELb1EEEEENS0_10IndexBasedESJ_ddEC2ERKSI_, symObjAddr: 0xB178, symBinAddr: 0x10000D69C, symSize: 0x64 }
  - { offsetInCU: 0x4E234, offset: 0x4E234, size: 0x8, addend: 0x0, symName: __ZN5Eigen8internal14evaluator_baseINS_13CwiseBinaryOpINS0_22scalar_conj_product_opIddEEKNS_9TransposeIKNS_5BlockIKNS6_IKNS_6MatrixIdLin1ELin1ELi0ELin1ELin1EEELi1ELin1ELb0EEELi1ELin1ELb1EEEEEKNS6_IS9_Lin1ELi1ELb1EEEEEEC2Ev, symObjAddr: 0xB1DC, symBinAddr: 0x10000D700, symSize: 0x14 }
  - { offsetInCU: 0x4E25E, offset: 0x4E25E, size: 0x8, addend: 0x0, symName: __ZN5Eigen8internal16binary_evaluatorINS_13CwiseBinaryOpINS0_22scalar_conj_product_opIddEEKNS_9TransposeIKNS_5BlockIKNS6_IKNS_6MatrixIdLin1ELin1ELi0ELin1ELin1EEELi1ELin1ELb0EEELi1ELin1ELb1EEEEEKNS6_IS9_Lin1ELi1ELb1EEEEENS0_10IndexBasedESJ_ddE4DataC1ERKSI_, symObjAddr: 0xB1F0, symBinAddr: 0x10000D714, symSize: 0x34 }
  - { offsetInCU: 0x4E297, offset: 0x4E297, size: 0x8, addend: 0x0, symName: __ZN5Eigen8internal14evaluator_baseINS_13CwiseBinaryOpINS0_22scalar_conj_product_opIddEEKNS_9TransposeIKNS_5BlockIKNS6_IKNS_6MatrixIdLin1ELin1ELi0ELin1ELin1EEELi1ELin1ELb0EEELi1ELin1ELb1EEEEEKNS6_IS9_Lin1ELi1ELb1EEEEEED2Ev, symObjAddr: 0xB224, symBinAddr: 0x10000D748, symSize: 0x14 }
  - { offsetInCU: 0x4E2C1, offset: 0x4E2C1, size: 0x8, addend: 0x0, symName: __ZN5Eigen8internal16binary_evaluatorINS_13CwiseBinaryOpINS0_22scalar_conj_product_opIddEEKNS_9TransposeIKNS_5BlockIKNS6_IKNS_6MatrixIdLin1ELin1ELi0ELin1ELin1EEELi1ELin1ELb0EEELi1ELin1ELb1EEEEEKNS6_IS9_Lin1ELi1ELb1EEEEENS0_10IndexBasedESJ_ddE4DataC2ERKSI_, symObjAddr: 0xB238, symBinAddr: 0x10000D75C, symSize: 0xA8 }
  - { offsetInCU: 0x4E2FA, offset: 0x4E2FA, size: 0x8, addend: 0x0, symName: __ZNK5Eigen13CwiseBinaryOpINS_8internal22scalar_conj_product_opIddEEKNS_9TransposeIKNS_5BlockIKNS5_IKNS_6MatrixIdLin1ELin1ELi0ELin1ELin1EEELi1ELin1ELb0EEELi1ELin1ELb1EEEEEKNS5_IS8_Lin1ELi1ELb1EEEE7functorEv, symObjAddr: 0xB2E0, symBinAddr: 0x10000D804, symSize: 0x18 }
  - { offsetInCU: 0x4E320, offset: 0x4E320, size: 0x8, addend: 0x0, symName: __ZNK5Eigen13CwiseBinaryOpINS_8internal22scalar_conj_product_opIddEEKNS_9TransposeIKNS_5BlockIKNS5_IKNS_6MatrixIdLin1ELin1ELi0ELin1ELin1EEELi1ELin1ELb0EEELi1ELin1ELb1EEEEEKNS5_IS8_Lin1ELi1ELb1EEEE3lhsEv, symObjAddr: 0xB2F8, symBinAddr: 0x10000D81C, symSize: 0x14 }
  - { offsetInCU: 0x4E346, offset: 0x4E346, size: 0x8, addend: 0x0, symName: __ZN5Eigen8internal9evaluatorIKNS_9TransposeIKNS_5BlockIKNS3_IKNS_6MatrixIdLin1ELin1ELi0ELin1ELin1EEELi1ELin1ELb0EEELi1ELin1ELb1EEEEEEC1ERSC_, symObjAddr: 0xB30C, symBinAddr: 0x10000D830, symSize: 0x34 }
  - { offsetInCU: 0x4E37E, offset: 0x4E37E, size: 0x8, addend: 0x0, symName: __ZNK5Eigen13CwiseBinaryOpINS_8internal22scalar_conj_product_opIddEEKNS_9TransposeIKNS_5BlockIKNS5_IKNS_6MatrixIdLin1ELin1ELi0ELin1ELin1EEELi1ELin1ELb0EEELi1ELin1ELb1EEEEEKNS5_IS8_Lin1ELi1ELb1EEEE3rhsEv, symObjAddr: 0xB340, symBinAddr: 0x10000D864, symSize: 0x18 }
  - { offsetInCU: 0x4E3A4, offset: 0x4E3A4, size: 0x8, addend: 0x0, symName: __ZN5Eigen8internal9evaluatorIKNS_9TransposeIKNS_5BlockIKNS3_IKNS_6MatrixIdLin1ELin1ELi0ELin1ELin1EEELi1ELin1ELb0EEELi1ELin1ELb1EEEEEED1Ev, symObjAddr: 0xB358, symBinAddr: 0x10000D87C, symSize: 0x2C }
  - { offsetInCU: 0x4E3D0, offset: 0x4E3D0, size: 0x8, addend: 0x0, symName: __ZN5Eigen8internal9evaluatorIKNS_9TransposeIKNS_5BlockIKNS3_IKNS_6MatrixIdLin1ELin1ELi0ELin1ELin1EEELi1ELin1ELb0EEELi1ELin1ELb1EEEEEEC2ERSC_, symObjAddr: 0xB384, symBinAddr: 0x10000D8A8, symSize: 0x34 }
  - { offsetInCU: 0x4E408, offset: 0x4E408, size: 0x8, addend: 0x0, symName: __ZN5Eigen8internal9evaluatorINS_9TransposeIKNS_5BlockIKNS3_IKNS_6MatrixIdLin1ELin1ELi0ELin1ELin1EEELi1ELin1ELb0EEELi1ELin1ELb1EEEEEEC2ERKSB_, symObjAddr: 0xB3B8, symBinAddr: 0x10000D8DC, symSize: 0x34 }
  - { offsetInCU: 0x4E440, offset: 0x4E440, size: 0x8, addend: 0x0, symName: __ZN5Eigen8internal15unary_evaluatorINS_9TransposeIKNS_5BlockIKNS3_IKNS_6MatrixIdLin1ELin1ELi0ELin1ELin1EEELi1ELin1ELb0EEELi1ELin1ELb1EEEEENS0_10IndexBasedEdEC2ERKSB_, symObjAddr: 0xB3EC, symBinAddr: 0x10000D910, symSize: 0x74 }
  - { offsetInCU: 0x4E479, offset: 0x4E479, size: 0x8, addend: 0x0, symName: __ZN5Eigen8internal14evaluator_baseINS_9TransposeIKNS_5BlockIKNS3_IKNS_6MatrixIdLin1ELin1ELi0ELin1ELin1EEELi1ELin1ELb0EEELi1ELin1ELb1EEEEEEC2Ev, symObjAddr: 0xB460, symBinAddr: 0x10000D984, symSize: 0x14 }
  - { offsetInCU: 0x4E4A3, offset: 0x4E4A3, size: 0x8, addend: 0x0, symName: __ZNK5Eigen9TransposeIKNS_5BlockIKNS1_IKNS_6MatrixIdLin1ELin1ELi0ELin1ELin1EEELi1ELin1ELb0EEELi1ELin1ELb1EEEE16nestedExpressionEv, symObjAddr: 0xB474, symBinAddr: 0x10000D998, symSize: 0x14 }
  - { offsetInCU: 0x4E4C9, offset: 0x4E4C9, size: 0x8, addend: 0x0, symName: __ZN5Eigen8internal9evaluatorIKNS_5BlockIKNS2_IKNS_6MatrixIdLin1ELin1ELi0ELin1ELin1EEELi1ELin1ELb0EEELi1ELin1ELb1EEEEC1ERS9_, symObjAddr: 0xB488, symBinAddr: 0x10000D9AC, symSize: 0x34 }
  - { offsetInCU: 0x4E501, offset: 0x4E501, size: 0x8, addend: 0x0, symName: __ZN5Eigen8internal14evaluator_baseINS_9TransposeIKNS_5BlockIKNS3_IKNS_6MatrixIdLin1ELin1ELi0ELin1ELin1EEELi1ELin1ELb0EEELi1ELin1ELb1EEEEEED2Ev, symObjAddr: 0xB4BC, symBinAddr: 0x10000D9E0, symSize: 0x14 }
  - { offsetInCU: 0x4E52B, offset: 0x4E52B, size: 0x8, addend: 0x0, symName: __ZN5Eigen8internal9evaluatorIKNS_5BlockIKNS2_IKNS_6MatrixIdLin1ELin1ELi0ELin1ELin1EEELi1ELin1ELb0EEELi1ELin1ELb1EEEEC2ERS9_, symObjAddr: 0xB4D0, symBinAddr: 0x10000D9F4, symSize: 0x34 }
  - { offsetInCU: 0x4E563, offset: 0x4E563, size: 0x8, addend: 0x0, symName: __ZN5Eigen8internal9evaluatorINS_5BlockIKNS2_IKNS_6MatrixIdLin1ELin1ELi0ELin1ELin1EEELi1ELin1ELb0EEELi1ELin1ELb1EEEEC2ERKS8_, symObjAddr: 0xB504, symBinAddr: 0x10000DA28, symSize: 0x34 }
  - { offsetInCU: 0x4E59C, offset: 0x4E59C, size: 0x8, addend: 0x0, symName: __ZN5Eigen8internal15block_evaluatorIKNS_5BlockIKNS_6MatrixIdLin1ELin1ELi0ELin1ELin1EEELi1ELin1ELb0EEELi1ELin1ELb1ELb1EEC2ERKNS2_IS7_Li1ELin1ELb1EEE, symObjAddr: 0xB538, symBinAddr: 0x10000DA5C, symSize: 0xDC }
  - { offsetInCU: 0x4E5D5, offset: 0x4E5D5, size: 0x8, addend: 0x0, symName: __ZN5Eigen8internal17mapbase_evaluatorINS_5BlockIKNS2_IKNS_6MatrixIdLin1ELin1ELi0ELin1ELin1EEELi1ELin1ELb0EEELi1ELin1ELb1EEENS3_IdLi1ELin1ELi1ELi1ELin1EEEEC2ERKS8_, symObjAddr: 0xB614, symBinAddr: 0x10000DB38, symSize: 0xB0 }
  - { offsetInCU: 0x4E60E, offset: 0x4E60E, size: 0x8, addend: 0x0, symName: __ZNK5Eigen7MapBaseINS_5BlockIKNS1_IKNS_6MatrixIdLin1ELin1ELi0ELin1ELin1EEELi1ELin1ELb0EEELi1ELin1ELb1EEELi0EE4dataEv, symObjAddr: 0xB6C4, symBinAddr: 0x10000DBE8, symSize: 0x18 }
  - { offsetInCU: 0x4E634, offset: 0x4E634, size: 0x8, addend: 0x0, symName: __ZN5Eigen8internal17mapbase_evaluatorINS_5BlockIKNS2_IKNS_6MatrixIdLin1ELin1ELi0ELin1ELin1EEELi1ELin1ELb0EEELi1ELin1ELb1EEENS3_IdLi1ELin1ELi1ELi1ELin1EEEED2Ev, symObjAddr: 0xB6DC, symBinAddr: 0x10000DC00, symSize: 0x2C }
  - { offsetInCU: 0x4E661, offset: 0x4E661, size: 0x8, addend: 0x0, symName: __ZN5Eigen8internal14evaluator_baseINS_5BlockIKNS2_IKNS_6MatrixIdLin1ELin1ELi0ELin1ELin1EEELi1ELin1ELb0EEELi1ELin1ELb1EEEEC2Ev, symObjAddr: 0xB708, symBinAddr: 0x10000DC2C, symSize: 0x14 }
  - { offsetInCU: 0x4E68B, offset: 0x4E68B, size: 0x8, addend: 0x0, symName: __ZNK5Eigen8internal15BlockImpl_denseIKNS_5BlockIKNS_6MatrixIdLin1ELin1ELi0ELin1ELin1EEELi1ELin1ELb0EEELi1ELin1ELb1ELb1EE11innerStrideEv, symObjAddr: 0xB71C, symBinAddr: 0x10000DC40, symSize: 0x28 }
  - { offsetInCU: 0x4E6B1, offset: 0x4E6B1, size: 0x8, addend: 0x0, symName: __ZNK5Eigen8internal15BlockImpl_denseIKNS_5BlockIKNS_6MatrixIdLin1ELin1ELi0ELin1ELin1EEELi1ELin1ELb0EEELi1ELin1ELb1ELb1EE11outerStrideEv, symObjAddr: 0xB744, symBinAddr: 0x10000DC68, symSize: 0x28 }
  - { offsetInCU: 0x4E6D7, offset: 0x4E6D7, size: 0x8, addend: 0x0, symName: __ZN5Eigen8internal14evaluator_baseINS_5BlockIKNS2_IKNS_6MatrixIdLin1ELin1ELi0ELin1ELin1EEELi1ELin1ELb0EEELi1ELin1ELb1EEEED2Ev, symObjAddr: 0xB76C, symBinAddr: 0x10000DC90, symSize: 0x14 }
  - { offsetInCU: 0x4E701, offset: 0x4E701, size: 0x8, addend: 0x0, symName: __ZN5Eigen8internal9evaluatorIKNS_9TransposeIKNS_5BlockIKNS3_IKNS_6MatrixIdLin1ELin1ELi0ELin1ELin1EEELi1ELin1ELb0EEELi1ELin1ELb1EEEEEED2Ev, symObjAddr: 0xB780, symBinAddr: 0x10000DCA4, symSize: 0x2C }
  - { offsetInCU: 0x4E72D, offset: 0x4E72D, size: 0x8, addend: 0x0, symName: __ZN5Eigen8internal9evaluatorINS_9TransposeIKNS_5BlockIKNS3_IKNS_6MatrixIdLin1ELin1ELi0ELin1ELin1EEELi1ELin1ELb0EEELi1ELin1ELb1EEEEEED2Ev, symObjAddr: 0xB7AC, symBinAddr: 0x10000DCD0, symSize: 0x2C }
  - { offsetInCU: 0x4E759, offset: 0x4E759, size: 0x8, addend: 0x0, symName: __ZN5Eigen8internal15unary_evaluatorINS_9TransposeIKNS_5BlockIKNS3_IKNS_6MatrixIdLin1ELin1ELi0ELin1ELin1EEELi1ELin1ELb0EEELi1ELin1ELb1EEEEENS0_10IndexBasedEdED2Ev, symObjAddr: 0xB7D8, symBinAddr: 0x10000DCFC, symSize: 0x34 }
  - { offsetInCU: 0x4E785, offset: 0x4E785, size: 0x8, addend: 0x0, symName: __ZN5Eigen8internal9evaluatorIKNS_5BlockIKNS2_IKNS_6MatrixIdLin1ELin1ELi0ELin1ELin1EEELi1ELin1ELb0EEELi1ELin1ELb1EEEED1Ev, symObjAddr: 0xB80C, symBinAddr: 0x10000DD30, symSize: 0x2C }
  - { offsetInCU: 0x4E7B1, offset: 0x4E7B1, size: 0x8, addend: 0x0, symName: __ZN5Eigen8internal9evaluatorIKNS_5BlockIKNS2_IKNS_6MatrixIdLin1ELin1ELi0ELin1ELin1EEELi1ELin1ELb0EEELi1ELin1ELb1EEEED2Ev, symObjAddr: 0xB838, symBinAddr: 0x10000DD5C, symSize: 0x2C }
  - { offsetInCU: 0x4E7DD, offset: 0x4E7DD, size: 0x8, addend: 0x0, symName: __ZN5Eigen8internal9evaluatorINS_5BlockIKNS2_IKNS_6MatrixIdLin1ELin1ELi0ELin1ELin1EEELi1ELin1ELb0EEELi1ELin1ELb1EEEED2Ev, symObjAddr: 0xB864, symBinAddr: 0x10000DD88, symSize: 0x2C }
  - { offsetInCU: 0x4E80A, offset: 0x4E80A, size: 0x8, addend: 0x0, symName: __ZN5Eigen8internal15block_evaluatorIKNS_5BlockIKNS_6MatrixIdLin1ELin1ELi0ELin1ELin1EEELi1ELin1ELb0EEELi1ELin1ELb1ELb1EED2Ev, symObjAddr: 0xB890, symBinAddr: 0x10000DDB4, symSize: 0x2C }
  - { offsetInCU: 0x4E837, offset: 0x4E837, size: 0x8, addend: 0x0, symName: __ZNK5Eigen8internal15redux_evaluatorINS_13CwiseBinaryOpINS0_22scalar_conj_product_opIddEEKNS_9TransposeIKNS_5BlockIKNS6_IKNS_6MatrixIdLin1ELin1ELi0ELin1ELin1EEELi1ELin1ELb0EEELi1ELin1ELb1EEEEEKNS6_IS9_Lin1ELi1ELb1EEEEEE17coeffByOuterInnerEll, symObjAddr: 0xB8BC, symBinAddr: 0x10000DDE0, symSize: 0x34 }
  - { offsetInCU: 0x4E87B, offset: 0x4E87B, size: 0x8, addend: 0x0, symName: __ZNK5Eigen9DenseBaseINS_13CwiseBinaryOpINS_8internal22scalar_conj_product_opIddEEKNS_9TransposeIKNS_5BlockIKNS6_IKNS_6MatrixIdLin1ELin1ELi0ELin1ELin1EEELi1ELin1ELb0EEELi1ELin1ELb1EEEEEKNS6_IS9_Lin1ELi1ELb1EEEEEE9innerSizeEv, symObjAddr: 0xB8F0, symBinAddr: 0x10000DE14, symSize: 0x24 }
  - { offsetInCU: 0x4E8A1, offset: 0x4E8A1, size: 0x8, addend: 0x0, symName: __ZNK5Eigen9DenseBaseINS_13CwiseBinaryOpINS_8internal22scalar_conj_product_opIddEEKNS_9TransposeIKNS_5BlockIKNS6_IKNS_6MatrixIdLin1ELin1ELi0ELin1ELin1EEELi1ELin1ELb0EEELi1ELin1ELb1EEEEEKNS6_IS9_Lin1ELi1ELb1EEEEEE9outerSizeEv, symObjAddr: 0xB914, symBinAddr: 0x10000DE38, symSize: 0x14 }
  - { offsetInCU: 0x4E8C7, offset: 0x4E8C7, size: 0x8, addend: 0x0, symName: __ZNK5Eigen8internal16binary_evaluatorINS_13CwiseBinaryOpINS0_22scalar_conj_product_opIddEEKNS_9TransposeIKNS_5BlockIKNS6_IKNS_6MatrixIdLin1ELin1ELi0ELin1ELin1EEELi1ELin1ELb0EEELi1ELin1ELb1EEEEEKNS6_IS9_Lin1ELi1ELb1EEEEENS0_10IndexBasedESJ_ddE5coeffEll, symObjAddr: 0xB928, symBinAddr: 0x10000DE4C, symSize: 0x7C }
  - { offsetInCU: 0x4E90B, offset: 0x4E90B, size: 0x8, addend: 0x0, symName: __ZNK5Eigen8internal16binary_evaluatorINS_13CwiseBinaryOpINS0_22scalar_conj_product_opIddEEKNS_9TransposeIKNS_5BlockIKNS6_IKNS_6MatrixIdLin1ELin1ELi0ELin1ELin1EEELi1ELin1ELb0EEELi1ELin1ELb1EEEEEKNS6_IS9_Lin1ELi1ELb1EEEEENS0_10IndexBasedESJ_ddE4Data4funcEv, symObjAddr: 0xB9A4, symBinAddr: 0x10000DEC8, symSize: 0x14 }
  - { offsetInCU: 0x4E931, offset: 0x4E931, size: 0x8, addend: 0x0, symName: __ZNK5Eigen8internal15unary_evaluatorINS_9TransposeIKNS_5BlockIKNS3_IKNS_6MatrixIdLin1ELin1ELi0ELin1ELin1EEELi1ELin1ELb0EEELi1ELin1ELb1EEEEENS0_10IndexBasedEdE5coeffEll, symObjAddr: 0xB9B8, symBinAddr: 0x10000DEDC, symSize: 0x34 }
  - { offsetInCU: 0x4E975, offset: 0x4E975, size: 0x8, addend: 0x0, symName: __ZNK5Eigen8internal17mapbase_evaluatorINS_5BlockIKNS2_IKNS_6MatrixIdLin1ELin1ELi0ELin1ELin1EEELi1ELin1ELb0EEELi1ELin1ELb1EEENS3_IdLi1ELin1ELi1ELi1ELin1EEEE5coeffEll, symObjAddr: 0xB9EC, symBinAddr: 0x10000DF10, symSize: 0x78 }
  - { offsetInCU: 0x4E9B9, offset: 0x4E9B9, size: 0x8, addend: 0x0, symName: __ZNK5Eigen8internal17mapbase_evaluatorINS_5BlockIKNS2_IKNS_6MatrixIdLin1ELin1ELi0ELin1ELin1EEELi1ELin1ELb0EEELi1ELin1ELb1EEENS3_IdLi1ELin1ELi1ELi1ELin1EEEE9colStrideEv, symObjAddr: 0xBA64, symBinAddr: 0x10000DF88, symSize: 0x28 }
  - { offsetInCU: 0x4E9DF, offset: 0x4E9DF, size: 0x8, addend: 0x0, symName: __ZNK5Eigen8internal17mapbase_evaluatorINS_5BlockIKNS2_IKNS_6MatrixIdLin1ELin1ELi0ELin1ELin1EEELi1ELin1ELb0EEELi1ELin1ELb1EEENS3_IdLi1ELin1ELi1ELi1ELin1EEEE9rowStrideEv, symObjAddr: 0xBA8C, symBinAddr: 0x10000DFB0, symSize: 0x20 }
  - { offsetInCU: 0x4EA05, offset: 0x4EA05, size: 0x8, addend: 0x0, symName: __ZN5Eigen8internal15redux_evaluatorINS_13CwiseBinaryOpINS0_22scalar_conj_product_opIddEEKNS_9TransposeIKNS_5BlockIKNS6_IKNS_6MatrixIdLin1ELin1ELi0ELin1ELin1EEELi1ELin1ELb0EEELi1ELin1ELb1EEEEEKNS6_IS9_Lin1ELi1ELb1EEEEEED2Ev, symObjAddr: 0xBAAC, symBinAddr: 0x10000DFD0, symSize: 0x2C }
  - { offsetInCU: 0x4EA32, offset: 0x4EA32, size: 0x8, addend: 0x0, symName: __ZN5Eigen8internal9evaluatorINS_13CwiseBinaryOpINS0_22scalar_conj_product_opIddEEKNS_9TransposeIKNS_5BlockIKNS6_IKNS_6MatrixIdLin1ELin1ELi0ELin1ELin1EEELi1ELin1ELb0EEELi1ELin1ELb1EEEEEKNS6_IS9_Lin1ELi1ELb1EEEEEED2Ev, symObjAddr: 0xBAD8, symBinAddr: 0x10000DFFC, symSize: 0x2C }
  - { offsetInCU: 0x4EA5F, offset: 0x4EA5F, size: 0x8, addend: 0x0, symName: __ZN5Eigen8internal16binary_evaluatorINS_13CwiseBinaryOpINS0_22scalar_conj_product_opIddEEKNS_9TransposeIKNS_5BlockIKNS6_IKNS_6MatrixIdLin1ELin1ELi0ELin1ELin1EEELi1ELin1ELb0EEELi1ELin1ELb1EEEEEKNS6_IS9_Lin1ELi1ELb1EEEEENS0_10IndexBasedESJ_ddED2Ev, symObjAddr: 0xBB04, symBinAddr: 0x10000E028, symSize: 0x34 }
  - { offsetInCU: 0x4EA8B, offset: 0x4EA8B, size: 0x8, addend: 0x0, symName: __ZN5Eigen8internal16binary_evaluatorINS_13CwiseBinaryOpINS0_22scalar_conj_product_opIddEEKNS_9TransposeIKNS_5BlockIKNS6_IKNS_6MatrixIdLin1ELin1ELi0ELin1ELin1EEELi1ELin1ELb0EEELi1ELin1ELb1EEEEEKNS6_IS9_Lin1ELi1ELb1EEEEENS0_10IndexBasedESJ_ddE4DataD1Ev, symObjAddr: 0xBB38, symBinAddr: 0x10000E05C, symSize: 0x2C }
  - { offsetInCU: 0x4EAB8, offset: 0x4EAB8, size: 0x8, addend: 0x0, symName: __ZN5Eigen8internal16binary_evaluatorINS_13CwiseBinaryOpINS0_22scalar_conj_product_opIddEEKNS_9TransposeIKNS_5BlockIKNS6_IKNS_6MatrixIdLin1ELin1ELi0ELin1ELin1EEELi1ELin1ELb0EEELi1ELin1ELb1EEEEEKNS6_IS9_Lin1ELi1ELb1EEEEENS0_10IndexBasedESJ_ddE4DataD2Ev, symObjAddr: 0xBB64, symBinAddr: 0x10000E088, symSize: 0x3C }
  - { offsetInCU: 0x4EAE5, offset: 0x4EAE5, size: 0x8, addend: 0x0, symName: __ZNK5Eigen15DenseCoeffsBaseINS_5BlockINS_6MatrixIdLin1ELin1ELi0ELin1ELin1EEELi1ELin1ELb0EEELi3EE9colStrideEv, symObjAddr: 0xBBA0, symBinAddr: 0x10000E0C4, symSize: 0x24 }
  - { offsetInCU: 0x4EB0B, offset: 0x4EB0B, size: 0x8, addend: 0x0, symName: __ZNK5Eigen15DenseCoeffsBaseINS_5BlockINS_6MatrixIdLin1ELin1ELi0ELin1ELin1EEELi1ELin1ELb0EEELi3EE9rowStrideEv, symObjAddr: 0xBBC4, symBinAddr: 0x10000E0E8, symSize: 0x24 }
  - { offsetInCU: 0x4EB31, offset: 0x4EB31, size: 0x8, addend: 0x0, symName: __ZNK5Eigen15DenseCoeffsBaseINS_5BlockINS_6MatrixIdLin1ELin1ELi0ELin1ELin1EEELi1ELin1ELb0EEELi3EE11innerStrideEv, symObjAddr: 0xBBE8, symBinAddr: 0x10000E10C, symSize: 0x38 }
  - { offsetInCU: 0x4EB57, offset: 0x4EB57, size: 0x8, addend: 0x0, symName: __ZNK5Eigen9EigenBaseINS_5BlockINS_6MatrixIdLin1ELin1ELi0ELin1ELin1EEELi1ELin1ELb0EEEE7derivedEv, symObjAddr: 0xBC20, symBinAddr: 0x10000E144, symSize: 0x14 }
  - { offsetInCU: 0x4EB7D, offset: 0x4EB7D, size: 0x8, addend: 0x0, symName: __ZNK5Eigen8internal15BlockImpl_denseINS_6MatrixIdLin1ELin1ELi0ELin1ELin1EEELi1ELin1ELb0ELb1EE11innerStrideEv, symObjAddr: 0xBC34, symBinAddr: 0x10000E158, symSize: 0x28 }
  - { offsetInCU: 0x4EBA3, offset: 0x4EBA3, size: 0x8, addend: 0x0, symName: __ZNK5Eigen15DenseCoeffsBaseINS_5BlockINS_6MatrixIdLin1ELin1ELi0ELin1ELin1EEELi1ELin1ELb0EEELi3EE11outerStrideEv, symObjAddr: 0xBC5C, symBinAddr: 0x10000E180, symSize: 0x28 }
  - { offsetInCU: 0x4EBC9, offset: 0x4EBC9, size: 0x8, addend: 0x0, symName: __ZNK5Eigen8internal15BlockImpl_denseINS_6MatrixIdLin1ELin1ELi0ELin1ELin1EEELi1ELin1ELb0ELb1EE11outerStrideEv, symObjAddr: 0xBC84, symBinAddr: 0x10000E1A8, symSize: 0x28 }
  - { offsetInCU: 0x4EBEF, offset: 0x4EBEF, size: 0x8, addend: 0x0, symName: __ZN5Eigen9TransposeINS_5BlockINS_6MatrixIdLin1ELin1ELi0ELin1ELin1EEELi1ELin1ELb0EEEEC1ERS4_, symObjAddr: 0xBCAC, symBinAddr: 0x10000E1D0, symSize: 0x34 }
  - { offsetInCU: 0x4EC53, offset: 0x4EC53, size: 0x8, addend: 0x0, symName: __ZNK5Eigen9DenseBaseINS_6MatrixIdLin1ELin1ELi0ELin1ELin1EEEE9transposeEv, symObjAddr: 0xC1AC, symBinAddr: 0x10000E6D0, symSize: 0x34 }
  - { offsetInCU: 0x4EC7B, offset: 0x4EC7B, size: 0x8, addend: 0x0, symName: __ZN5Eigen9TransposeINS_5BlockINS_6MatrixIdLin1ELin1ELi0ELin1ELin1EEELi1ELin1ELb0EEEEC2ERS4_, symObjAddr: 0xC1E0, symBinAddr: 0x10000E704, symSize: 0x40 }
  - { offsetInCU: 0x4ECB3, offset: 0x4ECB3, size: 0x8, addend: 0x0, symName: __ZN5Eigen13TransposeImplINS_5BlockINS_6MatrixIdLin1ELin1ELi0ELin1ELin1EEELi1ELin1ELb0EEENS_5DenseEEC2Ev, symObjAddr: 0xC220, symBinAddr: 0x10000E744, symSize: 0x2C }
  - { offsetInCU: 0x4ECDD, offset: 0x4ECDD, size: 0x8, addend: 0x0, symName: __ZN5Eigen10MatrixBaseINS_9TransposeINS_5BlockINS_6MatrixIdLin1ELin1ELi0ELin1ELin1EEELi1ELin1ELb0EEEEEEC2Ev, symObjAddr: 0xC24C, symBinAddr: 0x10000E770, symSize: 0x2C }
  - { offsetInCU: 0x4ED07, offset: 0x4ED07, size: 0x8, addend: 0x0, symName: __ZN5Eigen9DenseBaseINS_9TransposeINS_5BlockINS_6MatrixIdLin1ELin1ELi0ELin1ELin1EEELi1ELin1ELb0EEEEEEC2Ev, symObjAddr: 0xC278, symBinAddr: 0x10000E79C, symSize: 0x14 }
  - { offsetInCU: 0x4ED31, offset: 0x4ED31, size: 0x8, addend: 0x0, symName: __ZN5Eigen8internal11blas_traitsINS_9TransposeIKNS_6MatrixIdLin1ELin1ELi0ELin1ELin1EEEEEE7extractERKS6_, symObjAddr: 0xC28C, symBinAddr: 0x10000E7B0, symSize: 0x38 }
  - { offsetInCU: 0x4ED55, offset: 0x4ED55, size: 0x8, addend: 0x0, symName: __ZN5Eigen8internal11blas_traitsINS_9TransposeIKNS_5BlockIKNS_6MatrixIdLin1ELin1ELi0ELin1ELin1EEELi1ELin1ELb0EEEEEE7extractERKS9_, symObjAddr: 0xC2C4, symBinAddr: 0x10000E7E8, symSize: 0x38 }
  - { offsetInCU: 0x4ED79, offset: 0x4ED79, size: 0x8, addend: 0x0, symName: __ZNK5Eigen9EigenBaseINS_9TransposeIKNS_5BlockIKNS_6MatrixIdLin1ELin1ELi0ELin1ELin1EEELi1ELin1ELb0EEEEEE4sizeEv, symObjAddr: 0xC2FC, symBinAddr: 0x10000E820, symSize: 0x44 }
  - { offsetInCU: 0x4EDA4, offset: 0x4EDA4, size: 0x8, addend: 0x0, symName: __ZN5Eigen8internal21gemv_static_vector_ifIdLin1ELin1ELb1EE4dataEv, symObjAddr: 0xC340, symBinAddr: 0x10000E864, symSize: 0x14 }
  - { offsetInCU: 0x4EDDE, offset: 0x4EDDE, size: 0x8, addend: 0x0, symName: __ZN5Eigen8internal28aligned_stack_memory_handlerIdEC1EPdmb, symObjAddr: 0xC354, symBinAddr: 0x10000E878, symSize: 0x50 }
  - { offsetInCU: 0x4EE35, offset: 0x4EE35, size: 0x8, addend: 0x0, symName: __ZN5Eigen6StrideILi0ELi0EEC1Ev, symObjAddr: 0xC3A4, symBinAddr: 0x10000E8C8, symSize: 0x2C }
  - { offsetInCU: 0x4EE5F, offset: 0x4EE5F, size: 0x8, addend: 0x0, symName: __ZN5Eigen3MapINS_6MatrixIdLin1ELi1ELi0ELin1ELi1EEELi0ENS_6StrideILi0ELi0EEEEC1EPdlRKS4_, symObjAddr: 0xC3D0, symBinAddr: 0x10000E8F4, symSize: 0x44 }
  - { offsetInCU: 0x4EEB3, offset: 0x4EEB3, size: 0x8, addend: 0x0, symName: __ZN5Eigen3MapINS_6MatrixIdLin1ELi1ELi0ELin1ELi1EEELi0ENS_6StrideILi0ELi0EEEEaSINS_9TransposeIKNS_5BlockIKNS1_IdLin1ELin1ELi0ELin1ELin1EEELi1ELin1ELb0EEEEEEERS5_RKNS_9DenseBaseIT_EE, symObjAddr: 0xC414, symBinAddr: 0x10000E938, symSize: 0x40 }
  - { offsetInCU: 0x4EF31, offset: 0x4EF31, size: 0x8, addend: 0x0, symName: __ZNK5Eigen9TransposeIKNS_6MatrixIdLin1ELin1ELi0ELin1ELin1EEEE4rowsEv, symObjAddr: 0xDBF8, symBinAddr: 0x10001011C, symSize: 0x28 }
  - { offsetInCU: 0x4EF57, offset: 0x4EF57, size: 0x8, addend: 0x0, symName: __ZNK5Eigen9TransposeIKNS_6MatrixIdLin1ELin1ELi0ELin1ELin1EEEE4colsEv, symObjAddr: 0xDC20, symBinAddr: 0x100010144, symSize: 0x28 }
  - { offsetInCU: 0x4EF7D, offset: 0x4EF7D, size: 0x8, addend: 0x0, symName: __ZNK5Eigen13TransposeImplIKNS_6MatrixIdLin1ELin1ELi0ELin1ELin1EEENS_5DenseEE4dataEv, symObjAddr: 0xDC48, symBinAddr: 0x10001016C, symSize: 0x2C }
  - { offsetInCU: 0x4EFA3, offset: 0x4EFA3, size: 0x8, addend: 0x0, symName: __ZNK5Eigen13TransposeImplIKNS_6MatrixIdLin1ELin1ELi0ELin1ELin1EEENS_5DenseEE11outerStrideEv, symObjAddr: 0xDC74, symBinAddr: 0x100010198, symSize: 0x2C }
  - { offsetInCU: 0x4EFC9, offset: 0x4EFC9, size: 0x8, addend: 0x0, symName: __ZN5Eigen13TransposeImplINS_5BlockINS_6MatrixIdLin1ELin1ELi0ELin1ELin1EEELi1ELin1ELb0EEENS_5DenseEE4dataEv, symObjAddr: 0xDCA0, symBinAddr: 0x1000101C4, symSize: 0x2C }
  - { offsetInCU: 0x4EFEF, offset: 0x4EFEF, size: 0x8, addend: 0x0, symName: __ZN5Eigen9DenseBaseINS_9TransposeINS_5BlockINS_6MatrixIdLin1ELin1ELi0ELin1ELin1EEELi1ELin1ELb0EEEEEE3colEl, symObjAddr: 0xDCCC, symBinAddr: 0x1000101F0, symSize: 0x3C }
  - { offsetInCU: 0x4F024, offset: 0x4F024, size: 0x8, addend: 0x0, symName: __ZNK5Eigen8internal15BlockImpl_denseINS_9TransposeINS_5BlockINS_6MatrixIdLin1ELin1ELi0ELin1ELin1EEELi1ELin1ELb0EEEEELin1ELi1ELb1ELb1EE11innerStrideEv, symObjAddr: 0xDD08, symBinAddr: 0x10001022C, symSize: 0x38 }
  - { offsetInCU: 0x4F04A, offset: 0x4F04A, size: 0x8, addend: 0x0, symName: __ZN5Eigen8internal28aligned_stack_memory_handlerIdED1Ev, symObjAddr: 0xDD40, symBinAddr: 0x100010264, symSize: 0x2C }
  - { offsetInCU: 0x4F074, offset: 0x4F074, size: 0x8, addend: 0x0, symName: __ZNK5Eigen9TransposeIKNS_6MatrixIdLin1ELin1ELi0ELin1ELin1EEEE16nestedExpressionEv, symObjAddr: 0xDD6C, symBinAddr: 0x100010290, symSize: 0x18 }
  - { offsetInCU: 0x4F09A, offset: 0x4F09A, size: 0x8, addend: 0x0, symName: __ZN5Eigen9TransposeIKNS_6MatrixIdLin1ELin1ELi0ELin1ELin1EEEEC1ERS3_, symObjAddr: 0xDD84, symBinAddr: 0x1000102A8, symSize: 0x34 }
  - { offsetInCU: 0x4F0D2, offset: 0x4F0D2, size: 0x8, addend: 0x0, symName: __ZN5Eigen9TransposeIKNS_6MatrixIdLin1ELin1ELi0ELin1ELin1EEEEC2ERS3_, symObjAddr: 0xDDB8, symBinAddr: 0x1000102DC, symSize: 0x38 }
  - { offsetInCU: 0x4F10A, offset: 0x4F10A, size: 0x8, addend: 0x0, symName: __ZN5Eigen13TransposeImplIKNS_6MatrixIdLin1ELin1ELi0ELin1ELin1EEENS_5DenseEEC2Ev, symObjAddr: 0xDDF0, symBinAddr: 0x100010314, symSize: 0x2C }
  - { offsetInCU: 0x4F134, offset: 0x4F134, size: 0x8, addend: 0x0, symName: __ZN5Eigen10MatrixBaseINS_9TransposeIKNS_6MatrixIdLin1ELin1ELi0ELin1ELin1EEEEEEC2Ev, symObjAddr: 0xDE1C, symBinAddr: 0x100010340, symSize: 0x2C }
  - { offsetInCU: 0x4F15E, offset: 0x4F15E, size: 0x8, addend: 0x0, symName: __ZN5Eigen9DenseBaseINS_9TransposeIKNS_6MatrixIdLin1ELin1ELi0ELin1ELin1EEEEEEC2Ev, symObjAddr: 0xDE48, symBinAddr: 0x10001036C, symSize: 0x14 }
  - { offsetInCU: 0x4F188, offset: 0x4F188, size: 0x8, addend: 0x0, symName: __ZN5Eigen8internal11blas_traitsINS_5BlockIKNS_6MatrixIdLin1ELin1ELi0ELin1ELin1EEELi1ELin1ELb0EEEE7extractERKS6_, symObjAddr: 0xDE5C, symBinAddr: 0x100010380, symSize: 0x14 }
  - { offsetInCU: 0x4F1AC, offset: 0x4F1AC, size: 0x8, addend: 0x0, symName: __ZN5Eigen8internal11blas_traitsINS_9TransposeIKNS_6MatrixIdLin1ELin1ELi0ELin1ELin1EEEEEE19extractScalarFactorERKS6_, symObjAddr: 0xDE70, symBinAddr: 0x100010394, symSize: 0x28 }
  - { offsetInCU: 0x4F1D0, offset: 0x4F1D0, size: 0x8, addend: 0x0, symName: __ZN5Eigen8internal11blas_traitsINS_9TransposeIKNS_5BlockIKNS_6MatrixIdLin1ELin1ELi0ELin1ELin1EEELi1ELin1ELb0EEEEEE19extractScalarFactorERKS9_, symObjAddr: 0xDE98, symBinAddr: 0x1000103BC, symSize: 0x28 }
  - { offsetInCU: 0x4F1F4, offset: 0x4F1F4, size: 0x8, addend: 0x0, symName: __ZN5Eigen8internal11blas_traitsINS_5BlockIKNS_6MatrixIdLin1ELin1ELi0ELin1ELin1EEELi1ELin1ELb0EEEE19extractScalarFactorERKS6_, symObjAddr: 0xDEC0, symBinAddr: 0x1000103E4, symSize: 0x14 }
  - { offsetInCU: 0x4F214, offset: 0x4F214, size: 0x8, addend: 0x0, symName: __ZNK5Eigen9EigenBaseINS_9TransposeIKNS_5BlockIKNS_6MatrixIdLin1ELin1ELi0ELin1ELin1EEELi1ELin1ELb0EEEEEE4rowsEv, symObjAddr: 0xDED4, symBinAddr: 0x1000103F8, symSize: 0x28 }
  - { offsetInCU: 0x4F23A, offset: 0x4F23A, size: 0x8, addend: 0x0, symName: __ZNK5Eigen9EigenBaseINS_9TransposeIKNS_5BlockIKNS_6MatrixIdLin1ELin1ELi0ELin1ELin1EEELi1ELin1ELb0EEEEEE4colsEv, symObjAddr: 0xDEFC, symBinAddr: 0x100010420, symSize: 0x28 }
  - { offsetInCU: 0x4F260, offset: 0x4F260, size: 0x8, addend: 0x0, symName: __ZN5Eigen8internal28aligned_stack_memory_handlerIdEC2EPdmb, symObjAddr: 0xDF24, symBinAddr: 0x100010448, symSize: 0x5C }
  - { offsetInCU: 0x4F2B7, offset: 0x4F2B7, size: 0x8, addend: 0x0, symName: __ZN5Eigen8internal11noncopyableC2Ev, symObjAddr: 0xDF80, symBinAddr: 0x1000104A4, symSize: 0x14 }
  - { offsetInCU: 0x4F2E1, offset: 0x4F2E1, size: 0x8, addend: 0x0, symName: __ZN5Eigen6StrideILi0ELi0EEC2Ev, symObjAddr: 0xDF94, symBinAddr: 0x1000104B8, symSize: 0x44 }
  - { offsetInCU: 0x4F30B, offset: 0x4F30B, size: 0x8, addend: 0x0, symName: __ZN5Eigen3MapINS_6MatrixIdLin1ELi1ELi0ELin1ELi1EEELi0ENS_6StrideILi0ELi0EEEEC2EPdlRKS4_, symObjAddr: 0xDFD8, symBinAddr: 0x1000104FC, symSize: 0x60 }
  - { offsetInCU: 0x4F35F, offset: 0x4F35F, size: 0x8, addend: 0x0, symName: __ZN5Eigen3MapINS_6MatrixIdLin1ELi1ELi0ELin1ELi1EEELi0ENS_6StrideILi0ELi0EEEE20cast_to_pointer_typeEPd, symObjAddr: 0xE038, symBinAddr: 0x10001055C, symSize: 0x18 }
  - { offsetInCU: 0x4F393, offset: 0x4F393, size: 0x8, addend: 0x0, symName: __ZN5Eigen7MapBaseINS_3MapINS_6MatrixIdLin1ELi1ELi0ELin1ELi1EEELi0ENS_6StrideILi0ELi0EEEEELi1EEC2EPdl, symObjAddr: 0xE050, symBinAddr: 0x100010574, symSize: 0x3C }
  - { offsetInCU: 0x4F3DB, offset: 0x4F3DB, size: 0x8, addend: 0x0, symName: __ZN5Eigen6StrideILi0ELi0EEC1ERKS1_, symObjAddr: 0xE08C, symBinAddr: 0x1000105B0, symSize: 0x34 }
  - { offsetInCU: 0x4F413, offset: 0x4F413, size: 0x8, addend: 0x0, symName: __ZN5Eigen15PlainObjectBaseINS_6MatrixIdLin1ELi1ELi0ELin1ELi1EEEE22_check_template_paramsEv, symObjAddr: 0xE0C0, symBinAddr: 0x1000105E4, symSize: 0x4 }
  - { offsetInCU: 0x4F427, offset: 0x4F427, size: 0x8, addend: 0x0, symName: __ZN5Eigen7MapBaseINS_3MapINS_6MatrixIdLin1ELi1ELi0ELin1ELi1EEELi0ENS_6StrideILi0ELi0EEEEELi0EEC2EPdl, symObjAddr: 0xE0C4, symBinAddr: 0x1000105E8, symSize: 0x120 }
  - { offsetInCU: 0x4F46D, offset: 0x4F46D, size: 0x8, addend: 0x0, symName: __ZN5Eigen10MatrixBaseINS_3MapINS_6MatrixIdLin1ELi1ELi0ELin1ELi1EEELi0ENS_6StrideILi0ELi0EEEEEEC2Ev, symObjAddr: 0xE1E4, symBinAddr: 0x100010708, symSize: 0x2C }
  - { offsetInCU: 0x4F497, offset: 0x4F497, size: 0x8, addend: 0x0, symName: __ZNK5Eigen7MapBaseINS_3MapINS_6MatrixIdLin1ELi1ELi0ELin1ELi1EEELi0ENS_6StrideILi0ELi0EEEEELi0EE11checkSanityIS6_EEvNS_8internal9enable_ifIXeqsr8internal6traitsIT_EE9AlignmentLi0EEPvE4typeE, symObjAddr: 0xE210, symBinAddr: 0x100010734, symSize: 0x14 }
  - { offsetInCU: 0x4F4D1, offset: 0x4F4D1, size: 0x8, addend: 0x0, symName: __ZN5Eigen9DenseBaseINS_3MapINS_6MatrixIdLin1ELi1ELi0ELin1ELi1EEELi0ENS_6StrideILi0ELi0EEEEEEC2Ev, symObjAddr: 0xE224, symBinAddr: 0x100010748, symSize: 0x14 }
  - { offsetInCU: 0x4F4FB, offset: 0x4F4FB, size: 0x8, addend: 0x0, symName: __ZN5Eigen6StrideILi0ELi0EEC2ERKS1_, symObjAddr: 0xE238, symBinAddr: 0x10001075C, symSize: 0x58 }
  - { offsetInCU: 0x4F533, offset: 0x4F533, size: 0x8, addend: 0x0, symName: __ZNK5Eigen6StrideILi0ELi0EE5outerEv, symObjAddr: 0xE290, symBinAddr: 0x1000107B4, symSize: 0x20 }
  - { offsetInCU: 0x4F559, offset: 0x4F559, size: 0x8, addend: 0x0, symName: __ZNK5Eigen6StrideILi0ELi0EE5innerEv, symObjAddr: 0xE2B0, symBinAddr: 0x1000107D4, symSize: 0x20 }
  - { offsetInCU: 0x4F57F, offset: 0x4F57F, size: 0x8, addend: 0x0, symName: __ZN5Eigen8internal19variable_if_dynamicIlLi0EE5valueEv, symObjAddr: 0xE2D0, symBinAddr: 0x1000107F4, symSize: 0x8 }
  - { offsetInCU: 0x4F593, offset: 0x4F593, size: 0x8, addend: 0x0, symName: __ZN5Eigen10MatrixBaseINS_3MapINS_6MatrixIdLin1ELi1ELi0ELin1ELi1EEELi0ENS_6StrideILi0ELi0EEEEEEaSINS_9TransposeIKNS_5BlockIKNS2_IdLin1ELin1ELi0ELin1ELin1EEELi1ELin1ELb0EEEEEEERS6_RKNS_9DenseBaseIT_EE, symObjAddr: 0xE2D8, symBinAddr: 0x1000107FC, symSize: 0x4C }
  - { offsetInCU: 0x4F5D2, offset: 0x4F5D2, size: 0x8, addend: 0x0, symName: __ZN5Eigen9EigenBaseINS_3MapINS_6MatrixIdLin1ELi1ELi0ELin1ELi1EEELi0ENS_6StrideILi0ELi0EEEEEE7derivedEv, symObjAddr: 0xE374, symBinAddr: 0x100010898, symSize: 0x14 }
  - { offsetInCU: 0x4F5F8, offset: 0x4F5F8, size: 0x8, addend: 0x0, symName: __ZN5Eigen8internal10AssignmentINS_3MapINS_6MatrixIdLin1ELi1ELi0ELin1ELi1EEELi0ENS_6StrideILi0ELi0EEEEENS_9TransposeIKNS_5BlockIKNS3_IdLin1ELin1ELi0ELin1ELin1EEELi1ELin1ELb0EEEEENS0_9assign_opIddEENS0_11Dense2DenseEvE3runERS7_RKSE_RKSG_, symObjAddr: 0xE3FC, symBinAddr: 0x100010920, symSize: 0x40 }
  - { offsetInCU: 0x4F63A, offset: 0x4F63A, size: 0x8, addend: 0x0, symName: __ZN5Eigen8internal9evaluatorINS_9TransposeIKNS_5BlockIKNS_6MatrixIdLin1ELin1ELi0ELin1ELin1EEELi1ELin1ELb0EEEEEEC1ERKS9_, symObjAddr: 0xE530, symBinAddr: 0x100010A54, symSize: 0x34 }
  - { offsetInCU: 0x4F681, offset: 0x4F681, size: 0x8, addend: 0x0, symName: __ZN5Eigen8internal9evaluatorINS_3MapINS_6MatrixIdLin1ELi1ELi0ELin1ELi1EEELi0ENS_6StrideILi0ELi0EEEEEEC1ERKS7_, symObjAddr: 0xE65C, symBinAddr: 0x100010B80, symSize: 0x34 }
  - { offsetInCU: 0x4F6BA, offset: 0x4F6BA, size: 0x8, addend: 0x0, symName: __ZNK5Eigen9EigenBaseINS_3MapINS_6MatrixIdLin1ELi1ELi0ELin1ELi1EEELi0ENS_6StrideILi0ELi0EEEEEE18const_cast_derivedEv, symObjAddr: 0xE690, symBinAddr: 0x100010BB4, symSize: 0x14 }
  - { offsetInCU: 0x4F70D, offset: 0x4F70D, size: 0x8, addend: 0x0, symName: __ZN5Eigen8internal31generic_dense_assignment_kernelINS0_9evaluatorINS_3MapINS_6MatrixIdLin1ELi1ELi0ELin1ELi1EEELi0ENS_6StrideILi0ELi0EEEEEEENS2_INS_9TransposeIKNS_5BlockIKNS4_IdLin1ELin1ELi0ELin1ELin1EEELi1ELin1ELb0EEEEEEENS0_9assign_opIddEELi0EEC1ERS9_RKSH_RKSJ_RS8_, symObjAddr: 0xE6A4, symBinAddr: 0x100010BC8, symSize: 0x4C }
  - { offsetInCU: 0x4F778, offset: 0x4F778, size: 0x8, addend: 0x0, symName: __ZN5Eigen8internal21dense_assignment_loopINS0_31generic_dense_assignment_kernelINS0_9evaluatorINS_3MapINS_6MatrixIdLin1ELi1ELi0ELin1ELi1EEELi0ENS_6StrideILi0ELi0EEEEEEENS3_INS_9TransposeIKNS_5BlockIKNS5_IdLin1ELin1ELi0ELin1ELin1EEELi1ELin1ELb0EEEEEEENS0_9assign_opIddEELi0EEELi1ELi0EE3runERSL_, symObjAddr: 0xE6F0, symBinAddr: 0x100010C14, symSize: 0x68 }
  - { offsetInCU: 0x4F7C8, offset: 0x4F7C8, size: 0x8, addend: 0x0, symName: __ZN5Eigen8internal9evaluatorINS_3MapINS_6MatrixIdLin1ELi1ELi0ELin1ELi1EEELi0ENS_6StrideILi0ELi0EEEEEED1Ev, symObjAddr: 0xE758, symBinAddr: 0x100010C7C, symSize: 0x2C }
  - { offsetInCU: 0x4F7F5, offset: 0x4F7F5, size: 0x8, addend: 0x0, symName: __ZN5Eigen8internal9evaluatorINS_9TransposeIKNS_5BlockIKNS_6MatrixIdLin1ELin1ELi0ELin1ELin1EEELi1ELin1ELb0EEEEEED1Ev, symObjAddr: 0xE784, symBinAddr: 0x100010CA8, symSize: 0x2C }
  - { offsetInCU: 0x4F821, offset: 0x4F821, size: 0x8, addend: 0x0, symName: __ZNK5Eigen7MapBaseINS_3MapINS_6MatrixIdLin1ELi1ELi0ELin1ELi1EEELi0ENS_6StrideILi0ELi0EEEEELi0EE4rowsEv, symObjAddr: 0xE7B0, symBinAddr: 0x100010CD4, symSize: 0x28 }
  - { offsetInCU: 0x4F847, offset: 0x4F847, size: 0x8, addend: 0x0, symName: __ZNK5Eigen7MapBaseINS_3MapINS_6MatrixIdLin1ELi1ELi0ELin1ELi1EEELi0ENS_6StrideILi0ELi0EEEEELi0EE4colsEv, symObjAddr: 0xE7D8, symBinAddr: 0x100010CFC, symSize: 0x20 }
  - { offsetInCU: 0x4F86D, offset: 0x4F86D, size: 0x8, addend: 0x0, symName: __ZN5Eigen9DenseBaseINS_3MapINS_6MatrixIdLin1ELi1ELi0ELin1ELi1EEELi0ENS_6StrideILi0ELi0EEEEEE6resizeEll, symObjAddr: 0xE7F8, symBinAddr: 0x100010D1C, symSize: 0xBC }
  - { offsetInCU: 0x4F8B1, offset: 0x4F8B1, size: 0x8, addend: 0x0, symName: __ZNK5Eigen9EigenBaseINS_3MapINS_6MatrixIdLin1ELi1ELi0ELin1ELi1EEELi0ENS_6StrideILi0ELi0EEEEEE4rowsEv, symObjAddr: 0xE8B4, symBinAddr: 0x100010DD8, symSize: 0x38 }
  - { offsetInCU: 0x4F8D7, offset: 0x4F8D7, size: 0x8, addend: 0x0, symName: __ZNK5Eigen9EigenBaseINS_3MapINS_6MatrixIdLin1ELi1ELi0ELin1ELi1EEELi0ENS_6StrideILi0ELi0EEEEEE4colsEv, symObjAddr: 0xE8EC, symBinAddr: 0x100010E10, symSize: 0x28 }
  - { offsetInCU: 0x4F8FD, offset: 0x4F8FD, size: 0x8, addend: 0x0, symName: __ZNK5Eigen9EigenBaseINS_3MapINS_6MatrixIdLin1ELi1ELi0ELin1ELi1EEELi0ENS_6StrideILi0ELi0EEEEEE7derivedEv, symObjAddr: 0xE914, symBinAddr: 0x100010E38, symSize: 0x14 }
  - { offsetInCU: 0x4F923, offset: 0x4F923, size: 0x8, addend: 0x0, symName: __ZN5Eigen8internal9evaluatorINS_3MapINS_6MatrixIdLin1ELi1ELi0ELin1ELi1EEELi0ENS_6StrideILi0ELi0EEEEEEC2ERKS7_, symObjAddr: 0xE928, symBinAddr: 0x100010E4C, symSize: 0x34 }
  - { offsetInCU: 0x4F95C, offset: 0x4F95C, size: 0x8, addend: 0x0, symName: __ZN5Eigen8internal17mapbase_evaluatorINS_3MapINS_6MatrixIdLin1ELi1ELi0ELin1ELi1EEELi0ENS_6StrideILi0ELi0EEEEES4_EC2ERKS7_, symObjAddr: 0xE95C, symBinAddr: 0x100010E80, symSize: 0xC0 }
  - { offsetInCU: 0x4F995, offset: 0x4F995, size: 0x8, addend: 0x0, symName: __ZN5Eigen8internal14evaluator_baseINS_3MapINS_6MatrixIdLin1ELi1ELi0ELin1ELi1EEELi0ENS_6StrideILi0ELi0EEEEEEC2Ev, symObjAddr: 0xEA1C, symBinAddr: 0x100010F40, symSize: 0x14 }
  - { offsetInCU: 0x4F9BF, offset: 0x4F9BF, size: 0x8, addend: 0x0, symName: __ZNK5Eigen7MapBaseINS_3MapINS_6MatrixIdLin1ELi1ELi0ELin1ELi1EEELi0ENS_6StrideILi0ELi0EEEEELi1EE4dataEv, symObjAddr: 0xEA30, symBinAddr: 0x100010F54, symSize: 0x18 }
  - { offsetInCU: 0x4F9E5, offset: 0x4F9E5, size: 0x8, addend: 0x0, symName: __ZNK5Eigen3MapINS_6MatrixIdLin1ELi1ELi0ELin1ELi1EEELi0ENS_6StrideILi0ELi0EEEE11innerStrideEv, symObjAddr: 0xEA48, symBinAddr: 0x100010F6C, symSize: 0x14 }
  - { offsetInCU: 0x4FA0B, offset: 0x4FA0B, size: 0x8, addend: 0x0, symName: __ZNK5Eigen3MapINS_6MatrixIdLin1ELi1ELi0ELin1ELi1EEELi0ENS_6StrideILi0ELi0EEEE11outerStrideEv, symObjAddr: 0xEA5C, symBinAddr: 0x100010F80, symSize: 0x44 }
  - { offsetInCU: 0x4FA31, offset: 0x4FA31, size: 0x8, addend: 0x0, symName: __ZN5Eigen8internal14evaluator_baseINS_3MapINS_6MatrixIdLin1ELi1ELi0ELin1ELi1EEELi0ENS_6StrideILi0ELi0EEEEEED2Ev, symObjAddr: 0xEAA0, symBinAddr: 0x100010FC4, symSize: 0x14 }
  - { offsetInCU: 0x4FA5B, offset: 0x4FA5B, size: 0x8, addend: 0x0, symName: __ZNK5Eigen9EigenBaseINS_3MapINS_6MatrixIdLin1ELi1ELi0ELin1ELi1EEELi0ENS_6StrideILi0ELi0EEEEEE4sizeEv, symObjAddr: 0xEAB4, symBinAddr: 0x100010FD8, symSize: 0x44 }
  - { offsetInCU: 0x4FA81, offset: 0x4FA81, size: 0x8, addend: 0x0, symName: __ZN5Eigen8internal31generic_dense_assignment_kernelINS0_9evaluatorINS_3MapINS_6MatrixIdLin1ELi1ELi0ELin1ELi1EEELi0ENS_6StrideILi0ELi0EEEEEEENS2_INS_9TransposeIKNS_5BlockIKNS4_IdLin1ELin1ELi0ELin1ELin1EEELi1ELin1ELb0EEEEEEENS0_9assign_opIddEELi0EEC2ERS9_RKSH_RKSJ_RS8_, symObjAddr: 0xEAF8, symBinAddr: 0x10001101C, symSize: 0x44 }
  - { offsetInCU: 0x4FAE7, offset: 0x4FAE7, size: 0x8, addend: 0x0, symName: __ZNK5Eigen8internal31generic_dense_assignment_kernelINS0_9evaluatorINS_3MapINS_6MatrixIdLin1ELi1ELi0ELin1ELi1EEELi0ENS_6StrideILi0ELi0EEEEEEENS2_INS_9TransposeIKNS_5BlockIKNS4_IdLin1ELin1ELi0ELin1ELin1EEELi1ELin1ELb0EEEEEEENS0_9assign_opIddEELi0EE4sizeEv, symObjAddr: 0xEB3C, symBinAddr: 0x100011060, symSize: 0x28 }
  - { offsetInCU: 0x4FB0D, offset: 0x4FB0D, size: 0x8, addend: 0x0, symName: __ZN5Eigen8internal31generic_dense_assignment_kernelINS0_9evaluatorINS_3MapINS_6MatrixIdLin1ELi1ELi0ELin1ELi1EEELi0ENS_6StrideILi0ELi0EEEEEEENS2_INS_9TransposeIKNS_5BlockIKNS4_IdLin1ELin1ELi0ELin1ELin1EEELi1ELin1ELb0EEEEEEENS0_9assign_opIddEELi0EE11assignCoeffEl, symObjAddr: 0xEB64, symBinAddr: 0x100011088, symSize: 0x64 }
  - { offsetInCU: 0x4FB42, offset: 0x4FB42, size: 0x8, addend: 0x0, symName: __ZN5Eigen8internal17mapbase_evaluatorINS_3MapINS_6MatrixIdLin1ELi1ELi0ELin1ELi1EEELi0ENS_6StrideILi0ELi0EEEEES4_E8coeffRefEl, symObjAddr: 0xEBC8, symBinAddr: 0x1000110EC, symSize: 0x48 }
  - { offsetInCU: 0x4FB77, offset: 0x4FB77, size: 0x8, addend: 0x0, symName: __ZNK5Eigen8internal15unary_evaluatorINS_9TransposeIKNS_5BlockIKNS_6MatrixIdLin1ELin1ELi0ELin1ELin1EEELi1ELin1ELb0EEEEENS0_10IndexBasedEdE5coeffEl, symObjAddr: 0xEC10, symBinAddr: 0x100011134, symSize: 0x2C }
  - { offsetInCU: 0x4FBAC, offset: 0x4FBAC, size: 0x8, addend: 0x0, symName: __ZNK5Eigen8internal17mapbase_evaluatorINS_5BlockIKNS_6MatrixIdLin1ELin1ELi0ELin1ELin1EEELi1ELin1ELb0EEENS3_IdLi1ELin1ELi1ELi1ELin1EEEE5coeffEl, symObjAddr: 0xEC3C, symBinAddr: 0x100011160, symSize: 0x4C }
  - { offsetInCU: 0x4FBE1, offset: 0x4FBE1, size: 0x8, addend: 0x0, symName: __ZN5Eigen8internal9evaluatorINS_3MapINS_6MatrixIdLin1ELi1ELi0ELin1ELi1EEELi0ENS_6StrideILi0ELi0EEEEEED2Ev, symObjAddr: 0xEC88, symBinAddr: 0x1000111AC, symSize: 0x2C }
  - { offsetInCU: 0x4FC0E, offset: 0x4FC0E, size: 0x8, addend: 0x0, symName: __ZN5Eigen8internal17mapbase_evaluatorINS_3MapINS_6MatrixIdLin1ELi1ELi0ELin1ELi1EEELi0ENS_6StrideILi0ELi0EEEEES4_ED2Ev, symObjAddr: 0xECB4, symBinAddr: 0x1000111D8, symSize: 0x2C }
  - { offsetInCU: 0x4FC3B, offset: 0x4FC3B, size: 0x8, addend: 0x0, symName: __ZNK5Eigen8internal16blas_data_mapperIKdlLi1ELi0ELi1EE6strideEv, symObjAddr: 0xECE0, symBinAddr: 0x100011204, symSize: 0x18 }
  - { offsetInCU: 0x4FC61, offset: 0x4FC61, size: 0x8, addend: 0x0, symName: __ZNK5Eigen9EigenBaseINS_9TransposeIKNS_6MatrixIdLin1ELin1ELi0ELin1ELin1EEEEEE7derivedEv, symObjAddr: 0xED48, symBinAddr: 0x10001126C, symSize: 0x14 }
  - { offsetInCU: 0x4FC87, offset: 0x4FC87, size: 0x8, addend: 0x0, symName: __ZN5Eigen9EigenBaseINS_9TransposeINS_5BlockINS_6MatrixIdLin1ELin1ELi0ELin1ELin1EEELi1ELin1ELb0EEEEEE7derivedEv, symObjAddr: 0xED5C, symBinAddr: 0x100011280, symSize: 0x14 }
  - { offsetInCU: 0x4FCAD, offset: 0x4FCAD, size: 0x8, addend: 0x0, symName: __ZN5Eigen9TransposeINS_5BlockINS_6MatrixIdLin1ELin1ELi0ELin1ELin1EEELi1ELin1ELb0EEEE16nestedExpressionEv, symObjAddr: 0xED70, symBinAddr: 0x100011294, symSize: 0x14 }
  - { offsetInCU: 0x4FCD3, offset: 0x4FCD3, size: 0x8, addend: 0x0, symName: __ZN5Eigen7MapBaseINS_5BlockINS_6MatrixIdLin1ELin1ELi0ELin1ELin1EEELi1ELin1ELb0EEELi1EE4dataEv, symObjAddr: 0xED84, symBinAddr: 0x1000112A8, symSize: 0x18 }
  - { offsetInCU: 0x4FCF9, offset: 0x4FCF9, size: 0x8, addend: 0x0, symName: __ZN5Eigen5BlockINS_9TransposeINS0_INS_6MatrixIdLin1ELin1ELi0ELin1ELin1EEELi1ELin1ELb0EEEEELin1ELi1ELb1EEC1ERS5_l, symObjAddr: 0xED9C, symBinAddr: 0x1000112C0, symSize: 0x3C }
  - { offsetInCU: 0x4FD3F, offset: 0x4FD3F, size: 0x8, addend: 0x0, symName: __ZN5Eigen5BlockINS_9TransposeINS0_INS_6MatrixIdLin1ELin1ELi0ELin1ELin1EEELi1ELin1ELb0EEEEELin1ELi1ELb1EEC2ERS5_l, symObjAddr: 0xEDD8, symBinAddr: 0x1000112FC, symSize: 0xAC }
  - { offsetInCU: 0x4FD85, offset: 0x4FD85, size: 0x8, addend: 0x0, symName: __ZN5Eigen9BlockImplINS_9TransposeINS_5BlockINS_6MatrixIdLin1ELin1ELi0ELin1ELin1EEELi1ELin1ELb0EEEEELin1ELi1ELb1ENS_5DenseEEC2ERS6_l, symObjAddr: 0xEE84, symBinAddr: 0x1000113A8, symSize: 0x3C }
  - { offsetInCU: 0x4FDCB, offset: 0x4FDCB, size: 0x8, addend: 0x0, symName: __ZNK5Eigen9TransposeINS_5BlockINS_6MatrixIdLin1ELin1ELi0ELin1ELin1EEELi1ELin1ELb0EEEE4colsEv, symObjAddr: 0xEEC0, symBinAddr: 0x1000113E4, symSize: 0x24 }
  - { offsetInCU: 0x4FDF1, offset: 0x4FDF1, size: 0x8, addend: 0x0, symName: __ZN5Eigen8internal15BlockImpl_denseINS_9TransposeINS_5BlockINS_6MatrixIdLin1ELin1ELi0ELin1ELin1EEELi1ELin1ELb0EEEEELin1ELi1ELb1ELb1EEC2ERS7_l, symObjAddr: 0xEEE4, symBinAddr: 0x100011408, symSize: 0xB8 }
  - { offsetInCU: 0x4FE39, offset: 0x4FE39, size: 0x8, addend: 0x0, symName: __ZNK5Eigen13TransposeImplINS_5BlockINS_6MatrixIdLin1ELin1ELi0ELin1ELin1EEELi1ELin1ELb0EEENS_5DenseEE11outerStrideEv, symObjAddr: 0xEF9C, symBinAddr: 0x1000114C0, symSize: 0x2C }
  - { offsetInCU: 0x4FE5F, offset: 0x4FE5F, size: 0x8, addend: 0x0, symName: __ZNK5Eigen9TransposeINS_5BlockINS_6MatrixIdLin1ELin1ELi0ELin1ELin1EEELi1ELin1ELb0EEEE4rowsEv, symObjAddr: 0xEFC8, symBinAddr: 0x1000114EC, symSize: 0x24 }
  - { offsetInCU: 0x4FE85, offset: 0x4FE85, size: 0x8, addend: 0x0, symName: __ZN5Eigen7MapBaseINS_5BlockINS_9TransposeINS1_INS_6MatrixIdLin1ELin1ELi0ELin1ELin1EEELi1ELin1ELb0EEEEELin1ELi1ELb1EEELi1EEC2EPdll, symObjAddr: 0xEFEC, symBinAddr: 0x100011510, symSize: 0x44 }
  - { offsetInCU: 0x4FEDC, offset: 0x4FEDC, size: 0x8, addend: 0x0, symName: __ZN5Eigen8internal15BlockImpl_denseINS_9TransposeINS_5BlockINS_6MatrixIdLin1ELin1ELi0ELin1ELin1EEELi1ELin1ELb0EEEEELin1ELi1ELb1ELb1EE4initEv, symObjAddr: 0xF030, symBinAddr: 0x100011554, symSize: 0x34 }
  - { offsetInCU: 0x4FF02, offset: 0x4FF02, size: 0x8, addend: 0x0, symName: __ZNK5Eigen9EigenBaseINS_9TransposeINS_5BlockINS_6MatrixIdLin1ELin1ELi0ELin1ELin1EEELi1ELin1ELb0EEEEEE7derivedEv, symObjAddr: 0xF064, symBinAddr: 0x100011588, symSize: 0x14 }
  - { offsetInCU: 0x4FF28, offset: 0x4FF28, size: 0x8, addend: 0x0, symName: __ZNK5Eigen9TransposeINS_5BlockINS_6MatrixIdLin1ELin1ELi0ELin1ELin1EEELi1ELin1ELb0EEEE16nestedExpressionEv, symObjAddr: 0xF078, symBinAddr: 0x10001159C, symSize: 0x14 }
  - { offsetInCU: 0x4FF4E, offset: 0x4FF4E, size: 0x8, addend: 0x0, symName: __ZNK5Eigen7MapBaseINS_5BlockINS_6MatrixIdLin1ELin1ELi0ELin1ELin1EEELi1ELin1ELb0EEELi0EE4colsEv, symObjAddr: 0xF08C, symBinAddr: 0x1000115B0, symSize: 0x28 }
  - { offsetInCU: 0x4FF74, offset: 0x4FF74, size: 0x8, addend: 0x0, symName: __ZN5Eigen7MapBaseINS_5BlockINS_9TransposeINS1_INS_6MatrixIdLin1ELin1ELi0ELin1ELin1EEELi1ELin1ELb0EEEEELin1ELi1ELb1EEELi0EEC2EPdll, symObjAddr: 0xF0B4, symBinAddr: 0x1000115D8, symSize: 0x11C }
  - { offsetInCU: 0x4FFC8, offset: 0x4FFC8, size: 0x8, addend: 0x0, symName: __ZN5Eigen10MatrixBaseINS_5BlockINS_9TransposeINS1_INS_6MatrixIdLin1ELin1ELi0ELin1ELin1EEELi1ELin1ELb0EEEEELin1ELi1ELb1EEEEC2Ev, symObjAddr: 0xF1D0, symBinAddr: 0x1000116F4, symSize: 0x2C }
  - { offsetInCU: 0x4FFF2, offset: 0x4FFF2, size: 0x8, addend: 0x0, symName: __ZNK5Eigen7MapBaseINS_5BlockINS_9TransposeINS1_INS_6MatrixIdLin1ELin1ELi0ELin1ELin1EEELi1ELin1ELb0EEEEELin1ELi1ELb1EEELi0EE11checkSanityIS7_EEvNS_8internal9enable_ifIXeqsr8internal6traitsIT_EE9AlignmentLi0EEPvE4typeE, symObjAddr: 0xF1FC, symBinAddr: 0x100011720, symSize: 0x14 }
  - { offsetInCU: 0x5002C, offset: 0x5002C, size: 0x8, addend: 0x0, symName: __ZN5Eigen9DenseBaseINS_5BlockINS_9TransposeINS1_INS_6MatrixIdLin1ELin1ELi0ELin1ELin1EEELi1ELin1ELb0EEEEELin1ELi1ELb1EEEEC2Ev, symObjAddr: 0xF210, symBinAddr: 0x100011734, symSize: 0x14 }
  - { offsetInCU: 0x50056, offset: 0x50056, size: 0x8, addend: 0x0, symName: __ZNK5Eigen7MapBaseINS_5BlockINS_6MatrixIdLin1ELin1ELi0ELin1ELin1EEELi1ELin1ELb0EEELi0EE4rowsEv, symObjAddr: 0xF224, symBinAddr: 0x100011748, symSize: 0x20 }
  - { offsetInCU: 0x5007C, offset: 0x5007C, size: 0x8, addend: 0x0, symName: __ZNK5Eigen13TransposeImplINS_5BlockINS_6MatrixIdLin1ELin1ELi0ELin1ELin1EEELi1ELin1ELb0EEENS_5DenseEE11innerStrideEv, symObjAddr: 0xF244, symBinAddr: 0x100011768, symSize: 0x2C }
  - { offsetInCU: 0x500A2, offset: 0x500A2, size: 0x8, addend: 0x0, symName: __ZN5Eigen8internal28aligned_stack_memory_handlerIdED2Ev, symObjAddr: 0xF270, symBinAddr: 0x100011794, symSize: 0x5C }
  - { offsetInCU: 0x500CC, offset: 0x500CC, size: 0x8, addend: 0x0, symName: __ZN5Eigen8internal11noncopyableD2Ev, symObjAddr: 0xF2CC, symBinAddr: 0x1000117F0, symSize: 0x14 }
  - { offsetInCU: 0x500F6, offset: 0x500F6, size: 0x8, addend: 0x0, symName: __ZN5Eigen8internal19gemm_blocking_spaceILi0EddLin1ELin1ELin1ELi1ELb0EEC2Ellllb, symObjAddr: 0xF2E0, symBinAddr: 0x100011804, symSize: 0xDC }
  - { offsetInCU: 0x50188, offset: 0x50188, size: 0x8, addend: 0x0, symName: __ZN5Eigen8internal15level3_blockingIddEC2Ev, symObjAddr: 0xF3BC, symBinAddr: 0x1000118E0, symSize: 0x28 }
  - { offsetInCU: 0x501B2, offset: 0x501B2, size: 0x8, addend: 0x0, symName: __ZN5Eigen8internal10CacheSizesC1Ev, symObjAddr: 0xFDE0, symBinAddr: 0x100012304, symSize: 0x2C }
  - { offsetInCU: 0x501DC, offset: 0x501DC, size: 0x8, addend: 0x0, symName: __ZN5Eigen8internal10CacheSizesC2Ev, symObjAddr: 0xFE0C, symBinAddr: 0x100012330, symSize: 0x88 }
  - { offsetInCU: 0x5023E, offset: 0x5023E, size: 0x8, addend: 0x0, symName: __ZNK5Eigen8internal12gemm_functorIdlNS0_29general_matrix_matrix_productIldLi0ELb0EdLi0ELb0ELi0ELi1EEENS_6MatrixIdLin1ELin1ELi0ELin1ELin1EEES5_S5_NS0_19gemm_blocking_spaceILi0EddLin1ELin1ELin1ELi1ELb0EEEEclEllllPNS0_16GemmParallelInfoIlEE, symObjAddr: 0xFF9C, symBinAddr: 0x1000124C0, symSize: 0x158 }
  - { offsetInCU: 0x503BF, offset: 0x503BF, size: 0x8, addend: 0x0, symName: __ZN5Eigen8internal29general_matrix_matrix_productIldLi0ELb0EdLi0ELb0ELi0ELi1EE3runElllPKdlS4_lPdlldRNS0_15level3_blockingIddEEPNS0_16GemmParallelInfoIlEE, symObjAddr: 0x100F4, symBinAddr: 0x100012618, symSize: 0xBAC }
  - { offsetInCU: 0x50AD8, offset: 0x50AD8, size: 0x8, addend: 0x0, symName: __ZNK5Eigen15PlainObjectBaseINS_6MatrixIdLin1ELin1ELi0ELin1ELin1EEEE8coeffRefEll, symObjAddr: 0x10CA0, symBinAddr: 0x1000131C4, symSize: 0x6C }
  - { offsetInCU: 0x50B1A, offset: 0x50B1A, size: 0x8, addend: 0x0, symName: __ZN5Eigen15PlainObjectBaseINS_6MatrixIdLin1ELin1ELi0ELin1ELin1EEEE8coeffRefEll, symObjAddr: 0x10D0C, symBinAddr: 0x100013230, symSize: 0x6C }
  - { offsetInCU: 0x50B5C, offset: 0x50B5C, size: 0x8, addend: 0x0, symName: __ZNK5Eigen8internal15level3_blockingIddE2kcEv, symObjAddr: 0x10D78, symBinAddr: 0x10001329C, symSize: 0x18 }
  - { offsetInCU: 0x50B82, offset: 0x50B82, size: 0x8, addend: 0x0, symName: __ZNK5Eigen8internal15level3_blockingIddE2mcEv, symObjAddr: 0x10D90, symBinAddr: 0x1000132B4, symSize: 0x18 }
  - { offsetInCU: 0x50BA8, offset: 0x50BA8, size: 0x8, addend: 0x0, symName: __ZNK5Eigen8internal15level3_blockingIddE2ncEv, symObjAddr: 0x10DA8, symBinAddr: 0x1000132CC, symSize: 0x18 }
  - { offsetInCU: 0x50BCE, offset: 0x50BCE, size: 0x8, addend: 0x0, symName: __ZN5Eigen8internal15level3_blockingIddE6blockAEv, symObjAddr: 0x10DD0, symBinAddr: 0x1000132F4, symSize: 0x18 }
  - { offsetInCU: 0x50BF4, offset: 0x50BF4, size: 0x8, addend: 0x0, symName: __ZN5Eigen8internal15level3_blockingIddE6blockBEv, symObjAddr: 0x10DE8, symBinAddr: 0x10001330C, symSize: 0x18 }
  - { offsetInCU: 0x50D0F, offset: 0x50D0F, size: 0x8, addend: 0x0, symName: __ZN5Eigen8internal13gemm_pack_rhsIdlNS0_22const_blas_data_mapperIdlLi0EEELi4ELi0ELb0ELb0EEclEPdRKS3_llll, symObjAddr: 0x1153C, symBinAddr: 0x100013A60, symSize: 0x710 }
  - { offsetInCU: 0x51484, offset: 0x51484, size: 0x8, addend: 0x0, symName: __ZNK5Eigen8internal7conj_ifILb0EEclIdEERKT_S6_, symObjAddr: 0x1841C, symBinAddr: 0x10001A940, symSize: 0x18 }
  - { offsetInCU: 0x514C1, offset: 0x514C1, size: 0x8, addend: 0x0, symName: __ZN5Eigen8internal11gebp_traitsIddLb0ELb0ELi0ELi0EE7initAccER19__simd128_float64_t, symObjAddr: 0x1844C, symBinAddr: 0x10001A970, symSize: 0x38 }
  - { offsetInCU: 0x51500, offset: 0x51500, size: 0x8, addend: 0x0, symName: __ZNK5Eigen8internal11gebp_traitsIddLb0ELb0ELi0ELi0EE7loadLhsI19__simd128_float64_tEEvPKdRT_, symObjAddr: 0x18484, symBinAddr: 0x10001A9A8, symSize: 0x34 }
  - { offsetInCU: 0x5157F, offset: 0x5157F, size: 0x8, addend: 0x0, symName: __ZNK5Eigen8internal11gebp_traitsIddLb0ELb0ELi4ELi0EE7loadRhsEPKdRNS2_11RhsPacketx4E, symObjAddr: 0x184B8, symBinAddr: 0x10001A9DC, symSize: 0x58 }
  - { offsetInCU: 0x515FC, offset: 0x515FC, size: 0x8, addend: 0x0, symName: __ZNK5Eigen8internal11gebp_traitsIddLb0ELb0ELi4ELi0EE4maddERK19__simd128_float64_tRKNS2_11RhsPacketx4ERS3_RdRKNS0_8FixedIntILi0EEE, symObjAddr: 0x18510, symBinAddr: 0x10001AA34, symSize: 0x44 }
  - { offsetInCU: 0x51662, offset: 0x51662, size: 0x8, addend: 0x0, symName: __ZN5Eigen8internal8FixedIntILi0EEC1EPFS2_vE, symObjAddr: 0x18574, symBinAddr: 0x10001AA98, symSize: 0x34 }
  - { offsetInCU: 0x51697, offset: 0x51697, size: 0x8, addend: 0x0, symName: __ZNK5Eigen8internal11gebp_traitsIddLb0ELb0ELi4ELi0EE9updateRhsEPKdRNS2_11RhsPacketx4E, symObjAddr: 0x185A8, symBinAddr: 0x10001AACC, symSize: 0x18 }
  - { offsetInCU: 0x516D3, offset: 0x516D3, size: 0x8, addend: 0x0, symName: __ZNK5Eigen8internal11gebp_traitsIddLb0ELb0ELi4ELi0EE4maddERK19__simd128_float64_tRKNS2_11RhsPacketx4ERS3_RdRKNS0_8FixedIntILi1EEE, symObjAddr: 0x185C0, symBinAddr: 0x10001AAE4, symSize: 0x44 }
  - { offsetInCU: 0x51739, offset: 0x51739, size: 0x8, addend: 0x0, symName: __ZN5Eigen8internal8FixedIntILi1EEC1EPFS2_vE, symObjAddr: 0x18604, symBinAddr: 0x10001AB28, symSize: 0x34 }
  - { offsetInCU: 0x5176E, offset: 0x5176E, size: 0x8, addend: 0x0, symName: __ZNK5Eigen8internal11gebp_traitsIddLb0ELb0ELi4ELi0EE4maddERK19__simd128_float64_tRKNS2_11RhsPacketx4ERS3_RdRKNS0_8FixedIntILi2EEE, symObjAddr: 0x18638, symBinAddr: 0x10001AB5C, symSize: 0x44 }
  - { offsetInCU: 0x517D4, offset: 0x517D4, size: 0x8, addend: 0x0, symName: __ZN5Eigen8internal8FixedIntILi2EEC1EPFS2_vE, symObjAddr: 0x1869C, symBinAddr: 0x10001ABC0, symSize: 0x34 }
  - { offsetInCU: 0x51809, offset: 0x51809, size: 0x8, addend: 0x0, symName: __ZNK5Eigen8internal11gebp_traitsIddLb0ELb0ELi4ELi0EE4maddERK19__simd128_float64_tRKNS2_11RhsPacketx4ERS3_RdRKNS0_8FixedIntILi3EEE, symObjAddr: 0x186D0, symBinAddr: 0x10001ABF4, symSize: 0x44 }
  - { offsetInCU: 0x5186F, offset: 0x5186F, size: 0x8, addend: 0x0, symName: __ZN5Eigen8internal8FixedIntILi3EEC1EPFS2_vE, symObjAddr: 0x18734, symBinAddr: 0x10001AC58, symSize: 0x34 }
  - { offsetInCU: 0x518A4, offset: 0x518A4, size: 0x8, addend: 0x0, symName: __ZNK5Eigen8internal11gebp_traitsIddLb0ELb0ELi0ELi0EE3accERK19__simd128_float64_tS5_RS3_, symObjAddr: 0x18768, symBinAddr: 0x10001AC8C, symSize: 0x40 }
  - { offsetInCU: 0x518F7, offset: 0x518F7, size: 0x8, addend: 0x0, symName: __ZNK5Eigen8internal11gebp_traitsIddLb0ELb0ELi4ELi0EE7loadRhsEPKdRd, symObjAddr: 0x187A8, symBinAddr: 0x10001ACCC, symSize: 0x28 }
  - { offsetInCU: 0x51939, offset: 0x51939, size: 0x8, addend: 0x0, symName: __ZNK5Eigen8internal11gebp_traitsIddLb0ELb0ELi4ELi0EE4maddERK19__simd128_float64_tRKdRS3_RdRKNS0_8FixedIntILi0EEE, symObjAddr: 0x187D0, symBinAddr: 0x10001ACF4, symSize: 0xA4 }
  - { offsetInCU: 0x519AE, offset: 0x519AE, size: 0x8, addend: 0x0, symName: __ZN5Eigen8internal22lhs_process_one_packetILi4ELl2ELl1Eddd19__simd128_float64_tS2_dS2_NS0_11gebp_traitsIddLb0ELb0ELi4ELi0EEENS0_16BlasLinearMapperIdlLi0ELi1EEENS0_16blas_data_mapperIdlLi0ELi0ELi1EEEEclERKS8_PKdSD_dllllllilllll, symObjAddr: 0x18874, symBinAddr: 0x10001AD98, symSize: 0x11AC }
  - { offsetInCU: 0x5261C, offset: 0x5261C, size: 0x8, addend: 0x0, symName: __ZNK5Eigen8internal11conj_helperIddLb0ELb0EE5pmaddERKdS4_S4_, symObjAddr: 0x19A20, symBinAddr: 0x10001BF44, symSize: 0x54 }
  - { offsetInCU: 0x5266C, offset: 0x5266C, size: 0x8, addend: 0x0, symName: __ZNK5Eigen8internal11gebp_traitsIddLb0ELb0ELi4ELi0EE11madd_helperILi0EEEvRK19__simd128_float64_tRKNS2_11RhsPacketx4ERS4_, symObjAddr: 0x19A9C, symBinAddr: 0x10001BFC0, symSize: 0x68 }
  - { offsetInCU: 0x52711, offset: 0x52711, size: 0x8, addend: 0x0, symName: __ZN5Eigen8internal8FixedIntILi0EEC1Ev, symObjAddr: 0x19B04, symBinAddr: 0x10001C028, symSize: 0x2C }
  - { offsetInCU: 0x5273B, offset: 0x5273B, size: 0x8, addend: 0x0, symName: __ZN5Eigen8internal8FixedIntILi0EEC2Ev, symObjAddr: 0x19B30, symBinAddr: 0x10001C054, symSize: 0x14 }
  - { offsetInCU: 0x52765, offset: 0x52765, size: 0x8, addend: 0x0, symName: __ZN5Eigen8internal8FixedIntILi0EEC2EPFS2_vE, symObjAddr: 0x19B44, symBinAddr: 0x10001C068, symSize: 0x18 }
  - { offsetInCU: 0x5279A, offset: 0x5279A, size: 0x8, addend: 0x0, symName: __ZNK5Eigen8internal11gebp_traitsIddLb0ELb0ELi4ELi0EE11madd_helperILi1EEEvRK19__simd128_float64_tRKNS2_11RhsPacketx4ERS4_, symObjAddr: 0x19B5C, symBinAddr: 0x10001C080, symSize: 0x68 }
  - { offsetInCU: 0x5283F, offset: 0x5283F, size: 0x8, addend: 0x0, symName: __ZN5Eigen8internal8FixedIntILi1EEC2EPFS2_vE, symObjAddr: 0x19BC4, symBinAddr: 0x10001C0E8, symSize: 0x18 }
  - { offsetInCU: 0x52874, offset: 0x52874, size: 0x8, addend: 0x0, symName: __ZNK5Eigen8internal11gebp_traitsIddLb0ELb0ELi4ELi0EE11madd_helperILi2EEEvRK19__simd128_float64_tRKNS2_11RhsPacketx4ERS4_, symObjAddr: 0x19BDC, symBinAddr: 0x10001C100, symSize: 0x68 }
  - { offsetInCU: 0x52919, offset: 0x52919, size: 0x8, addend: 0x0, symName: __ZN5Eigen8internal8FixedIntILi2EEC1Ev, symObjAddr: 0x19C44, symBinAddr: 0x10001C168, symSize: 0x2C }
  - { offsetInCU: 0x52943, offset: 0x52943, size: 0x8, addend: 0x0, symName: __ZN5Eigen8internal8FixedIntILi2EEC2Ev, symObjAddr: 0x19C70, symBinAddr: 0x10001C194, symSize: 0x14 }
  - { offsetInCU: 0x5296D, offset: 0x5296D, size: 0x8, addend: 0x0, symName: __ZN5Eigen8internal8FixedIntILi2EEC2EPFS2_vE, symObjAddr: 0x19C84, symBinAddr: 0x10001C1A8, symSize: 0x18 }
  - { offsetInCU: 0x529A2, offset: 0x529A2, size: 0x8, addend: 0x0, symName: __ZNK5Eigen8internal11gebp_traitsIddLb0ELb0ELi4ELi0EE11madd_helperILi3EEEvRK19__simd128_float64_tRKNS2_11RhsPacketx4ERS4_, symObjAddr: 0x19C9C, symBinAddr: 0x10001C1C0, symSize: 0x68 }
  - { offsetInCU: 0x52A47, offset: 0x52A47, size: 0x8, addend: 0x0, symName: __ZN5Eigen8internal8FixedIntILi3EEC1Ev, symObjAddr: 0x19D04, symBinAddr: 0x10001C228, symSize: 0x2C }
  - { offsetInCU: 0x52A71, offset: 0x52A71, size: 0x8, addend: 0x0, symName: __ZN5Eigen8internal8FixedIntILi3EEC2Ev, symObjAddr: 0x19D30, symBinAddr: 0x10001C254, symSize: 0x14 }
  - { offsetInCU: 0x52A9B, offset: 0x52A9B, size: 0x8, addend: 0x0, symName: __ZN5Eigen8internal8FixedIntILi3EEC2EPFS2_vE, symObjAddr: 0x19D44, symBinAddr: 0x10001C268, symSize: 0x18 }
  - { offsetInCU: 0x52AD0, offset: 0x52AD0, size: 0x8, addend: 0x0, symName: __ZN5Eigen8internal22lhs_process_one_packetILi4ELl2ELl1Eddd19__simd128_float64_tS2_dS2_NS0_11gebp_traitsIddLb0ELb0ELi4ELi0EEENS0_16BlasLinearMapperIdlLi0ELi1EEENS0_16blas_data_mapperIdlLi0ELi0ELi1EEEE17peeled_kc_onestepElPKdSB_S4_PS2_PNS4_11RhsPacketx4EPdSC_SC_SC_SC_, symObjAddr: 0x19D5C, symBinAddr: 0x10001C280, symSize: 0x1EC }
  - { offsetInCU: 0x52BA1, offset: 0x52BA1, size: 0x8, addend: 0x0, symName: __ZNK5Eigen8internal11gebp_traitsIddLb0ELb0ELi0ELi0EE16loadLhsUnalignedI19__simd128_float64_tEEvPKdRT_, symObjAddr: 0x19F88, symBinAddr: 0x10001C4AC, symSize: 0x34 }
  - { offsetInCU: 0x52BEE, offset: 0x52BEE, size: 0x8, addend: 0x0, symName: __ZN5Eigen8internal12gemm_functorIdlNS0_29general_matrix_matrix_productIldLi0ELb0EdLi0ELb0ELi0ELi1EEENS_6MatrixIdLin1ELin1ELi0ELin1ELin1EEES5_S5_NS0_19gemm_blocking_spaceILi0EddLin1ELin1ELin1ELi1ELb0EEEEC2ERKS5_SA_RS5_RKdRS7_, symObjAddr: 0x1A024, symBinAddr: 0x10001C548, symSize: 0x54 }
  - { offsetInCU: 0x52C5E, offset: 0x52C5E, size: 0x8, addend: 0x0, symName: __ZN5Eigen8internal19gemm_blocking_spaceILi0EddLin1ELin1ELin1ELi1ELb0EED2Ev, symObjAddr: 0x1A078, symBinAddr: 0x10001C59C, symSize: 0x50 }
  - { offsetInCU: 0x52CA6, offset: 0x52CA6, size: 0x8, addend: 0x0, symName: __ZNKSt3__16chrono10time_pointINS0_12steady_clockENS0_8durationIxNS_5ratioILl1ELl1000000000EEEEEE16time_since_epochB8ue170006Ev, symObjAddr: 0x1A1C0, symBinAddr: 0x10001C6E4, symSize: 0x20 }
  - { offsetInCU: 0x52CD6, offset: 0x52CD6, size: 0x8, addend: 0x0, symName: __ZNSt3__16chrono8durationIxNS_5ratioILl1ELl1000000000EEEEC1B8ue170006IxEERKT_PNS_9enable_ifIXaasr14is_convertibleIS8_xEE5valueooL_ZNS_17integral_constantIbLb0EE5valueEEntsr23treat_as_floating_pointIS6_EE5valueEvE4typeE, symObjAddr: 0x1A1E0, symBinAddr: 0x10001C704, symSize: 0x3C }
  - { offsetInCU: 0x52D22, offset: 0x52D22, size: 0x8, addend: 0x0, symName: __ZNSt3__16chrono8durationIxNS_5ratioILl1ELl1000000000EEEEC2B8ue170006IxEERKT_PNS_9enable_ifIXaasr14is_convertibleIS8_xEE5valueooL_ZNS_17integral_constantIbLb0EE5valueEEntsr23treat_as_floating_pointIS6_EE5valueEvE4typeE, symObjAddr: 0x1A21C, symBinAddr: 0x10001C740, symSize: 0x28 }
  - { offsetInCU: 0x52D6E, offset: 0x52D6E, size: 0x8, addend: 0x0, symName: __ZNSt3__111char_traitsIcE6lengthB8ue170006EPKc, symObjAddr: 0x1A430, symBinAddr: 0x10001C954, symSize: 0x34 }
  - { offsetInCU: 0x52DAF, offset: 0x52DAF, size: 0x8, addend: 0x0, symName: __ZNKSt3__113basic_ostreamIcNS_11char_traitsIcEEE6sentrycvbB8ue170006Ev, symObjAddr: 0x1A464, symBinAddr: 0x10001C988, symSize: 0x1C }
  - { offsetInCU: 0x52DD5, offset: 0x52DD5, size: 0x8, addend: 0x0, symName: __ZNSt3__119ostreambuf_iteratorIcNS_11char_traitsIcEEEC1B8ue170006ERNS_13basic_ostreamIcS2_EE, symObjAddr: 0x1A6C0, symBinAddr: 0x10001CBE4, symSize: 0x34 }
  - { offsetInCU: 0x52E0D, offset: 0x52E0D, size: 0x8, addend: 0x0, symName: __ZNKSt3__18ios_base5flagsB8ue170006Ev, symObjAddr: 0x1A6F4, symBinAddr: 0x10001CC18, symSize: 0x18 }
  - { offsetInCU: 0x52E35, offset: 0x52E35, size: 0x8, addend: 0x0, symName: __ZNKSt3__19basic_iosIcNS_11char_traitsIcEEE4fillB8ue170006Ev, symObjAddr: 0x1A70C, symBinAddr: 0x10001CC30, symSize: 0x64 }
  - { offsetInCU: 0x52E5D, offset: 0x52E5D, size: 0x8, addend: 0x0, symName: __ZNKSt3__119ostreambuf_iteratorIcNS_11char_traitsIcEEE6failedB8ue170006Ev, symObjAddr: 0x1A770, symBinAddr: 0x10001CC94, symSize: 0x24 }
  - { offsetInCU: 0x52E83, offset: 0x52E83, size: 0x8, addend: 0x0, symName: __ZNSt3__19basic_iosIcNS_11char_traitsIcEEE8setstateB8ue170006Ej, symObjAddr: 0x1A794, symBinAddr: 0x10001CCB8, symSize: 0x2C }
  - { offsetInCU: 0x52EB8, offset: 0x52EB8, size: 0x8, addend: 0x0, symName: __ZNKSt3__18ios_base5widthB8ue170006Ev, symObjAddr: 0x1A7C0, symBinAddr: 0x10001CCE4, symSize: 0x18 }
  - { offsetInCU: 0x52EE0, offset: 0x52EE0, size: 0x8, addend: 0x0, symName: __ZNSt3__115basic_streambufIcNS_11char_traitsIcEEE5sputnB8ue170006EPKcl, symObjAddr: 0x1A7D8, symBinAddr: 0x10001CCFC, symSize: 0x3C }
  - { offsetInCU: 0x52F22, offset: 0x52F22, size: 0x8, addend: 0x0, symName: __ZNSt3__112basic_stringIcNS_11char_traitsIcEENS_9allocatorIcEEEC1B8ue170006Emc, symObjAddr: 0x1A814, symBinAddr: 0x10001CD38, symSize: 0x3C }
  - { offsetInCU: 0x52F6A, offset: 0x52F6A, size: 0x8, addend: 0x0, symName: __ZNKSt3__112basic_stringIcNS_11char_traitsIcEENS_9allocatorIcEEE4dataB8ue170006Ev, symObjAddr: 0x1A850, symBinAddr: 0x10001CD74, symSize: 0x28 }
  - { offsetInCU: 0x52F90, offset: 0x52F90, size: 0x8, addend: 0x0, symName: __ZNSt3__18ios_base5widthB8ue170006El, symObjAddr: 0x1A878, symBinAddr: 0x10001CD9C, symSize: 0x2C }
  - { offsetInCU: 0x52FD6, offset: 0x52FD6, size: 0x8, addend: 0x0, symName: __ZNSt3__112basic_stringIcNS_11char_traitsIcEENS_9allocatorIcEEEC2B8ue170006Emc, symObjAddr: 0x1A8A4, symBinAddr: 0x10001CDC8, symSize: 0x4C }
  - { offsetInCU: 0x53024, offset: 0x53024, size: 0x8, addend: 0x0, symName: __ZNSt3__117__compressed_pairINS_12basic_stringIcNS_11char_traitsIcEENS_9allocatorIcEEE5__repES5_EC1B8ue170006INS_18__default_init_tagESA_EEOT_OT0_, symObjAddr: 0x1A8F0, symBinAddr: 0x10001CE14, symSize: 0x3C }
  - { offsetInCU: 0x5307C, offset: 0x5307C, size: 0x8, addend: 0x0, symName: __ZNSt3__117__compressed_pairINS_12basic_stringIcNS_11char_traitsIcEENS_9allocatorIcEEE5__repES5_EC2B8ue170006INS_18__default_init_tagESA_EEOT_OT0_, symObjAddr: 0x1A92C, symBinAddr: 0x10001CE50, symSize: 0x3C }
  - { offsetInCU: 0x530D4, offset: 0x530D4, size: 0x8, addend: 0x0, symName: __ZNSt3__122__compressed_pair_elemINS_12basic_stringIcNS_11char_traitsIcEENS_9allocatorIcEEE5__repELi0ELb0EEC2B8ue170006ENS_18__default_init_tagE, symObjAddr: 0x1A968, symBinAddr: 0x10001CE8C, symSize: 0x14 }
  - { offsetInCU: 0x53109, offset: 0x53109, size: 0x8, addend: 0x0, symName: __ZNSt3__122__compressed_pair_elemINS_9allocatorIcEELi1ELb1EEC2B8ue170006ENS_18__default_init_tagE, symObjAddr: 0x1A97C, symBinAddr: 0x10001CEA0, symSize: 0x2C }
  - { offsetInCU: 0x5313E, offset: 0x5313E, size: 0x8, addend: 0x0, symName: __ZNSt3__19allocatorIcEC2B8ue170006Ev, symObjAddr: 0x1A9A8, symBinAddr: 0x10001CECC, symSize: 0x2C }
  - { offsetInCU: 0x53168, offset: 0x53168, size: 0x8, addend: 0x0, symName: __ZNSt3__116__non_trivial_ifILb1ENS_9allocatorIcEEEC2B8ue170006Ev, symObjAddr: 0x1A9D4, symBinAddr: 0x10001CEF8, symSize: 0x14 }
  - { offsetInCU: 0x53192, offset: 0x53192, size: 0x8, addend: 0x0, symName: __ZNKSt3__112basic_stringIcNS_11char_traitsIcEENS_9allocatorIcEEE13__get_pointerB8ue170006Ev, symObjAddr: 0x1A9FC, symBinAddr: 0x10001CF20, symSize: 0x54 }
  - { offsetInCU: 0x531B8, offset: 0x531B8, size: 0x8, addend: 0x0, symName: __ZNKSt3__112basic_stringIcNS_11char_traitsIcEENS_9allocatorIcEEE9__is_longB8ue170006Ev, symObjAddr: 0x1AA50, symBinAddr: 0x10001CF74, symSize: 0x38 }
  - { offsetInCU: 0x531DE, offset: 0x531DE, size: 0x8, addend: 0x0, symName: __ZNKSt3__112basic_stringIcNS_11char_traitsIcEENS_9allocatorIcEEE18__get_long_pointerB8ue170006Ev, symObjAddr: 0x1AA88, symBinAddr: 0x10001CFAC, symSize: 0x28 }
  - { offsetInCU: 0x53204, offset: 0x53204, size: 0x8, addend: 0x0, symName: __ZNKSt3__112basic_stringIcNS_11char_traitsIcEENS_9allocatorIcEEE19__get_short_pointerB8ue170006Ev, symObjAddr: 0x1AAB0, symBinAddr: 0x10001CFD4, symSize: 0x28 }
  - { offsetInCU: 0x5322A, offset: 0x5322A, size: 0x8, addend: 0x0, symName: __ZNKSt3__117__compressed_pairINS_12basic_stringIcNS_11char_traitsIcEENS_9allocatorIcEEE5__repES5_E5firstB8ue170006Ev, symObjAddr: 0x1AAD8, symBinAddr: 0x10001CFFC, symSize: 0x24 }
  - { offsetInCU: 0x53250, offset: 0x53250, size: 0x8, addend: 0x0, symName: __ZNKSt3__122__compressed_pair_elemINS_12basic_stringIcNS_11char_traitsIcEENS_9allocatorIcEEE5__repELi0ELb0EE5__getB8ue170006Ev, symObjAddr: 0x1AAFC, symBinAddr: 0x10001D020, symSize: 0x14 }
  - { offsetInCU: 0x53276, offset: 0x53276, size: 0x8, addend: 0x0, symName: __ZNSt3__114pointer_traitsIPKcE10pointer_toB8ue170006ERS1_, symObjAddr: 0x1AB10, symBinAddr: 0x10001D034, symSize: 0x14 }
  - { offsetInCU: 0x53299, offset: 0x53299, size: 0x8, addend: 0x0, symName: __ZNSt3__119ostreambuf_iteratorIcNS_11char_traitsIcEEEC2B8ue170006ERNS_13basic_ostreamIcS2_EE, symObjAddr: 0x1AB24, symBinAddr: 0x10001D048, symSize: 0x54 }
  - { offsetInCU: 0x532D1, offset: 0x532D1, size: 0x8, addend: 0x0, symName: __ZNKSt3__19basic_iosIcNS_11char_traitsIcEEE5rdbufB8ue170006Ev, symObjAddr: 0x1AB78, symBinAddr: 0x10001D09C, symSize: 0x24 }
  - { offsetInCU: 0x532F9, offset: 0x532F9, size: 0x8, addend: 0x0, symName: __ZNKSt3__18ios_base5rdbufB8ue170006Ev, symObjAddr: 0x1AB9C, symBinAddr: 0x10001D0C0, symSize: 0x18 }
  - { offsetInCU: 0x5331F, offset: 0x5331F, size: 0x8, addend: 0x0, symName: __ZNSt3__111char_traitsIcE11eq_int_typeB8ue170006Eii, symObjAddr: 0x1ABB4, symBinAddr: 0x10001D0D8, symSize: 0x28 }
  - { offsetInCU: 0x53352, offset: 0x53352, size: 0x8, addend: 0x0, symName: __ZNSt3__111char_traitsIcE3eofB8ue170006Ev, symObjAddr: 0x1ABDC, symBinAddr: 0x10001D100, symSize: 0x8 }
  - { offsetInCU: 0x53366, offset: 0x53366, size: 0x8, addend: 0x0, symName: __ZNKSt3__19basic_iosIcNS_11char_traitsIcEEE5widenB8ue170006Ec, symObjAddr: 0x1ABE4, symBinAddr: 0x10001D108, symSize: 0x84 }
  - { offsetInCU: 0x533D4, offset: 0x533D4, size: 0x8, addend: 0x0, symName: __ZNKSt3__15ctypeIcE5widenB8ue170006Ec, symObjAddr: 0x1AC94, symBinAddr: 0x10001D1B8, symSize: 0x38 }
  - { offsetInCU: 0x53409, offset: 0x53409, size: 0x8, addend: 0x0, symName: __ZNSt3__18ios_base8setstateB8ue170006Ej, symObjAddr: 0x1ACCC, symBinAddr: 0x10001D1F0, symSize: 0x34 }
...
