---
triple:          'arm64-apple-darwin'
binary-path:     '/Users/zhazhahui/mathpackage_test/testeigen_inverse/eigen_inverse'
relocations:
  - { offsetInCU: 0x44, offset: 0x44, size: 0x8, addend: 0x0, symName: __ZN5EigenL4lastE, symObjAddr: 0x3B2F5A, symBinAddr: 0x10003C020, symSize: 0x0 }
  - { offsetInCU: 0x514, offset: 0x514, size: 0x8, addend: 0x0, symName: __ZN5Eigen8internal20manage_caching_sizesENS_6ActionEPlS2_S2_, symObjAddr: 0x10980, symBinAddr: 0x100013B9C, symSize: 0x138 }
  - { offsetInCU: 0x539, offset: 0x539, size: 0x8, addend: 0x0, symName: __ZZN5Eigen8internal20manage_caching_sizesENS_6ActionEPlS2_S2_E12m_cacheSizes, symObjAddr: 0x30F00, symBinAddr: 0x10003C000, symSize: 0x0 }
  - { offsetInCU: 0x88F7, offset: 0x88F7, size: 0x8, addend: 0x0, symName: __ZN5Eigen8internal37evaluateProductBlockingSizesHeuristicIddLi4ElEEvRT2_S3_S3_S2_, symObjAddr: 0x10184, symBinAddr: 0x1000133A0, symSize: 0x7EC }
  - { offsetInCU: 0xA7AD, offset: 0xA7AD, size: 0x8, addend: 0x0, symName: __ZN5Eigen8internal37evaluateProductBlockingSizesHeuristicIddLi1ElEEvRT2_S3_S3_S2_, symObjAddr: 0x260F8, symBinAddr: 0x100029314, symSize: 0x7F0 }
  - { offsetInCU: 0xD800, offset: 0xD800, size: 0x8, addend: 0x0, symName: __ZN5Eigen8internal31conditional_aligned_delete_autoIdLb1EEEvPT_m, symObjAddr: 0x718, symBinAddr: 0x100003934, symSize: 0x28 }
  - { offsetInCU: 0xD84C, offset: 0xD84C, size: 0x8, addend: 0x0, symName: __ZN5Eigen8internal24conditional_aligned_freeILb1EEEvPv, symObjAddr: 0x74C, symBinAddr: 0x100003968, symSize: 0x24 }
  - { offsetInCU: 0xD880, offset: 0xD880, size: 0x8, addend: 0x0, symName: __ZN5Eigen8internal12aligned_freeEPv, symObjAddr: 0x770, symBinAddr: 0x10000398C, symSize: 0x24 }
  - { offsetInCU: 0xD8E2, offset: 0xD8E2, size: 0x8, addend: 0x0, symName: __ZN5Eigen8internal19throw_std_bad_allocEv, symObjAddr: 0xF98, symBinAddr: 0x1000041B4, symSize: 0x34 }
  - { offsetInCU: 0xD91E, offset: 0xD91E, size: 0x8, addend: 0x0, symName: __ZN5Eigen8internal28conditional_aligned_new_autoIdLb1EEEPT_m, symObjAddr: 0x1098, symBinAddr: 0x1000042B4, symSize: 0x84 }
  - { offsetInCU: 0xD98C, offset: 0xD98C, size: 0x8, addend: 0x0, symName: __ZN5Eigen8internal26conditional_aligned_mallocILb1EEEPvm, symObjAddr: 0x111C, symBinAddr: 0x100004338, symSize: 0x24 }
  - { offsetInCU: 0xD9C2, offset: 0xD9C2, size: 0x8, addend: 0x0, symName: __ZN5Eigen8internal14aligned_mallocEm, symObjAddr: 0x1140, symBinAddr: 0x10000435C, symSize: 0xDC }
  - { offsetInCU: 0xDA03, offset: 0xDA03, size: 0x8, addend: 0x0, symName: __ZN5Eigen8internal28check_that_malloc_is_allowedEv, symObjAddr: 0x121C, symBinAddr: 0x100004438, symSize: 0x4 }
  - { offsetInCU: 0xDA1C, offset: 0xDA1C, size: 0x8, addend: 0x0, symName: __ZN5Eigen8internal24call_assignment_no_aliasINS_6MatrixIdLin1ELin1ELi0ELin1ELin1EEENS_14CwiseNullaryOpINS0_16scalar_random_opIdEES3_EENS0_9assign_opIddEEEEvRT_RKT0_RKT1_, symObjAddr: 0x1220, symBinAddr: 0x10000443C, symSize: 0x3C }
  - { offsetInCU: 0xDAF4, offset: 0xDAF4, size: 0x8, addend: 0x0, symName: __ZN5Eigen8internal18check_for_aliasingINS_6MatrixIdLin1ELin1ELi0ELin1ELin1EEENS_14CwiseNullaryOpINS0_16scalar_random_opIdEES3_EEEEvRKT_RKT0_, symObjAddr: 0x12DC, symBinAddr: 0x1000044F8, symSize: 0x60 }
  - { offsetInCU: 0xDB3F, offset: 0xDB3F, size: 0x8, addend: 0x0, symName: __ZN5Eigen8internal26call_dense_assignment_loopINS_6MatrixIdLin1ELin1ELi0ELin1ELin1EEENS_14CwiseNullaryOpINS0_16scalar_random_opIdEES3_EENS0_9assign_opIddEEEEvRT_RKT0_RKT1_, symObjAddr: 0x133C, symBinAddr: 0x100004558, symSize: 0xE0 }
  - { offsetInCU: 0xDD85, offset: 0xDD85, size: 0x8, addend: 0x0, symName: __ZN5Eigen8internal17resize_if_allowedINS_6MatrixIdLin1ELin1ELi0ELin1ELin1EEENS_14CwiseNullaryOpINS0_16scalar_random_opIdEES3_EEddEEvRT_RKT0_RKNS0_9assign_opIT1_T2_EE, symObjAddr: 0x14DC, symBinAddr: 0x1000046F8, symSize: 0xF8 }
  - { offsetInCU: 0xE05D, offset: 0xE05D, size: 0x8, addend: 0x0, symName: __ZN5Eigen8internal6randomIdEENS0_13random_retvalINS0_36global_math_functions_filtering_baseIT_vE4typeEE4typeEv, symObjAddr: 0x1C38, symBinAddr: 0x100004E54, symSize: 0x14 }
  - { offsetInCU: 0xE0D8, offset: 0xE0D8, size: 0x8, addend: 0x0, symName: __ZN5Eigen8internal24call_assignment_no_aliasINS_6MatrixIdLin1ELin1ELi0ELin1ELin1EEENS_7InverseIS3_EENS0_9assign_opIddEEEEvRT_RKT0_RKT1_, symObjAddr: 0x20F8, symBinAddr: 0x100005314, symSize: 0x3C }
  - { offsetInCU: 0xE218, offset: 0xE218, size: 0x8, addend: 0x0, symName: __ZN5Eigen8internal22ignore_unused_variableIbEEvRKT_, symObjAddr: 0x2A00, symBinAddr: 0x100005C1C, symSize: 0x10 }
  - { offsetInCU: 0xE247, offset: 0xE247, size: 0x8, addend: 0x0, symName: __ZN5Eigen8internal31conditional_aligned_delete_autoIiLb1EEEvPT_m, symObjAddr: 0x2B28, symBinAddr: 0x100005D44, symSize: 0x28 }
  - { offsetInCU: 0xE2B6, offset: 0xE2B6, size: 0x8, addend: 0x0, symName: __ZN5Eigen8internal28conditional_aligned_new_autoIiLb1EEEPT_m, symObjAddr: 0x2B50, symBinAddr: 0x100005D6C, symSize: 0x84 }
  - { offsetInCU: 0xE324, offset: 0xE324, size: 0x8, addend: 0x0, symName: __ZN5Eigen8internal15call_assignmentINS_6MatrixIdLin1ELin1ELi0ELin1ELin1EEES3_EEvRT_RKT0_, symObjAddr: 0x2EF4, symBinAddr: 0x100006110, symSize: 0x50 }
  - { offsetInCU: 0xE36F, offset: 0xE36F, size: 0x8, addend: 0x0, symName: __ZN5Eigen8internal15call_assignmentINS_6MatrixIdLin1ELin1ELi0ELin1ELin1EEES3_NS0_9assign_opIddEEEEvRT_RKT0_RKT1_NS0_9enable_ifIXntsr25evaluator_assume_aliasingIS8_EE5valueEPvE4typeE, symObjAddr: 0x2F44, symBinAddr: 0x100006160, symSize: 0x38 }
  - { offsetInCU: 0xE3DD, offset: 0xE3DD, size: 0x8, addend: 0x0, symName: __ZN5Eigen8internal24call_assignment_no_aliasINS_6MatrixIdLin1ELin1ELi0ELin1ELin1EEES3_NS0_9assign_opIddEEEEvRT_RKT0_RKT1_, symObjAddr: 0x2F7C, symBinAddr: 0x100006198, symSize: 0x3C }
  - { offsetInCU: 0xE4AB, offset: 0xE4AB, size: 0x8, addend: 0x0, symName: __ZN5Eigen8internal18check_for_aliasingINS_6MatrixIdLin1ELin1ELi0ELin1ELin1EEES3_EEvRKT_RKT0_, symObjAddr: 0x2FF8, symBinAddr: 0x100006214, symSize: 0x60 }
  - { offsetInCU: 0xE4F6, offset: 0xE4F6, size: 0x8, addend: 0x0, symName: __ZN5Eigen8internal26call_dense_assignment_loopINS_6MatrixIdLin1ELin1ELi0ELin1ELin1EEES3_NS0_9assign_opIddEEEEvRT_RKT0_RKT1_, symObjAddr: 0x3058, symBinAddr: 0x100006274, symSize: 0xD8 }
  - { offsetInCU: 0xE5E8, offset: 0xE5E8, size: 0x8, addend: 0x0, symName: __ZN5Eigen8internal17resize_if_allowedINS_6MatrixIdLin1ELin1ELi0ELin1ELin1EEES3_ddEEvRT_RKT0_RKNS0_9assign_opIT1_T2_EE, symObjAddr: 0x3144, symBinAddr: 0x100006360, symSize: 0xF8 }
  - { offsetInCU: 0xE7BF, offset: 0xE7BF, size: 0x8, addend: 0x0, symName: __ZN5Eigen8internal6pstoreId19__simd128_float64_tEEvPT_RKT0_, symObjAddr: 0x34FC, symBinAddr: 0x100006718, symSize: 0x2C }
  - { offsetInCU: 0xE827, offset: 0xE827, size: 0x8, addend: 0x0, symName: __ZN5Eigen8internal5ploadI19__simd128_float64_tEET_PKNS0_15unpacket_traitsIS3_E4typeE, symObjAddr: 0x3528, symBinAddr: 0x100006744, symSize: 0x28 }
  - { offsetInCU: 0xE87B, offset: 0xE87B, size: 0x8, addend: 0x0, symName: __ZN5Eigen8internal18partial_lu_inplaceINS_6MatrixIdLin1ELin1ELi0ELin1ELin1EEENS_14TranspositionsILin1ELin1EiEEEEvRT_RT0_RNS8_12StorageIndexE, symObjAddr: 0x3710, symBinAddr: 0x10000692C, symSize: 0x1AC }
  - { offsetInCU: 0xF190, offset: 0xF190, size: 0x8, addend: 0x0, symName: __ZN5Eigen8internalL21first_default_alignedINS_5BlockIKNS_12CwiseUnaryOpINS0_13scalar_abs_opIdEEKNS_6MatrixIdLin1ELin1ELi0ELin1ELin1EEEEELin1ELi1ELb1EEEEElRKNS_9DenseBaseIT_EE, symObjAddr: 0x51BC, symBinAddr: 0x1000083D8, symSize: 0x24 }
  - { offsetInCU: 0xF1C7, offset: 0xF1C7, size: 0x8, addend: 0x0, symName: __ZN5Eigen8internalL13first_alignedILi16ENS_5BlockIKNS_12CwiseUnaryOpINS0_13scalar_abs_opIdEEKNS_6MatrixIdLin1ELin1ELi0ELin1ELin1EEEEELin1ELi1ELb1EEEEElRKNS_9DenseBaseIT0_EE, symObjAddr: 0x52D4, symBinAddr: 0x1000084F0, symSize: 0x28 }
  - { offsetInCU: 0xF277, offset: 0xF277, size: 0x8, addend: 0x0, symName: __ZN5Eigen8internal4pabsI19__simd128_float64_tEET_RKS3_, symObjAddr: 0x53D8, symBinAddr: 0x1000085F4, symSize: 0x2C }
  - { offsetInCU: 0xF2AE, offset: 0xF2AE, size: 0x8, addend: 0x0, symName: __ZN5Eigen8internal6ploaduI19__simd128_float64_tEET_PKNS0_15unpacket_traitsIS3_E4typeE, symObjAddr: 0x5404, symBinAddr: 0x100008620, symSize: 0x28 }
  - { offsetInCU: 0xF302, offset: 0xF302, size: 0x8, addend: 0x0, symName: __ZN5Eigen8internal4paddI19__simd128_float64_tEET_RKS3_S5_, symObjAddr: 0x542C, symBinAddr: 0x100008648, symSize: 0x40 }
  - { offsetInCU: 0xF348, offset: 0xF348, size: 0x8, addend: 0x0, symName: __ZN5Eigen8internal6preduxI19__simd128_float64_tEENS0_15unpacket_traitsIT_E4typeERKS4_, symObjAddr: 0x546C, symBinAddr: 0x100008688, symSize: 0x50 }
  - { offsetInCU: 0xF3A9, offset: 0xF3A9, size: 0x8, addend: 0x0, symName: __ZN5Eigen8internal4pmaxILi0EdEET0_RKS2_S4_, symObjAddr: 0x592C, symBinAddr: 0x100008B48, symSize: 0x34 }
  - { offsetInCU: 0xF440, offset: 0xF440, size: 0x8, addend: 0x0, symName: __ZN5Eigen8internal4pmaxIdEET_RKS2_S4_, symObjAddr: 0x5994, symBinAddr: 0x100008BB0, symSize: 0x40 }
  - { offsetInCU: 0xF500, offset: 0xF500, size: 0x8, addend: 0x0, symName: __ZN5Eigen8internal13convert_indexIilEET_RKT0_, symObjAddr: 0x6900, symBinAddr: 0x100009B1C, symSize: 0x1C }
  - { offsetInCU: 0xF568, offset: 0xF568, size: 0x8, addend: 0x0, symName: __ZN5Eigen8internal17get_runtime_valueIlEElRKT_, symObjAddr: 0x8124, symBinAddr: 0x10000B340, symSize: 0x18 }
  - { offsetInCU: 0xF8F1, offset: 0xF8F1, size: 0x8, addend: 0x0, symName: __ZN5Eigen8internal17get_runtime_valueINS0_19VariableAndFixedIntILin1EEEEElRKT_, symObjAddr: 0x97F0, symBinAddr: 0x10000CA0C, symSize: 0x2C }
  - { offsetInCU: 0xF926, offset: 0xF926, size: 0x8, addend: 0x0, symName: __ZN5Eigen8internal13convert_indexIiiEET_RKT0_, symObjAddr: 0x9834, symBinAddr: 0x10000CA50, symSize: 0x18 }
  - { offsetInCU: 0xF964, offset: 0xF964, size: 0x8, addend: 0x0, symName: __ZN5Eigen8internal15call_assignmentINS_5BlockINS2_INS_3RefINS_6MatrixIdLin1ELin1ELi0ELin1ELin1EEELi0ENS_11OuterStrideILin1EEEEELin1ELi1ELb1EEELin1ELi1ELb0EEENS_14CwiseNullaryOpINS0_18scalar_constant_opIdEENS4_IdLin1ELi1ELi0ELin1ELi1EEEEENS0_13div_assign_opIddEEEEvRT_RKT0_RKT1_NS0_9enable_ifIXntsr25evaluator_assume_aliasingISK_EE5valueEPvE4typeE, symObjAddr: 0x98A0, symBinAddr: 0x10000CABC, symSize: 0x38 }
  - { offsetInCU: 0xF9D2, offset: 0xF9D2, size: 0x8, addend: 0x0, symName: __ZN5Eigen8internal24call_assignment_no_aliasINS_5BlockINS2_INS_3RefINS_6MatrixIdLin1ELin1ELi0ELin1ELin1EEELi0ENS_11OuterStrideILin1EEEEELin1ELi1ELb1EEELin1ELi1ELb0EEENS_14CwiseNullaryOpINS0_18scalar_constant_opIdEENS4_IdLin1ELi1ELi0ELin1ELi1EEEEENS0_13div_assign_opIddEEEEvRT_RKT0_RKT1_, symObjAddr: 0x99C8, symBinAddr: 0x10000CBE4, symSize: 0x3C }
  - { offsetInCU: 0xFAA0, offset: 0xFAA0, size: 0x8, addend: 0x0, symName: __ZN5Eigen8internal18check_for_aliasingINS_5BlockINS2_INS_3RefINS_6MatrixIdLin1ELin1ELi0ELin1ELin1EEELi0ENS_11OuterStrideILin1EEEEELin1ELi1ELb1EEELin1ELi1ELb0EEENS_14CwiseNullaryOpINS0_18scalar_constant_opIdEENS4_IdLin1ELi1ELi0ELin1ELi1EEEEEEEvRKT_RKT0_, symObjAddr: 0x9A44, symBinAddr: 0x10000CC60, symSize: 0x14 }
  - { offsetInCU: 0xFAEB, offset: 0xFAEB, size: 0x8, addend: 0x0, symName: __ZN5Eigen8internal26call_dense_assignment_loopINS_5BlockINS2_INS_3RefINS_6MatrixIdLin1ELin1ELi0ELin1ELin1EEELi0ENS_11OuterStrideILin1EEEEELin1ELi1ELb1EEELin1ELi1ELb0EEENS_14CwiseNullaryOpINS0_18scalar_constant_opIdEENS4_IdLin1ELi1ELi0ELin1ELi1EEEEENS0_13div_assign_opIddEEEEvRT_RKT0_RKT1_, symObjAddr: 0x9A58, symBinAddr: 0x10000CC74, symSize: 0xE0 }
  - { offsetInCU: 0xFB9F, offset: 0xFB9F, size: 0x8, addend: 0x0, symName: __ZN5Eigen8internal17resize_if_allowedINS_5BlockINS2_INS_3RefINS_6MatrixIdLin1ELin1ELi0ELin1ELin1EEELi0ENS_11OuterStrideILin1EEEEELin1ELi1ELb1EEELin1ELi1ELb0EEENS_14CwiseNullaryOpINS0_18scalar_constant_opIdEENS4_IdLin1ELi1ELi0ELin1ELi1EEEEENS0_13div_assign_opIddEEEEvRT_RKT0_RKT1_, symObjAddr: 0x9B6C, symBinAddr: 0x10000CD88, symSize: 0xB4 }
  - { offsetInCU: 0xFBFE, offset: 0xFBFE, size: 0x8, addend: 0x0, symName: __ZN5Eigen8internal13first_alignedILi16EdlEET1_PKT0_S2_, symObjAddr: 0x9F88, symBinAddr: 0x10000D1A4, symSize: 0xAC }
  - { offsetInCU: 0xFCA1, offset: 0xFCA1, size: 0x8, addend: 0x0, symName: __ZN5Eigen8internal4pdivI19__simd128_float64_tEET_RKS3_S5_, symObjAddr: 0xA384, symBinAddr: 0x10000D5A0, symSize: 0x40 }
  - { offsetInCU: 0xFCE7, offset: 0xFCE7, size: 0x8, addend: 0x0, symName: __ZN5Eigen8internal5pset1I19__simd128_float64_tEET_RKNS0_15unpacket_traitsIS3_E4typeE, symObjAddr: 0xA418, symBinAddr: 0x10000D634, symSize: 0x44 }
  - { offsetInCU: 0xFD1E, offset: 0xFD1E, size: 0x8, addend: 0x0, symName: __ZN5Eigen8internal24call_assignment_no_aliasINS_5BlockINS_3RefINS_6MatrixIdLin1ELin1ELi0ELin1ELin1EEELi0ENS_11OuterStrideILin1EEEEELin1ELin1ELb0EEENS_7ProductINS2_INS2_IS8_Lin1ELi1ELb1EEELin1ELi1ELb0EEENS2_INS2_IS8_Li1ELin1ELb0EEELi1ELin1ELb0EEELi0EEENS0_13sub_assign_opIddEEEEvRT_RKT0_RKT1_, symObjAddr: 0xB4B0, symBinAddr: 0x10000E6CC, symSize: 0x3C }
  - { offsetInCU: 0xFE8C, offset: 0xFE8C, size: 0x8, addend: 0x0, symName: __ZN5Eigen8internal26outer_product_selector_runINS_5BlockINS_3RefINS_6MatrixIdLin1ELin1ELi0ELin1ELin1EEELi0ENS_11OuterStrideILin1EEEEELin1ELin1ELb0EEENS2_INS2_IS8_Lin1ELi1ELb1EEELin1ELi1ELb0EEENS2_INS2_IS8_Li1ELin1ELb0EEELi1ELin1ELb0EEENS0_20generic_product_implISB_SD_NS_10DenseShapeESF_Li5EE3subEEEvRT_RKT0_RKT1_RKT2_RKNS0_10false_typeE, symObjAddr: 0xB738, symBinAddr: 0x10000E954, symSize: 0x15C }
  - { offsetInCU: 0x100FB, offset: 0x100FB, size: 0x8, addend: 0x0, symName: __ZN5Eigen8internal22ignore_unused_variableIPdEEvRKT_, symObjAddr: 0xBD84, symBinAddr: 0x10000EFA0, symSize: 0x10 }
  - { offsetInCU: 0x1012A, offset: 0x1012A, size: 0x8, addend: 0x0, symName: __ZN5Eigen8internal15call_assignmentINS_5BlockINS2_INS_3RefINS_6MatrixIdLin1ELin1ELi0ELin1ELin1EEELi0ENS_11OuterStrideILin1EEEEELin1ELin1ELb0EEELin1ELi1ELb1EEENS_13CwiseBinaryOpINS0_17scalar_product_opIddEEKNS_14CwiseNullaryOpINS0_18scalar_constant_opIdEEKNS4_IdLin1ELi1ELi0ELin1ELi1EEEEEKNS2_INS2_IS8_Lin1ELi1ELb1EEELin1ELi1ELb0EEEEENS0_13sub_assign_opIddEEEEvRT_RKT0_RKT1_NS0_9enable_ifIXntsr25evaluator_assume_aliasingIST_EE5valueEPvE4typeE, symObjAddr: 0xBE0C, symBinAddr: 0x10000F028, symSize: 0x38 }
  - { offsetInCU: 0x10198, offset: 0x10198, size: 0x8, addend: 0x0, symName: __ZN5Eigen8internal24call_assignment_no_aliasINS_5BlockINS2_INS_3RefINS_6MatrixIdLin1ELin1ELi0ELin1ELin1EEELi0ENS_11OuterStrideILin1EEEEELin1ELin1ELb0EEELin1ELi1ELb1EEENS_13CwiseBinaryOpINS0_17scalar_product_opIddEEKNS_14CwiseNullaryOpINS0_18scalar_constant_opIdEEKNS4_IdLin1ELi1ELi0ELin1ELi1EEEEEKNS2_INS2_IS8_Lin1ELi1ELb1EEELin1ELi1ELb0EEEEENS0_13sub_assign_opIddEEEEvRT_RKT0_RKT1_, symObjAddr: 0xBE6C, symBinAddr: 0x10000F088, symSize: 0x3C }
  - { offsetInCU: 0x10266, offset: 0x10266, size: 0x8, addend: 0x0, symName: __ZN5Eigen8internal18check_for_aliasingINS_5BlockINS2_INS_3RefINS_6MatrixIdLin1ELin1ELi0ELin1ELin1EEELi0ENS_11OuterStrideILin1EEEEELin1ELin1ELb0EEELin1ELi1ELb1EEENS_13CwiseBinaryOpINS0_17scalar_product_opIddEEKNS_14CwiseNullaryOpINS0_18scalar_constant_opIdEEKNS4_IdLin1ELi1ELi0ELin1ELi1EEEEEKNS2_INS2_IS8_Lin1ELi1ELb1EEELin1ELi1ELb0EEEEEEEvRKT_RKT0_, symObjAddr: 0xBEE8, symBinAddr: 0x10000F104, symSize: 0x14 }
  - { offsetInCU: 0x102B1, offset: 0x102B1, size: 0x8, addend: 0x0, symName: __ZN5Eigen8internal26call_dense_assignment_loopINS_5BlockINS2_INS_3RefINS_6MatrixIdLin1ELin1ELi0ELin1ELin1EEELi0ENS_11OuterStrideILin1EEEEELin1ELin1ELb0EEELin1ELi1ELb1EEENS_13CwiseBinaryOpINS0_17scalar_product_opIddEEKNS_14CwiseNullaryOpINS0_18scalar_constant_opIdEEKNS4_IdLin1ELi1ELi0ELin1ELi1EEEEEKNS2_INS2_IS8_Lin1ELi1ELb1EEELin1ELi1ELb0EEEEENS0_13sub_assign_opIddEEEEvRT_RKT0_RKT1_, symObjAddr: 0xBEFC, symBinAddr: 0x10000F118, symSize: 0xD8 }
  - { offsetInCU: 0x10366, offset: 0x10366, size: 0x8, addend: 0x0, symName: __ZN5Eigen8internal17resize_if_allowedINS_5BlockINS2_INS_3RefINS_6MatrixIdLin1ELin1ELi0ELin1ELin1EEELi0ENS_11OuterStrideILin1EEEEELin1ELin1ELb0EEELin1ELi1ELb1EEENS_13CwiseBinaryOpINS0_17scalar_product_opIddEEKNS_14CwiseNullaryOpINS0_18scalar_constant_opIdEEKNS4_IdLin1ELi1ELi0ELin1ELi1EEEEEKNS2_INS2_IS8_Lin1ELi1ELb1EEELin1ELi1ELb0EEEEENS0_13sub_assign_opIddEEEEvRT_RKT0_RKT1_, symObjAddr: 0xC008, symBinAddr: 0x10000F224, symSize: 0xB4 }
  - { offsetInCU: 0x103C5, offset: 0x103C5, size: 0x8, addend: 0x0, symName: __ZN5Eigen8internal4psubI19__simd128_float64_tEET_RKS3_S5_, symObjAddr: 0xCECC, symBinAddr: 0x1000100E8, symSize: 0x40 }
  - { offsetInCU: 0x1040B, offset: 0x1040B, size: 0x8, addend: 0x0, symName: __ZN5Eigen8internal4pmulI19__simd128_float64_tEET_RKS3_S5_, symObjAddr: 0xCFC8, symBinAddr: 0x1000101E4, symSize: 0x40 }
  - { offsetInCU: 0x10451, offset: 0x10451, size: 0x8, addend: 0x0, symName: __ZN5Eigen8internal15call_assignmentINS_5BlockINS_3RefINS_6MatrixIdLin1ELin1ELi0ELin1ELin1EEELi0ENS_11OuterStrideILin1EEEEELi1ELin1ELb0EEES9_NS0_14swap_assign_opIdEEEEvRT_RKT0_RKT1_NS0_9enable_ifIXntsr25evaluator_assume_aliasingISE_EE5valueEPvE4typeE, symObjAddr: 0xE080, symBinAddr: 0x10001129C, symSize: 0x38 }
  - { offsetInCU: 0x1050C, offset: 0x1050C, size: 0x8, addend: 0x0, symName: __ZN5Eigen8internal24call_assignment_no_aliasINS_5BlockINS_3RefINS_6MatrixIdLin1ELin1ELi0ELin1ELin1EEELi0ENS_11OuterStrideILin1EEEEELi1ELin1ELb0EEES9_NS0_14swap_assign_opIdEEEEvRT_RKT0_RKT1_, symObjAddr: 0xE0F8, symBinAddr: 0x100011314, symSize: 0x3C }
  - { offsetInCU: 0x105DA, offset: 0x105DA, size: 0x8, addend: 0x0, symName: __ZN5Eigen8internal18check_for_aliasingINS_5BlockINS_3RefINS_6MatrixIdLin1ELin1ELi0ELin1ELin1EEELi0ENS_11OuterStrideILin1EEEEELi1ELin1ELb0EEES9_EEvRKT_RKT0_, symObjAddr: 0xE174, symBinAddr: 0x100011390, symSize: 0x14 }
  - { offsetInCU: 0x10625, offset: 0x10625, size: 0x8, addend: 0x0, symName: __ZN5Eigen8internal26call_dense_assignment_loopINS_5BlockINS_3RefINS_6MatrixIdLin1ELin1ELi0ELin1ELin1EEELi0ENS_11OuterStrideILin1EEEEELi1ELin1ELb0EEES9_NS0_14swap_assign_opIdEEEEvRT_RKT0_RKT1_, symObjAddr: 0xE188, symBinAddr: 0x1000113A4, symSize: 0xE0 }
  - { offsetInCU: 0x10795, offset: 0x10795, size: 0x8, addend: 0x0, symName: __ZN5Eigen8internal17resize_if_allowedINS_5BlockINS_3RefINS_6MatrixIdLin1ELin1ELi0ELin1ELin1EEELi0ENS_11OuterStrideILin1EEEEELi1ELin1ELb0EEES9_NS0_14swap_assign_opIdEEEEvRT_RKT0_RKT1_, symObjAddr: 0xE29C, symBinAddr: 0x1000114B8, symSize: 0xB4 }
  - { offsetInCU: 0x10C21, offset: 0x10C21, size: 0x8, addend: 0x0, symName: __ZN5Eigen8internal27computeProductBlockingSizesIddLi4ElEEvRT2_S3_S3_S2_, symObjAddr: 0x100E8, symBinAddr: 0x100013304, symSize: 0x58 }
  - { offsetInCU: 0x10C9D, offset: 0x10C9D, size: 0x8, addend: 0x0, symName: __ZN5Eigen8internal24useSpecificBlockingSizesIlEEbRT_S3_S3_, symObjAddr: 0x10140, symBinAddr: 0x10001335C, symSize: 0x44 }
  - { offsetInCU: 0x10CF2, offset: 0x10CF2, size: 0x8, addend: 0x0, symName: __ZN5Eigen8internal22ignore_unused_variableIlEEvRKT_, symObjAddr: 0x10970, symBinAddr: 0x100013B8C, symSize: 0x10 }
  - { offsetInCU: 0x10D21, offset: 0x10D21, size: 0x8, addend: 0x0, symName: __ZN5Eigen8internal15queryCacheSizesERiS1_S1_, symObjAddr: 0x10BA4, symBinAddr: 0x100013DC0, symSize: 0x34 }
  - { offsetInCU: 0x10D69, offset: 0x10D69, size: 0x8, addend: 0x0, symName: __ZN5Eigen8internal27manage_caching_sizes_helperEll, symObjAddr: 0x10BD8, symBinAddr: 0x100013DF4, symSize: 0x44 }
  - { offsetInCU: 0x10F2A, offset: 0x10F2A, size: 0x8, addend: 0x0, symName: __ZN5Eigen8internal8prefetchIdEEvPKT_, symObjAddr: 0x18420, symBinAddr: 0x10001B63C, symSize: 0x18 }
  - { offsetInCU: 0x11386, offset: 0x11386, size: 0x8, addend: 0x0, symName: __ZN5Eigen8internal5pmaddI19__simd128_float64_tEET_RKS3_S5_S5_, symObjAddr: 0x19D20, symBinAddr: 0x10001CF3C, symSize: 0x54 }
  - { offsetInCU: 0x113DB, offset: 0x113DB, size: 0x8, addend: 0x0, symName: __ZN5Eigen8internal7pstoreuId19__simd128_float64_tEEvPT_RKT0_, symObjAddr: 0x19D74, symBinAddr: 0x10001CF90, symSize: 0x2C }
  - { offsetInCU: 0x11443, offset: 0x11443, size: 0x8, addend: 0x0, symName: __ZN5Eigen8internal5pmaddIdEET_RKS2_S4_S4_, symObjAddr: 0x19FC0, symBinAddr: 0x10001D1DC, symSize: 0x40 }
  - { offsetInCU: 0x11498, offset: 0x11498, size: 0x8, addend: 0x0, symName: __ZN5Eigen8internal4paddIdEET_RKS2_S4_, symObjAddr: 0x1A018, symBinAddr: 0x10001D234, symSize: 0x28 }
  - { offsetInCU: 0x114DB, offset: 0x114DB, size: 0x8, addend: 0x0, symName: __ZN5Eigen8internal4pmulIdEET_RKS2_S4_, symObjAddr: 0x1A040, symBinAddr: 0x10001D25C, symSize: 0x28 }
  - { offsetInCU: 0x1151E, offset: 0x1151E, size: 0x8, addend: 0x0, symName: __ZN5Eigen8internal14aligned_deleteIdEEvPT_m, symObjAddr: 0x1A128, symBinAddr: 0x10001D344, symSize: 0x34 }
  - { offsetInCU: 0x11560, offset: 0x11560, size: 0x8, addend: 0x0, symName: __ZN5Eigen8internal26destruct_elements_of_arrayIdEEvPT_m, symObjAddr: 0x1A15C, symBinAddr: 0x10001D378, symSize: 0x54 }
  - { offsetInCU: 0x115A2, offset: 0x115A2, size: 0x8, addend: 0x0, symName: __ZN5Eigen8internal24call_assignment_no_aliasINS_3RefINS_6MatrixIdLin1ELin1ELi0ELin1ELin1EEELi0ENS_11OuterStrideILin1EEEEENS_7ProductIS7_S7_Li0EEENS0_13sub_assign_opIddEEEEvRT_RKT0_RKT1_, symObjAddr: 0x1A398, symBinAddr: 0x10001D5B4, symSize: 0x3C }
  - { offsetInCU: 0x11932, offset: 0x11932, size: 0x8, addend: 0x0, symName: __ZN5Eigen8internal22ignore_unused_variableIdEEvRKT_, symObjAddr: 0x1AB08, symBinAddr: 0x10001DD24, symSize: 0x10 }
  - { offsetInCU: 0x11961, offset: 0x11961, size: 0x8, addend: 0x0, symName: __ZN5Eigen8internal42call_restricted_packet_assignment_no_aliasINS_3RefINS_6MatrixIdLin1ELin1ELi0ELin1ELin1EEELi0ENS_11OuterStrideILin1EEEEENS_7ProductIS7_S7_Li1EEENS0_13sub_assign_opIddEEEEvRT_RKT0_RKT1_, symObjAddr: 0x1AB18, symBinAddr: 0x10001DD34, symSize: 0xD8 }
  - { offsetInCU: 0x11A16, offset: 0x11A16, size: 0x8, addend: 0x0, symName: __ZN5Eigen8internal17resize_if_allowedINS_3RefINS_6MatrixIdLin1ELin1ELi0ELin1ELin1EEELi0ENS_11OuterStrideILin1EEEEENS_7ProductIS7_S7_Li1EEENS0_13sub_assign_opIddEEEEvRT_RKT0_RKT1_, symObjAddr: 0x1AC70, symBinAddr: 0x10001DE8C, symSize: 0xB4 }
  - { offsetInCU: 0x127C3, offset: 0x127C3, size: 0x8, addend: 0x0, symName: __ZN5Eigen8internal16parallelize_gemmILb1ENS0_12gemm_functorIdlNS0_29general_matrix_matrix_productIldLi0ELb0EdLi0ELb0ELi0ELi1EEENS_3RefINS_6MatrixIdLin1ELin1ELi0ELin1ELin1EEELi0ENS_11OuterStrideILin1EEEEESA_SA_NS0_19gemm_blocking_spaceILi0EddLin1ELin1ELin1ELi1ELb0EEEEElEEvRKT0_T1_SH_SH_b, symObjAddr: 0x1DEF8, symBinAddr: 0x100021114, symSize: 0x64 }
  - { offsetInCU: 0x136AB, offset: 0x136AB, size: 0x8, addend: 0x0, symName: __ZN5Eigen8internal15call_assignmentINS_3MapINS_6MatrixIdLin1ELi1ELi0ELin1ELi1EEELi0ENS_6StrideILi0ELi0EEEEENS_9TransposeIKNS_5BlockIKNS_3RefINS3_IdLin1ELin1ELi0ELin1ELin1EEELi0ENS_11OuterStrideILin1EEEEELi1ELin1ELb0EEEEEEEvRT_RKT0_, symObjAddr: 0x25128, symBinAddr: 0x100028344, symSize: 0x50 }
  - { offsetInCU: 0x136F6, offset: 0x136F6, size: 0x8, addend: 0x0, symName: __ZN5Eigen8internal15call_assignmentINS_3MapINS_6MatrixIdLin1ELi1ELi0ELin1ELi1EEELi0ENS_6StrideILi0ELi0EEEEENS_9TransposeIKNS_5BlockIKNS_3RefINS3_IdLin1ELin1ELi0ELin1ELin1EEELi0ENS_11OuterStrideILin1EEEEELi1ELin1ELb0EEEEENS0_9assign_opIddEEEEvRT_RKT0_RKT1_NS0_9enable_ifIXntsr25evaluator_assume_aliasingISN_EE5valueEPvE4typeE, symObjAddr: 0x2518C, symBinAddr: 0x1000283A8, symSize: 0x38 }
  - { offsetInCU: 0x13764, offset: 0x13764, size: 0x8, addend: 0x0, symName: __ZN5Eigen8internal24call_assignment_no_aliasINS_3MapINS_6MatrixIdLin1ELi1ELi0ELin1ELi1EEELi0ENS_6StrideILi0ELi0EEEEENS_9TransposeIKNS_5BlockIKNS_3RefINS3_IdLin1ELin1ELi0ELin1ELin1EEELi0ENS_11OuterStrideILin1EEEEELi1ELin1ELb0EEEEENS0_9assign_opIddEEEEvRT_RKT0_RKT1_, symObjAddr: 0x251C4, symBinAddr: 0x1000283E0, symSize: 0x3C }
  - { offsetInCU: 0x13832, offset: 0x13832, size: 0x8, addend: 0x0, symName: __ZN5Eigen8internal18check_for_aliasingINS_3MapINS_6MatrixIdLin1ELi1ELi0ELin1ELi1EEELi0ENS_6StrideILi0ELi0EEEEENS_9TransposeIKNS_5BlockIKNS_3RefINS3_IdLin1ELin1ELi0ELin1ELin1EEELi0ENS_11OuterStrideILin1EEEEELi1ELin1ELb0EEEEEEEvRKT_RKT0_, symObjAddr: 0x25240, symBinAddr: 0x10002845C, symSize: 0x14 }
  - { offsetInCU: 0x1387D, offset: 0x1387D, size: 0x8, addend: 0x0, symName: __ZN5Eigen8internal26call_dense_assignment_loopINS_3MapINS_6MatrixIdLin1ELi1ELi0ELin1ELi1EEELi0ENS_6StrideILi0ELi0EEEEENS_9TransposeIKNS_5BlockIKNS_3RefINS3_IdLin1ELin1ELi0ELin1ELin1EEELi0ENS_11OuterStrideILin1EEEEELi1ELin1ELb0EEEEENS0_9assign_opIddEEEEvRT_RKT0_RKT1_, symObjAddr: 0x25254, symBinAddr: 0x100028470, symSize: 0xE0 }
  - { offsetInCU: 0x13931, offset: 0x13931, size: 0x8, addend: 0x0, symName: __ZN5Eigen8internal17resize_if_allowedINS_3MapINS_6MatrixIdLin1ELi1ELi0ELin1ELi1EEELi0ENS_6StrideILi0ELi0EEEEENS_9TransposeIKNS_5BlockIKNS_3RefINS3_IdLin1ELin1ELi0ELin1ELin1EEELi0ENS_11OuterStrideILin1EEEEELi1ELin1ELb0EEEEEddEEvRT_RKT0_RKNS0_9assign_opIT1_T2_EE, symObjAddr: 0x25368, symBinAddr: 0x100028584, symSize: 0xF8 }
  - { offsetInCU: 0x13C59, offset: 0x13C59, size: 0x8, addend: 0x0, symName: __ZN5Eigen8internal27computeProductBlockingSizesIddLi1ElEEvRT2_S3_S3_S2_, symObjAddr: 0x260A0, symBinAddr: 0x1000292BC, symSize: 0x58 }
  - { offsetInCU: 0x13CD5, offset: 0x13CD5, size: 0x8, addend: 0x0, symName: __ZN5Eigen8internal22ignore_unused_variableIPNS0_16GemmParallelInfoIlEEEEvRKT_, symObjAddr: 0x275F0, symBinAddr: 0x10002A80C, symSize: 0x10 }
  - { offsetInCU: 0x13D04, offset: 0x13D04, size: 0x8, addend: 0x0, symName: __ZN5Eigen8internal10smart_copyIdEEvPKT_S4_PS2_, symObjAddr: 0x2866C, symBinAddr: 0x10002B888, symSize: 0x34 }
  - { offsetInCU: 0x13D8F, offset: 0x13D8F, size: 0x8, addend: 0x0, symName: __ZN5Eigen8internal10smart_copyIiEEvPKT_S4_PS2_, symObjAddr: 0x28884, symBinAddr: 0x10002BAA0, symSize: 0x34 }
  - { offsetInCU: 0x13E1A, offset: 0x13E1A, size: 0x8, addend: 0x0, symName: __ZN5Eigen8internal15call_assignmentINS_6MatrixIdLin1ELin1ELi0ELin1ELin1EEENS_7InverseINS_12PartialPivLUIS3_EEEEEEvRT_RKT0_, symObjAddr: 0x28998, symBinAddr: 0x10002BBB4, symSize: 0x50 }
  - { offsetInCU: 0x13E65, offset: 0x13E65, size: 0x8, addend: 0x0, symName: __ZN5Eigen8internal15call_assignmentINS_6MatrixIdLin1ELin1ELi0ELin1ELin1EEENS_7InverseINS_12PartialPivLUIS3_EEEENS0_9assign_opIddEEEEvRT_RKT0_RKT1_NS0_9enable_ifIXntsr25evaluator_assume_aliasingISC_EE5valueEPvE4typeE, symObjAddr: 0x289FC, symBinAddr: 0x10002BC18, symSize: 0x38 }
  - { offsetInCU: 0x13ED3, offset: 0x13ED3, size: 0x8, addend: 0x0, symName: __ZN5Eigen8internal24call_assignment_no_aliasINS_6MatrixIdLin1ELin1ELi0ELin1ELin1EEENS_7InverseINS_12PartialPivLUIS3_EEEENS0_9assign_opIddEEEEvRT_RKT0_RKT1_, symObjAddr: 0x28A34, symBinAddr: 0x10002BC50, symSize: 0x3C }
  - { offsetInCU: 0x13FE9, offset: 0x13FE9, size: 0x8, addend: 0x0, symName: __ZN5Eigen8internal15call_assignmentINS_6MatrixIdLin1ELin1ELi0ELin1ELin1EEENS_5SolveINS_12PartialPivLUIS3_EENS_14CwiseNullaryOpINS0_18scalar_identity_opIdEES3_EEEEEEvRT_RKT0_, symObjAddr: 0x2918C, symBinAddr: 0x10002C3A8, symSize: 0x50 }
  - { offsetInCU: 0x14034, offset: 0x14034, size: 0x8, addend: 0x0, symName: __ZN5Eigen8internal15call_assignmentINS_6MatrixIdLin1ELin1ELi0ELin1ELin1EEENS_5SolveINS_12PartialPivLUIS3_EENS_14CwiseNullaryOpINS0_18scalar_identity_opIdEES3_EEEENS0_9assign_opIddEEEEvRT_RKT0_RKT1_NS0_9enable_ifIXntsr25evaluator_assume_aliasingISG_EE5valueEPvE4typeE, symObjAddr: 0x291F0, symBinAddr: 0x10002C40C, symSize: 0x38 }
  - { offsetInCU: 0x140A2, offset: 0x140A2, size: 0x8, addend: 0x0, symName: __ZN5Eigen8internal24call_assignment_no_aliasINS_6MatrixIdLin1ELin1ELi0ELin1ELin1EEENS_5SolveINS_12PartialPivLUIS3_EENS_14CwiseNullaryOpINS0_18scalar_identity_opIdEES3_EEEENS0_9assign_opIddEEEEvRT_RKT0_RKT1_, symObjAddr: 0x29228, symBinAddr: 0x10002C444, symSize: 0x3C }
  - { offsetInCU: 0x14179, offset: 0x14179, size: 0x8, addend: 0x0, symName: __ZN5Eigen8internal15call_assignmentINS_6MatrixIdLin1ELin1ELi0ELin1ELin1EEENS_7ProductINS_17PermutationMatrixILin1ELin1EiEENS_14CwiseNullaryOpINS0_18scalar_identity_opIdEES3_EELi2EEEEEvRT_RKT0_, symObjAddr: 0x29888, symBinAddr: 0x10002CAA4, symSize: 0x50 }
  - { offsetInCU: 0x141C4, offset: 0x141C4, size: 0x8, addend: 0x0, symName: __ZN5Eigen8internal15call_assignmentINS_6MatrixIdLin1ELin1ELi0ELin1ELin1EEENS_7ProductINS_17PermutationMatrixILin1ELin1EiEENS_14CwiseNullaryOpINS0_18scalar_identity_opIdEES3_EELi2EEENS0_9assign_opIddEEEEvRT_RKT0_RKT1_NS0_9enable_ifIXntsr25evaluator_assume_aliasingISG_EE5valueEPvE4typeE, symObjAddr: 0x298EC, symBinAddr: 0x10002CB08, symSize: 0x38 }
  - { offsetInCU: 0x14232, offset: 0x14232, size: 0x8, addend: 0x0, symName: __ZN5Eigen8internal24call_assignment_no_aliasINS_6MatrixIdLin1ELin1ELi0ELin1ELin1EEENS_7ProductINS_17PermutationMatrixILin1ELin1EiEENS_14CwiseNullaryOpINS0_18scalar_identity_opIdEES3_EELi2EEENS0_9assign_opIddEEEEvRT_RKT0_RKT1_, symObjAddr: 0x29924, symBinAddr: 0x10002CB40, symSize: 0x3C }
  - { offsetInCU: 0x143D2, offset: 0x143D2, size: 0x8, addend: 0x0, symName: __ZN5Eigen8internal13is_same_denseINS_6MatrixIdLin1ELin1ELi0ELin1ELin1EEENS_14CwiseNullaryOpINS0_18scalar_identity_opIdEES3_EEEEbRKT_RKT0_PNS0_9enable_ifIXntsr19possibly_same_denseIS8_SB_EE5valueEvE4typeE, symObjAddr: 0x29E30, symBinAddr: 0x10002D04C, symSize: 0x20 }
  - { offsetInCU: 0x14424, offset: 0x14424, size: 0x8, addend: 0x0, symName: __ZN5Eigen8internal31conditional_aligned_delete_autoIbLb1EEEvPT_m, symObjAddr: 0x2A414, symBinAddr: 0x10002D630, symSize: 0x28 }
  - { offsetInCU: 0x14470, offset: 0x14470, size: 0x8, addend: 0x0, symName: __ZN5Eigen8internal28conditional_aligned_new_autoIbLb1EEEPT_m, symObjAddr: 0x2A43C, symBinAddr: 0x10002D658, symSize: 0x64 }
  - { offsetInCU: 0x144C0, offset: 0x144C0, size: 0x8, addend: 0x0, symName: __ZN5Eigen8internal15call_assignmentINS_6MatrixIbLin1ELi1ELi0ELin1ELi1EEENS_14CwiseNullaryOpINS0_18scalar_constant_opIbEES3_EEEEvRT_RKT0_, symObjAddr: 0x2A9B4, symBinAddr: 0x10002DBD0, symSize: 0x50 }
  - { offsetInCU: 0x1450B, offset: 0x1450B, size: 0x8, addend: 0x0, symName: __ZN5Eigen8internal15call_assignmentINS_6MatrixIbLin1ELi1ELi0ELin1ELi1EEENS_14CwiseNullaryOpINS0_18scalar_constant_opIbEES3_EENS0_9assign_opIbbEEEEvRT_RKT0_RKT1_NS0_9enable_ifIXntsr25evaluator_assume_aliasingISC_EE5valueEPvE4typeE, symObjAddr: 0x2AA18, symBinAddr: 0x10002DC34, symSize: 0x38 }
  - { offsetInCU: 0x145CF, offset: 0x145CF, size: 0x8, addend: 0x0, symName: __ZN5Eigen8internal24call_assignment_no_aliasINS_6MatrixIbLin1ELi1ELi0ELin1ELi1EEENS_14CwiseNullaryOpINS0_18scalar_constant_opIbEES3_EENS0_9assign_opIbbEEEEvRT_RKT0_RKT1_, symObjAddr: 0x2AA7C, symBinAddr: 0x10002DC98, symSize: 0x3C }
  - { offsetInCU: 0x1469D, offset: 0x1469D, size: 0x8, addend: 0x0, symName: __ZN5Eigen8internal18check_for_aliasingINS_6MatrixIbLin1ELi1ELi0ELin1ELi1EEENS_14CwiseNullaryOpINS0_18scalar_constant_opIbEES3_EEEEvRKT_RKT0_, symObjAddr: 0x2AAF8, symBinAddr: 0x10002DD14, symSize: 0x14 }
  - { offsetInCU: 0x146E8, offset: 0x146E8, size: 0x8, addend: 0x0, symName: __ZN5Eigen8internal26call_dense_assignment_loopINS_6MatrixIbLin1ELi1ELi0ELin1ELi1EEEEEvRT_RKNS_14CwiseNullaryOpINS0_18scalar_constant_opINS4_6ScalarEEES4_EERKNS0_9assign_opIS8_S8_EE, symObjAddr: 0x2AB0C, symBinAddr: 0x10002DD28, symSize: 0x74 }
  - { offsetInCU: 0x14739, offset: 0x14739, size: 0x8, addend: 0x0, symName: __ZN5Eigen8internal17resize_if_allowedINS_6MatrixIbLin1ELi1ELi0ELin1ELi1EEENS_14CwiseNullaryOpINS0_18scalar_constant_opIbEES3_EEbbEEvRT_RKT0_RKNS0_9assign_opIT1_T2_EE, symObjAddr: 0x2AB80, symBinAddr: 0x10002DD9C, symSize: 0xF8 }
  - { offsetInCU: 0x147BF, offset: 0x147BF, size: 0x8, addend: 0x0, symName: __ZN5Eigen8internal15call_assignmentINS_5BlockINS_6MatrixIdLin1ELin1ELi0ELin1ELin1EEELi1ELin1ELb0EEES5_NS0_14swap_assign_opIdEEEEvRT_RKT0_RKT1_NS0_9enable_ifIXntsr25evaluator_assume_aliasingISA_EE5valueEPvE4typeE, symObjAddr: 0x2B6D4, symBinAddr: 0x10002E8F0, symSize: 0x38 }
  - { offsetInCU: 0x1482D, offset: 0x1482D, size: 0x8, addend: 0x0, symName: __ZN5Eigen8internal24call_assignment_no_aliasINS_5BlockINS_6MatrixIdLin1ELin1ELi0ELin1ELin1EEELi1ELin1ELb0EEES5_NS0_14swap_assign_opIdEEEEvRT_RKT0_RKT1_, symObjAddr: 0x2B790, symBinAddr: 0x10002E9AC, symSize: 0x3C }
  - { offsetInCU: 0x148FB, offset: 0x148FB, size: 0x8, addend: 0x0, symName: __ZN5Eigen8internal18check_for_aliasingINS_5BlockINS_6MatrixIdLin1ELin1ELi0ELin1ELin1EEELi1ELin1ELb0EEES5_EEvRKT_RKT0_, symObjAddr: 0x2B80C, symBinAddr: 0x10002EA28, symSize: 0x14 }
  - { offsetInCU: 0x14946, offset: 0x14946, size: 0x8, addend: 0x0, symName: __ZN5Eigen8internal26call_dense_assignment_loopINS_5BlockINS_6MatrixIdLin1ELin1ELi0ELin1ELin1EEELi1ELin1ELb0EEES5_NS0_14swap_assign_opIdEEEEvRT_RKT0_RKT1_, symObjAddr: 0x2B820, symBinAddr: 0x10002EA3C, symSize: 0xE0 }
  - { offsetInCU: 0x14AB6, offset: 0x14AB6, size: 0x8, addend: 0x0, symName: __ZN5Eigen8internal17resize_if_allowedINS_5BlockINS_6MatrixIdLin1ELin1ELi0ELin1ELin1EEELi1ELin1ELb0EEES5_NS0_14swap_assign_opIdEEEEvRT_RKT0_RKT1_, symObjAddr: 0x2B934, symBinAddr: 0x10002EB50, symSize: 0xB4 }
  - { offsetInCU: 0x14DD7, offset: 0x14DD7, size: 0x8, addend: 0x0, symName: __ZN5Eigen8internal15call_assignmentINS_5BlockINS_6MatrixIdLin1ELin1ELi0ELin1ELin1EEELi1ELin1ELb0EEENS2_IKNS_14CwiseNullaryOpINS0_18scalar_identity_opIdEES4_EELi1ELin1ELb0EEEEEvRT_RKT0_, symObjAddr: 0x2C26C, symBinAddr: 0x10002F488, symSize: 0x50 }
  - { offsetInCU: 0x14E22, offset: 0x14E22, size: 0x8, addend: 0x0, symName: __ZN5Eigen8internal15call_assignmentINS_5BlockINS_6MatrixIdLin1ELin1ELi0ELin1ELin1EEELi1ELin1ELb0EEENS2_IKNS_14CwiseNullaryOpINS0_18scalar_identity_opIdEES4_EELi1ELin1ELb0EEENS0_9assign_opIddEEEEvRT_RKT0_RKT1_NS0_9enable_ifIXntsr25evaluator_assume_aliasingISG_EE5valueEPvE4typeE, symObjAddr: 0x2C2BC, symBinAddr: 0x10002F4D8, symSize: 0x38 }
  - { offsetInCU: 0x14E90, offset: 0x14E90, size: 0x8, addend: 0x0, symName: __ZN5Eigen8internal24call_assignment_no_aliasINS_5BlockINS_6MatrixIdLin1ELin1ELi0ELin1ELin1EEELi1ELin1ELb0EEENS2_IKNS_14CwiseNullaryOpINS0_18scalar_identity_opIdEES4_EELi1ELin1ELb0EEENS0_9assign_opIddEEEEvRT_RKT0_RKT1_, symObjAddr: 0x2C2F4, symBinAddr: 0x10002F510, symSize: 0x3C }
  - { offsetInCU: 0x14F5E, offset: 0x14F5E, size: 0x8, addend: 0x0, symName: __ZN5Eigen8internal18check_for_aliasingINS_5BlockINS_6MatrixIdLin1ELin1ELi0ELin1ELin1EEELi1ELin1ELb0EEENS2_IKNS_14CwiseNullaryOpINS0_18scalar_identity_opIdEES4_EELi1ELin1ELb0EEEEEvRKT_RKT0_, symObjAddr: 0x2C370, symBinAddr: 0x10002F58C, symSize: 0x14 }
  - { offsetInCU: 0x14FA9, offset: 0x14FA9, size: 0x8, addend: 0x0, symName: __ZN5Eigen8internal26call_dense_assignment_loopINS_5BlockINS_6MatrixIdLin1ELin1ELi0ELin1ELin1EEELi1ELin1ELb0EEENS2_IKNS_14CwiseNullaryOpINS0_18scalar_identity_opIdEES4_EELi1ELin1ELb0EEENS0_9assign_opIddEEEEvRT_RKT0_RKT1_, symObjAddr: 0x2C384, symBinAddr: 0x10002F5A0, symSize: 0xD8 }
  - { offsetInCU: 0x15497, offset: 0x15497, size: 0x8, addend: 0x0, symName: __ZN5Eigen8internal17resize_if_allowedINS_5BlockINS_6MatrixIdLin1ELin1ELi0ELin1ELin1EEELi1ELin1ELb0EEENS2_IKNS_14CwiseNullaryOpINS0_18scalar_identity_opIdEES4_EELi1ELin1ELb0EEEddEEvRT_RKT0_RKNS0_9assign_opIT1_T2_EE, symObjAddr: 0x2C490, symBinAddr: 0x10002F6AC, symSize: 0xF8 }
  - { offsetInCU: 0x15F05, offset: 0x15F05, size: 0x8, addend: 0x0, symName: __ZN5EigenL6lastp1E, symObjAddr: 0x3B2F5B, symBinAddr: 0x10003C021, symSize: 0x0 }
  - { offsetInCU: 0x15F1E, offset: 0x15F1E, size: 0x8, addend: 0x0, symName: __ZN5EigenL3allE, symObjAddr: 0x3B2F5D, symBinAddr: 0x10003C023, symSize: 0x0 }
  - { offsetInCU: 0x68747, offset: 0x68747, size: 0x8, addend: 0x0, symName: __ZN5Eigen3fixILi1EEENS_8internal8FixedIntIXT_EEEv, symObjAddr: 0x74, symBinAddr: 0x100003290, symSize: 0x20 }
  - { offsetInCU: 0x6886E, offset: 0x6886E, size: 0x8, addend: 0x0, symName: __ZN5Eigen6numext8div_ceilIlEET_RKS2_S4_, symObjAddr: 0x10AB8, symBinAddr: 0x100013CD4, symSize: 0x38 }
  - { offsetInCU: 0x688B4, offset: 0x688B4, size: 0x8, addend: 0x0, symName: __ZN5Eigen6numext4realIdEENS_8internal11real_retvalINS2_36global_math_functions_filtering_baseIT_vE4typeEE4typeERKS5_, symObjAddr: 0x21014, symBinAddr: 0x100024230, symSize: 0x24 }
  - { offsetInCU: 0x68945, offset: 0x68945, size: 0x8, addend: 0x0, symName: __ZN5Eigen3fixILin1EiEENS_8internal19VariableAndFixedIntIXT_EEET0_, symObjAddr: 0x79C0, symBinAddr: 0x10000ABDC, symSize: 0x38 }
  - { offsetInCU: 0x689DD, offset: 0x689DD, size: 0x8, addend: 0x0, symName: __ZN5EigenmlIdEEKNS_13CwiseBinaryOpINS_8internal17scalar_product_opINS2_18promote_scalar_argIdT_Xsr5Eigen8internal14has_ReturnTypeINS_20ScalarBinaryOpTraitsIS5_dNS3_IS5_dEEEEEE5valueEE4typeEdEEKNS2_19plain_constant_typeINS_5BlockINSD_INS_3RefINS_6MatrixIdLin1ELin1ELi0ELin1ELin1EEELi0ENS_11OuterStrideILin1EEEEELin1ELi1ELb1EEELin1ELi1ELb0EEESA_E4typeEKSL_EERKS5_RKNS_10MatrixBaseISL_EE, symObjAddr: 0xB97C, symBinAddr: 0x10000EB98, symSize: 0x9C }
  - { offsetInCU: 0x68A20, offset: 0x68A20, size: 0x8, addend: 0x0, symName: __ZN5Eigen3fixILi0EEENS_8internal8FixedIntIXT_EEEv, symObjAddr: 0x18540, symBinAddr: 0x10001B75C, symSize: 0x20 }
  - { offsetInCU: 0x68A48, offset: 0x68A48, size: 0x8, addend: 0x0, symName: __ZN5Eigen3fixILi2EEENS_8internal8FixedIntIXT_EEEv, symObjAddr: 0x18668, symBinAddr: 0x10001B884, symSize: 0x20 }
  - { offsetInCU: 0x68A70, offset: 0x68A70, size: 0x8, addend: 0x0, symName: __ZN5Eigen3fixILi3EEENS_8internal8FixedIntIXT_EEEv, symObjAddr: 0x18700, symBinAddr: 0x10001B91C, symSize: 0x20 }
  - { offsetInCU: 0x6BDB2, offset: 0x6BDB2, size: 0x8, addend: 0x0, symName: __ZN5EigenmlINS_17PermutationMatrixILin1ELin1EiEENS_14CwiseNullaryOpINS_8internal18scalar_identity_opIdEENS_6MatrixIdLin1ELin1ELi0ELin1ELin1EEEEEEEKNS_7ProductIT_T0_Li2EEERKNS_15PermutationBaseISB_EERKNS_10MatrixBaseISC_EE, symObjAddr: 0x2944C, symBinAddr: 0x10002C668, symSize: 0x4C }
  - { offsetInCU: 0x6FF18, offset: 0x6FF18, size: 0x8, addend: 0x0, symName: __ZNSt3__16chronomiB8ue170006IxNS_5ratioILl1ELl1000000000EEExS3_EENS_11common_typeIJNS0_8durationIT_T0_EENS5_IT1_T2_EEEE4typeERKS8_RKSB_, symObjAddr: 0x2E7F8, symBinAddr: 0x100031A14, symSize: 0x70 }
  - { offsetInCU: 0x6FF85, offset: 0x6FF85, size: 0x8, addend: 0x0, symName: __ZNSt3__16chronomiB8ue170006INS0_12steady_clockENS0_8durationIxNS_5ratioILl1ELl1000000000EEEEES6_EENS_11common_typeIJT0_T1_EE4typeERKNS0_10time_pointIT_S8_EERKNSC_ISD_S9_EE, symObjAddr: 0x3B4, symBinAddr: 0x1000035D0, symSize: 0x58 }
  - { offsetInCU: 0x6FFDD, offset: 0x6FFDD, size: 0x8, addend: 0x0, symName: __ZNSt3__16chrono13duration_castB8ue170006INS0_8durationIdNS_5ratioILl1ELl1EEEEExNS3_ILl1ELl1000000000EEEEENS_9enable_ifIXsr13__is_durationIT_EE5valueES8_E4typeERKNS2_IT0_T1_EE, symObjAddr: 0x554, symBinAddr: 0x100003770, symSize: 0x30 }
  - { offsetInCU: 0x7026B, offset: 0x7026B, size: 0x8, addend: 0x0, symName: __ZNSt3__124__put_character_sequenceB8ue170006IcNS_11char_traitsIcEEEERNS_13basic_ostreamIT_T0_EES7_PKS4_m, symObjAddr: 0x2E8EC, symBinAddr: 0x100031B08, symSize: 0x1EC }
  - { offsetInCU: 0x71DDF, offset: 0x71DDF, size: 0x8, addend: 0x0, symName: __ZNSt3__1lsB8ue170006INS_11char_traitsIcEEEERNS_13basic_ostreamIcT_EES6_PKc, symObjAddr: 0x448, symBinAddr: 0x100003664, symSize: 0x48 }
  - { offsetInCU: 0x72026, offset: 0x72026, size: 0x8, addend: 0x0, symName: __ZNSt3__13maxB8ue170006IdEERKT_S3_S3_, symObjAddr: 0x59D4, symBinAddr: 0x100008BF0, symSize: 0x2C }
  - { offsetInCU: 0x72069, offset: 0x72069, size: 0x8, addend: 0x0, symName: __ZNSt3__13maxB8ue170006IdNS_6__lessIvvEEEERKT_S5_S5_T0_, symObjAddr: 0x5A00, symBinAddr: 0x100008C1C, symSize: 0x54 }
  - { offsetInCU: 0x72139, offset: 0x72139, size: 0x8, addend: 0x0, symName: __ZNSt3__13minB8ue170006IlEERKT_S3_S3_, symObjAddr: 0x63E8, symBinAddr: 0x100009604, symSize: 0x2C }
  - { offsetInCU: 0x7217C, offset: 0x7217C, size: 0x8, addend: 0x0, symName: __ZNSt3__13maxB8ue170006IlEERKT_S3_S3_, symObjAddr: 0x678C, symBinAddr: 0x1000099A8, symSize: 0x2C }
  - { offsetInCU: 0x721BF, offset: 0x721BF, size: 0x8, addend: 0x0, symName: __ZNSt3__13minB8ue170006IlNS_6__lessIvvEEEERKT_S5_S5_T0_, symObjAddr: 0x7690, symBinAddr: 0x10000A8AC, symSize: 0x54 }
  - { offsetInCU: 0x72219, offset: 0x72219, size: 0x8, addend: 0x0, symName: __ZNSt3__13maxB8ue170006IlNS_6__lessIvvEEEERKT_S5_S5_T0_, symObjAddr: 0xD9BC, symBinAddr: 0x100010BD8, symSize: 0x54 }
  - { offsetInCU: 0x72273, offset: 0x72273, size: 0x8, addend: 0x0, symName: __ZNSt3__14swapB8ue170006IdEENS_9enable_ifIXaasr21is_move_constructibleIT_EE5valuesr18is_move_assignableIS2_EE5valueEvE4typeERS2_S5_, symObjAddr: 0xE83C, symBinAddr: 0x100011A58, symSize: 0x3C }
  - { offsetInCU: 0x722C4, offset: 0x722C4, size: 0x8, addend: 0x0, symName: __ZNSt3__14swapB8ue170006IiEENS_9enable_ifIXaasr21is_move_constructibleIT_EE5valuesr18is_move_assignableIS2_EE5valueEvE4typeERS2_S5_, symObjAddr: 0x28178, symBinAddr: 0x10002B394, symSize: 0x3C }
  - { offsetInCU: 0x72315, offset: 0x72315, size: 0x8, addend: 0x0, symName: __ZNSt3__16fill_nB8ue170006IPblbEET_S2_T0_RKT1_, symObjAddr: 0x2AC78, symBinAddr: 0x10002DE94, symSize: 0x44 }
  - { offsetInCU: 0x72378, offset: 0x72378, size: 0x8, addend: 0x0, symName: __ZNSt3__18__fill_nB8ue170006IPblbEET_S2_T0_RKT1_, symObjAddr: 0x2AF04, symBinAddr: 0x10002E120, symSize: 0x68 }
  - { offsetInCU: 0x723DB, offset: 0x723DB, size: 0x8, addend: 0x0, symName: __ZNSt3__121__convert_to_integralB8ue170006El, symObjAddr: 0x2AF6C, symBinAddr: 0x10002E188, symSize: 0x14 }
  - { offsetInCU: 0x72407, offset: 0x72407, size: 0x8, addend: 0x0, symName: __ZNSt3__116__pad_and_outputB8ue170006IcNS_11char_traitsIcEEEENS_19ostreambuf_iteratorIT_T0_EES6_PKS4_S8_S8_RNS_8ios_baseES4_, symObjAddr: 0x2EB28, symBinAddr: 0x100031D44, symSize: 0x240 }
  - { offsetInCU: 0x724D6, offset: 0x724D6, size: 0x8, addend: 0x0, symName: __ZNSt3__112__to_addressB8ue170006IKcEEPT_S3_, symObjAddr: 0x2F090, symBinAddr: 0x1000322AC, symSize: 0x14 }
  - { offsetInCU: 0x7253E, offset: 0x7253E, size: 0x8, addend: 0x0, symName: __ZNSt3__19use_facetB8ue170006INS_5ctypeIcEEEERKT_RKNS_6localeE, symObjAddr: 0x2F310, symBinAddr: 0x10003252C, symSize: 0x2C }
  - { offsetInCU: 0x72A0C, offset: 0x72A0C, size: 0x8, addend: 0x0, symName: __ZNSt3__118__constexpr_strlenB8ue170006EPKc, symObjAddr: 0x2F3A8, symBinAddr: 0x1000325C4, symSize: 0x24 }
  - { offsetInCU: 0x74CBB, offset: 0x74CBB, size: 0x8, addend: 0x0, symName: __ZN5Eigen8internal21dense_assignment_loopINS0_31generic_dense_assignment_kernelINS0_9evaluatorINS_6MatrixIdLin1ELin1ELi0ELin1ELin1EEEEES6_NS0_9assign_opIddEELi0EEELi3ELi0EE3runERS9_, symObjAddr: 0x3288, symBinAddr: 0x1000064A4, symSize: 0xA8 }
  - { offsetInCU: 0x76B0B, offset: 0x76B0B, size: 0x8, addend: 0x0, symName: __ZN5Eigen8internal21dense_assignment_loopINS0_31generic_dense_assignment_kernelINS0_9evaluatorINS_5BlockINS4_INS_3RefINS_6MatrixIdLin1ELin1ELi0ELin1ELin1EEELi0ENS_11OuterStrideILin1EEEEELin1ELi1ELb1EEELin1ELi1ELb0EEEEENS3_INS_14CwiseNullaryOpINS0_18scalar_constant_opIdEENS6_IdLin1ELi1ELi0ELin1ELi1EEEEEEENS0_13div_assign_opIddEELi0EEELi3ELi0EE3runERSM_, symObjAddr: 0x9CB4, symBinAddr: 0x10000CED0, symSize: 0xC0 }
  - { offsetInCU: 0x7763E, offset: 0x7763E, size: 0x8, addend: 0x0, symName: __ZN5Eigen8internal21dense_assignment_loopINS0_31generic_dense_assignment_kernelINS0_9evaluatorINS_5BlockINS4_INS_3RefINS_6MatrixIdLin1ELin1ELi0ELin1ELin1EEELi0ENS_11OuterStrideILin1EEEEELin1ELin1ELb0EEELin1ELi1ELb1EEEEENS3_INS_13CwiseBinaryOpINS0_17scalar_product_opIddEEKNS_14CwiseNullaryOpINS0_18scalar_constant_opIdEEKNS6_IdLin1ELi1ELi0ELin1ELi1EEEEEKNS4_INS4_ISA_Lin1ELi1ELb1EEELin1ELi1ELb0EEEEEEENS0_13sub_assign_opIddEELi0EEELi3ELi0EE3runERSV_, symObjAddr: 0xC13C, symBinAddr: 0x10000F358, symSize: 0xC0 }
  - { offsetInCU: 0x777FF, offset: 0x777FF, size: 0x8, addend: 0x0, symName: __ZN5Eigen8internal23triangular_solve_matrixIdlLi1ELi5ELb0ELi0ELi0ELi1EE3runEllPKdlPdllRNS0_15level3_blockingIddEE, symObjAddr: 0xECF0, symBinAddr: 0x100011F0C, symSize: 0x1250 }
  - { offsetInCU: 0x783ED, offset: 0x783ED, size: 0x8, addend: 0x0, symName: __ZN5Eigen8internal13gemm_pack_lhsIdlNS0_22const_blas_data_mapperIdlLi0EEELi6ELi2E19__simd128_float64_tLi0ELb0ELb0EEclEPdRKS3_llll, symObjAddr: 0x11460, symBinAddr: 0x10001467C, symSize: 0x73C }
  - { offsetInCU: 0x7896A, offset: 0x7896A, size: 0x8, addend: 0x0, symName: __ZN5Eigen8internal11gebp_kernelIddlNS0_16blas_data_mapperIdlLi0ELi0ELi1EEELi6ELi4ELb0ELb0EEclERKS3_PKdS8_llldllll, symObjAddr: 0x11B9C, symBinAddr: 0x100014DB8, symSize: 0x67D0 }
  - { offsetInCU: 0x7B32A, offset: 0x7B32A, size: 0x8, addend: 0x0, symName: __ZN5Eigen8internal21dense_assignment_loopINS0_41restricted_packet_dense_assignment_kernelINS0_9evaluatorINS_3RefINS_6MatrixIdLin1ELin1ELi0ELin1ELin1EEELi0ENS_11OuterStrideILin1EEEEEEENS3_INS_7ProductIS9_S9_Li1EEEEENS0_13sub_assign_opIddEEEELi4ELi0EE3runERSG_, symObjAddr: 0x1ADA4, symBinAddr: 0x10001DFC0, symSize: 0x214 }
  - { offsetInCU: 0x7B4BC, offset: 0x7B4BC, size: 0x8, addend: 0x0, symName: __ZN5Eigen8internal29general_matrix_vector_productIldNS0_22const_blas_data_mapperIdlLi0EEELi0ELb0EdNS2_IdlLi1EEELb0ELi0EE3runEllRKS3_RKS4_Pdld, symObjAddr: 0x1FA2C, symBinAddr: 0x100022C48, symSize: 0x15D4 }
  - { offsetInCU: 0x7C3BC, offset: 0x7C3BC, size: 0x8, addend: 0x0, symName: __ZN5Eigen8internal29general_matrix_vector_productIldNS0_22const_blas_data_mapperIdlLi1EEELi1ELb0EdNS2_IdlLi0EEELb0ELi0EE3runEllRKS3_RKS4_Pdld, symObjAddr: 0x232FC, symBinAddr: 0x100026518, symSize: 0x17A4 }
  - { offsetInCU: 0x7D99A, offset: 0x7D99A, size: 0x8, addend: 0x0, symName: __ZN5Eigen8internal23triangular_solve_matrixIdlLi1ELi2ELb0ELi0ELi0ELi1EE3runEllPKdlPdllRNS0_15level3_blockingIddEE, symObjAddr: 0x2D540, symBinAddr: 0x10003075C, symSize: 0x1240 }
  - { offsetInCU: 0x7E711, offset: 0x7E711, size: 0x8, addend: 0x0, symName: __ZNKSt3__16chrono15__duration_castINS0_8durationIxNS_5ratioILl1ELl1000000000EEEEENS2_IdNS3_ILl1ELl1EEEEES4_Lb1ELb0EEclB8ue170006ERKS5_, symObjAddr: 0x584, symBinAddr: 0x1000037A0, symSize: 0x50 }
  - { offsetInCU: 0x7E7B7, offset: 0x7E7B7, size: 0x8, addend: 0x0, symName: __ZN5Eigen8internal15partial_lu_implIdLi0EiLin1EE12unblocked_luERNS_3RefINS_6MatrixIdLin1ELin1ELi0ELin1ELin1EEELi0ENS_11OuterStrideILin1EEEEEPiRi, symObjAddr: 0x6414, symBinAddr: 0x100009630, symSize: 0x378 }
  - { offsetInCU: 0x7F358, offset: 0x7F358, size: 0x8, addend: 0x0, symName: __ZN5Eigen8internal19gemv_dense_selectorILi2ELi1ELb1EE3runINS_9TransposeIKNS_3RefINS_6MatrixIdLin1ELin1ELi0ELin1ELin1EEELi0ENS_11OuterStrideILin1EEEEEEENS4_IKNS_5BlockISB_Li1ELin1ELb0EEEEENS4_INSD_ISA_Li1ELin1ELb0EEEEEEEvRKT_RKT0_RT1_RKNSP_6ScalarE, symObjAddr: 0x22BD8, symBinAddr: 0x100025DF4, symSize: 0x4CC }
  - { offsetInCU: 0x82121, offset: 0x82121, size: 0x8, addend: 0x0, symName: __ZN5Eigen8symbolic10SymbolExprINS_8internal17symbolic_last_tagEEC1Ev, symObjAddr: 0x0, symBinAddr: 0x10000321C, symSize: 0x2C }
  - { offsetInCU: 0x8214B, offset: 0x8214B, size: 0x8, addend: 0x0, symName: __ZNK5Eigen8symbolic8BaseExprINS0_10SymbolExprINS_8internal17symbolic_last_tagEEEEplILi1EEENS0_7AddExprIS5_NS0_9ValueExprINS3_8FixedIntIXT_EEEEEEESB_, symObjAddr: 0x2C, symBinAddr: 0x100003248, symSize: 0x48 }
  - { offsetInCU: 0x82186, offset: 0x82186, size: 0x8, addend: 0x0, symName: __ZN5Eigen8internal5all_tC1Ev, symObjAddr: 0x94, symBinAddr: 0x1000032B0, symSize: 0x2C }
  - { offsetInCU: 0x821AF, offset: 0x821AF, size: 0x8, addend: 0x0, symName: __Z17testMatrixInversei, symObjAddr: 0xC0, symBinAddr: 0x1000032DC, symSize: 0x1A8 }
  - { offsetInCU: 0x82221, offset: 0x82221, size: 0x8, addend: 0x0, symName: __ZN5Eigen9DenseBaseINS_6MatrixIdLin1ELin1ELi0ELin1ELin1EEEE6RandomEll, symObjAddr: 0x268, symBinAddr: 0x100003484, symSize: 0x58 }
  - { offsetInCU: 0x8225B, offset: 0x8225B, size: 0x8, addend: 0x0, symName: __ZN5Eigen6MatrixIdLin1ELin1ELi0ELin1ELin1EEC1INS_14CwiseNullaryOpINS_8internal16scalar_random_opIdEES1_EEEERKNS_9EigenBaseIT_EE, symObjAddr: 0x2C0, symBinAddr: 0x1000034DC, symSize: 0x34 }
  - { offsetInCU: 0x8229D, offset: 0x8229D, size: 0x8, addend: 0x0, symName: __ZNK5Eigen10MatrixBaseINS_6MatrixIdLin1ELin1ELi0ELin1ELin1EEEE7inverseEv, symObjAddr: 0x2F4, symBinAddr: 0x100003510, symSize: 0x8C }
  - { offsetInCU: 0x822CB, offset: 0x822CB, size: 0x8, addend: 0x0, symName: __ZN5Eigen6MatrixIdLin1ELin1ELi0ELin1ELin1EEC1INS_7InverseIS1_EEEERKNS_9EigenBaseIT_EE, symObjAddr: 0x380, symBinAddr: 0x10000359C, symSize: 0x34 }
  - { offsetInCU: 0x82312, offset: 0x82312, size: 0x8, addend: 0x0, symName: __ZNSt3__16chrono8durationIdNS_5ratioILl1ELl1EEEEC1B8ue170006IxNS2_ILl1ELl1000000000EEEEERKNS1_IT_T0_EEPNS_9enable_ifIXaasr13__no_overflowIS8_S3_EE5valueooL_ZNS_17integral_constantIbLb1EE5valueEEaaeqsr13__no_overflowIS8_S3_E4typeE3denLi1Entsr23treat_as_floating_pointIS7_EE5valueEvE4typeE, symObjAddr: 0x40C, symBinAddr: 0x100003628, symSize: 0x3C }
  - { offsetInCU: 0x82368, offset: 0x82368, size: 0x8, addend: 0x0, symName: __ZNKSt3__16chrono8durationIdNS_5ratioILl1ELl1EEEE5countB8ue170006Ev, symObjAddr: 0x490, symBinAddr: 0x1000036AC, symSize: 0x18 }
  - { offsetInCU: 0x8238E, offset: 0x8238E, size: 0x8, addend: 0x0, symName: __ZN5Eigen6MatrixIdLin1ELin1ELi0ELin1ELin1EED1Ev, symObjAddr: 0x4A8, symBinAddr: 0x1000036C4, symSize: 0x2C }
  - { offsetInCU: 0x823BA, offset: 0x823BA, size: 0x8, addend: 0x0, symName: _main, symObjAddr: 0x4D4, symBinAddr: 0x1000036F0, symSize: 0x24 }
  - { offsetInCU: 0x823D4, offset: 0x823D4, size: 0x8, addend: 0x0, symName: __ZN5Eigen8internal5all_tC2Ev, symObjAddr: 0x4F8, symBinAddr: 0x100003714, symSize: 0x14 }
  - { offsetInCU: 0x823FE, offset: 0x823FE, size: 0x8, addend: 0x0, symName: __ZNSt3__16chrono8durationIdNS_5ratioILl1ELl1EEEEC2B8ue170006IxNS2_ILl1ELl1000000000EEEEERKNS1_IT_T0_EEPNS_9enable_ifIXaasr13__no_overflowIS8_S3_EE5valueooL_ZNS_17integral_constantIbLb1EE5valueEEaaeqsr13__no_overflowIS8_S3_E4typeE3denLi1Entsr23treat_as_floating_pointIS7_EE5valueEvE4typeE, symObjAddr: 0x50C, symBinAddr: 0x100003728, symSize: 0x48 }
  - { offsetInCU: 0x82454, offset: 0x82454, size: 0x8, addend: 0x0, symName: __ZNKSt3__16chrono8durationIxNS_5ratioILl1ELl1000000000EEEE5countB8ue170006Ev, symObjAddr: 0x5D4, symBinAddr: 0x1000037F0, symSize: 0x18 }
  - { offsetInCU: 0x8247A, offset: 0x8247A, size: 0x8, addend: 0x0, symName: __ZNSt3__16chrono8durationIdNS_5ratioILl1ELl1EEEEC1B8ue170006IdEERKT_PNS_9enable_ifIXaasr14is_convertibleIS8_dEE5valueooL_ZNS_17integral_constantIbLb1EE5valueEEntsr23treat_as_floating_pointIS6_EE5valueEvE4typeE, symObjAddr: 0x5EC, symBinAddr: 0x100003808, symSize: 0x3C }
  - { offsetInCU: 0x824C6, offset: 0x824C6, size: 0x8, addend: 0x0, symName: __ZNSt3__16chrono8durationIdNS_5ratioILl1ELl1EEEEC2B8ue170006IdEERKT_PNS_9enable_ifIXaasr14is_convertibleIS8_dEE5valueooL_ZNS_17integral_constantIbLb1EE5valueEEntsr23treat_as_floating_pointIS6_EE5valueEvE4typeE, symObjAddr: 0x628, symBinAddr: 0x100003844, symSize: 0x28 }
  - { offsetInCU: 0x82512, offset: 0x82512, size: 0x8, addend: 0x0, symName: __ZN5Eigen6MatrixIdLin1ELin1ELi0ELin1ELin1EED2Ev, symObjAddr: 0x650, symBinAddr: 0x10000386C, symSize: 0x2C }
  - { offsetInCU: 0x8253E, offset: 0x8253E, size: 0x8, addend: 0x0, symName: __ZN5Eigen15PlainObjectBaseINS_6MatrixIdLin1ELin1ELi0ELin1ELin1EEEED2Ev, symObjAddr: 0x67C, symBinAddr: 0x100003898, symSize: 0x2C }
  - { offsetInCU: 0x8256A, offset: 0x8256A, size: 0x8, addend: 0x0, symName: __ZN5Eigen12DenseStorageIdLin1ELin1ELin1ELi0EED1Ev, symObjAddr: 0x6A8, symBinAddr: 0x1000038C4, symSize: 0x2C }
  - { offsetInCU: 0x82594, offset: 0x82594, size: 0x8, addend: 0x0, symName: __ZN5Eigen12DenseStorageIdLin1ELin1ELin1ELi0EED2Ev, symObjAddr: 0x6D4, symBinAddr: 0x1000038F0, symSize: 0x44 }
  - { offsetInCU: 0x825BE, offset: 0x825BE, size: 0x8, addend: 0x0, symName: __ZN5Eigen8symbolic10SymbolExprINS_8internal17symbolic_last_tagEEC2Ev, symObjAddr: 0x794, symBinAddr: 0x1000039B0, symSize: 0x14 }
  - { offsetInCU: 0x825E8, offset: 0x825E8, size: 0x8, addend: 0x0, symName: __ZN5Eigen8internal8FixedIntILi1EEC1Ev, symObjAddr: 0x7A8, symBinAddr: 0x1000039C4, symSize: 0x2C }
  - { offsetInCU: 0x82612, offset: 0x82612, size: 0x8, addend: 0x0, symName: __ZN5Eigen8internal8FixedIntILi1EEC2Ev, symObjAddr: 0x7D4, symBinAddr: 0x1000039F0, symSize: 0x14 }
  - { offsetInCU: 0x8263C, offset: 0x8263C, size: 0x8, addend: 0x0, symName: __ZNK5Eigen8symbolic8BaseExprINS0_10SymbolExprINS_8internal17symbolic_last_tagEEEE7derivedEv, symObjAddr: 0x7E8, symBinAddr: 0x100003A04, symSize: 0x14 }
  - { offsetInCU: 0x82662, offset: 0x82662, size: 0x8, addend: 0x0, symName: __ZN5Eigen8symbolic9ValueExprINS_8internal8FixedIntILi1EEEEC1Ev, symObjAddr: 0x7FC, symBinAddr: 0x100003A18, symSize: 0x2C }
  - { offsetInCU: 0x8268C, offset: 0x8268C, size: 0x8, addend: 0x0, symName: __ZN5Eigen8symbolic7AddExprINS0_10SymbolExprINS_8internal17symbolic_last_tagEEENS0_9ValueExprINS3_8FixedIntILi1EEEEEEC1ERKS5_RKS9_, symObjAddr: 0x828, symBinAddr: 0x100003A44, symSize: 0x3C }
  - { offsetInCU: 0x826D2, offset: 0x826D2, size: 0x8, addend: 0x0, symName: __ZN5Eigen8symbolic9ValueExprINS_8internal8FixedIntILi1EEEEC2Ev, symObjAddr: 0x864, symBinAddr: 0x100003A80, symSize: 0x14 }
  - { offsetInCU: 0x826FC, offset: 0x826FC, size: 0x8, addend: 0x0, symName: __ZN5Eigen8symbolic7AddExprINS0_10SymbolExprINS_8internal17symbolic_last_tagEEENS0_9ValueExprINS3_8FixedIntILi1EEEEEEC2ERKS5_RKS9_, symObjAddr: 0x878, symBinAddr: 0x100003A94, symSize: 0x1C }
  - { offsetInCU: 0x82742, offset: 0x82742, size: 0x8, addend: 0x0, symName: __ZN5Eigen9DenseBaseINS_6MatrixIdLin1ELin1ELi0ELin1ELin1EEEE11NullaryExprINS_8internal16scalar_random_opIdEEEEKNS_14CwiseNullaryOpIT_S2_EEllRKS9_, symObjAddr: 0x894, symBinAddr: 0x100003AB0, symSize: 0x48 }
  - { offsetInCU: 0x8278F, offset: 0x8278F, size: 0x8, addend: 0x0, symName: __ZN5Eigen8internal16scalar_random_opIdEC1Ev, symObjAddr: 0x8DC, symBinAddr: 0x100003AF8, symSize: 0x2C }
  - { offsetInCU: 0x827B9, offset: 0x827B9, size: 0x8, addend: 0x0, symName: __ZN5Eigen14CwiseNullaryOpINS_8internal16scalar_random_opIdEENS_6MatrixIdLin1ELin1ELi0ELin1ELin1EEEEC1EllRKS3_, symObjAddr: 0x908, symBinAddr: 0x100003B24, symSize: 0x44 }
  - { offsetInCU: 0x8280D, offset: 0x8280D, size: 0x8, addend: 0x0, symName: __ZN5Eigen14CwiseNullaryOpINS_8internal16scalar_random_opIdEENS_6MatrixIdLin1ELin1ELi0ELin1ELin1EEEEC2EllRKS3_, symObjAddr: 0x94C, symBinAddr: 0x100003B68, symSize: 0xDC }
  - { offsetInCU: 0x82861, offset: 0x82861, size: 0x8, addend: 0x0, symName: __ZN5Eigen10MatrixBaseINS_14CwiseNullaryOpINS_8internal16scalar_random_opIdEENS_6MatrixIdLin1ELin1ELi0ELin1ELin1EEEEEEC2Ev, symObjAddr: 0xA28, symBinAddr: 0x100003C44, symSize: 0x2C }
  - { offsetInCU: 0x8288B, offset: 0x8288B, size: 0x8, addend: 0x0, symName: __ZN5Eigen8internal19variable_if_dynamicIlLin1EEC1El, symObjAddr: 0xA54, symBinAddr: 0x100003C70, symSize: 0x34 }
  - { offsetInCU: 0x828C3, offset: 0x828C3, size: 0x8, addend: 0x0, symName: __ZN5Eigen8internal16scalar_random_opIdEC1ERKS2_, symObjAddr: 0xA88, symBinAddr: 0x100003CA4, symSize: 0x34 }
  - { offsetInCU: 0x828F8, offset: 0x828F8, size: 0x8, addend: 0x0, symName: __ZN5Eigen9DenseBaseINS_14CwiseNullaryOpINS_8internal16scalar_random_opIdEENS_6MatrixIdLin1ELin1ELi0ELin1ELin1EEEEEEC2Ev, symObjAddr: 0xABC, symBinAddr: 0x100003CD8, symSize: 0x14 }
  - { offsetInCU: 0x82922, offset: 0x82922, size: 0x8, addend: 0x0, symName: __ZN5Eigen8internal19variable_if_dynamicIlLin1EEC2El, symObjAddr: 0xAD0, symBinAddr: 0x100003CEC, symSize: 0x20 }
  - { offsetInCU: 0x8295A, offset: 0x8295A, size: 0x8, addend: 0x0, symName: __ZN5Eigen8internal16scalar_random_opIdEC2ERKS2_, symObjAddr: 0xAF0, symBinAddr: 0x100003D0C, symSize: 0x18 }
  - { offsetInCU: 0x8298F, offset: 0x8298F, size: 0x8, addend: 0x0, symName: __ZN5Eigen8internal16scalar_random_opIdEC2Ev, symObjAddr: 0xB08, symBinAddr: 0x100003D24, symSize: 0x14 }
  - { offsetInCU: 0x829B9, offset: 0x829B9, size: 0x8, addend: 0x0, symName: __ZN5Eigen6MatrixIdLin1ELin1ELi0ELin1ELin1EEC2INS_14CwiseNullaryOpINS_8internal16scalar_random_opIdEES1_EEEERKNS_9EigenBaseIT_EE, symObjAddr: 0xB1C, symBinAddr: 0x100003D38, symSize: 0x40 }
  - { offsetInCU: 0x829FB, offset: 0x829FB, size: 0x8, addend: 0x0, symName: __ZNK5Eigen9EigenBaseINS_14CwiseNullaryOpINS_8internal16scalar_random_opIdEENS_6MatrixIdLin1ELin1ELi0ELin1ELin1EEEEEE7derivedEv, symObjAddr: 0xB5C, symBinAddr: 0x100003D78, symSize: 0x14 }
  - { offsetInCU: 0x82A21, offset: 0x82A21, size: 0x8, addend: 0x0, symName: __ZN5Eigen15PlainObjectBaseINS_6MatrixIdLin1ELin1ELi0ELin1ELin1EEEEC2INS_14CwiseNullaryOpINS_8internal16scalar_random_opIdEES2_EEEERKNS_9DenseBaseIT_EE, symObjAddr: 0xB70, symBinAddr: 0x100003D8C, symSize: 0x84 }
  - { offsetInCU: 0x82A63, offset: 0x82A63, size: 0x8, addend: 0x0, symName: __ZN5Eigen10MatrixBaseINS_6MatrixIdLin1ELin1ELi0ELin1ELin1EEEEC2Ev, symObjAddr: 0xBF4, symBinAddr: 0x100003E10, symSize: 0x2C }
  - { offsetInCU: 0x82A8D, offset: 0x82A8D, size: 0x8, addend: 0x0, symName: __ZN5Eigen12DenseStorageIdLin1ELin1ELin1ELi0EEC1Ev, symObjAddr: 0xC20, symBinAddr: 0x100003E3C, symSize: 0x2C }
  - { offsetInCU: 0x82AB7, offset: 0x82AB7, size: 0x8, addend: 0x0, symName: __ZN5Eigen15PlainObjectBaseINS_6MatrixIdLin1ELin1ELi0ELin1ELin1EEEE22_check_template_paramsEv, symObjAddr: 0xC4C, symBinAddr: 0x100003E68, symSize: 0x4 }
  - { offsetInCU: 0x82B0C, offset: 0x82B0C, size: 0x8, addend: 0x0, symName: __ZN5Eigen15PlainObjectBaseINS_6MatrixIdLin1ELin1ELi0ELin1ELin1EEEE10resizeLikeINS_14CwiseNullaryOpINS_8internal16scalar_random_opIdEES2_EEEEvRKNS_9EigenBaseIT_EE, symObjAddr: 0xC50, symBinAddr: 0x100003E6C, symSize: 0x11C }
  - { offsetInCU: 0x82BA0, offset: 0x82BA0, size: 0x8, addend: 0x0, symName: __ZN5Eigen15PlainObjectBaseINS_6MatrixIdLin1ELin1ELi0ELin1ELin1EEEE12_set_noaliasINS_14CwiseNullaryOpINS_8internal16scalar_random_opIdEES2_EEEERS2_RKNS_9DenseBaseIT_EE, symObjAddr: 0xD6C, symBinAddr: 0x100003F88, symSize: 0x60 }
  - { offsetInCU: 0x82BDE, offset: 0x82BDE, size: 0x8, addend: 0x0, symName: __ZN5Eigen9DenseBaseINS_6MatrixIdLin1ELin1ELi0ELin1ELin1EEEEC2Ev, symObjAddr: 0xDCC, symBinAddr: 0x100003FE8, symSize: 0x14 }
  - { offsetInCU: 0x82C08, offset: 0x82C08, size: 0x8, addend: 0x0, symName: __ZN5Eigen12DenseStorageIdLin1ELin1ELin1ELi0EEC2Ev, symObjAddr: 0xDE0, symBinAddr: 0x100003FFC, symSize: 0x20 }
  - { offsetInCU: 0x82C32, offset: 0x82C32, size: 0x8, addend: 0x0, symName: __ZNK5Eigen14CwiseNullaryOpINS_8internal16scalar_random_opIdEENS_6MatrixIdLin1ELin1ELi0ELin1ELin1EEEE4rowsEv, symObjAddr: 0xE00, symBinAddr: 0x10000401C, symSize: 0x24 }
  - { offsetInCU: 0x82C58, offset: 0x82C58, size: 0x8, addend: 0x0, symName: __ZNK5Eigen14CwiseNullaryOpINS_8internal16scalar_random_opIdEENS_6MatrixIdLin1ELin1ELi0ELin1ELin1EEEE4colsEv, symObjAddr: 0xE24, symBinAddr: 0x100004040, symSize: 0x28 }
  - { offsetInCU: 0x82C7E, offset: 0x82C7E, size: 0x8, addend: 0x0, symName: __ZN5Eigen15PlainObjectBaseINS_6MatrixIdLin1ELin1ELi0ELin1ELin1EEEE6resizeEll, symObjAddr: 0xE4C, symBinAddr: 0x100004068, symSize: 0x14C }
  - { offsetInCU: 0x82CFA, offset: 0x82CFA, size: 0x8, addend: 0x0, symName: __ZNK5Eigen8internal19variable_if_dynamicIlLin1EE5valueEv, symObjAddr: 0xFCC, symBinAddr: 0x1000041E8, symSize: 0x18 }
  - { offsetInCU: 0x82D20, offset: 0x82D20, size: 0x8, addend: 0x0, symName: __ZN5Eigen12DenseStorageIdLin1ELin1ELin1ELi0EE6resizeElll, symObjAddr: 0xFE4, symBinAddr: 0x100004200, symSize: 0xB4 }
  - { offsetInCU: 0x82D73, offset: 0x82D73, size: 0x8, addend: 0x0, symName: __ZN5Eigen9EigenBaseINS_6MatrixIdLin1ELin1ELi0ELin1ELin1EEEE7derivedEv, symObjAddr: 0x125C, symBinAddr: 0x100004478, symSize: 0x14 }
  - { offsetInCU: 0x82D99, offset: 0x82D99, size: 0x8, addend: 0x0, symName: __ZN5Eigen8internal9assign_opIddEC1Ev, symObjAddr: 0x1270, symBinAddr: 0x10000448C, symSize: 0x2C }
  - { offsetInCU: 0x82DC3, offset: 0x82DC3, size: 0x8, addend: 0x0, symName: __ZN5Eigen8internal10AssignmentINS_6MatrixIdLin1ELin1ELi0ELin1ELin1EEENS_14CwiseNullaryOpINS0_16scalar_random_opIdEES3_EENS0_9assign_opIddEENS0_11Dense2DenseEvE3runERS3_RKS7_RKS9_, symObjAddr: 0x129C, symBinAddr: 0x1000044B8, symSize: 0x40 }
  - { offsetInCU: 0x82E05, offset: 0x82E05, size: 0x8, addend: 0x0, symName: __ZNK5Eigen15PlainObjectBaseINS_6MatrixIdLin1ELin1ELi0ELin1ELin1EEEE4rowsEv, symObjAddr: 0x141C, symBinAddr: 0x100004638, symSize: 0x24 }
  - { offsetInCU: 0x82E2B, offset: 0x82E2B, size: 0x8, addend: 0x0, symName: __ZNK5Eigen15PlainObjectBaseINS_6MatrixIdLin1ELin1ELi0ELin1ELin1EEEE4colsEv, symObjAddr: 0x1440, symBinAddr: 0x10000465C, symSize: 0x24 }
  - { offsetInCU: 0x82E51, offset: 0x82E51, size: 0x8, addend: 0x0, symName: __ZN5Eigen8internal27checkTransposeAliasing_implINS_6MatrixIdLin1ELin1ELi0ELin1ELin1EEENS_14CwiseNullaryOpINS0_16scalar_random_opIdEES3_EELb0EE3runERKS3_RKS7_, symObjAddr: 0x1464, symBinAddr: 0x100004680, symSize: 0x14 }
  - { offsetInCU: 0x82E7C, offset: 0x82E7C, size: 0x8, addend: 0x0, symName: __ZNK5Eigen12DenseStorageIdLin1ELin1ELin1ELi0EE4rowsEv, symObjAddr: 0x1478, symBinAddr: 0x100004694, symSize: 0x18 }
  - { offsetInCU: 0x82EA2, offset: 0x82EA2, size: 0x8, addend: 0x0, symName: __ZNK5Eigen12DenseStorageIdLin1ELin1ELin1ELi0EE4colsEv, symObjAddr: 0x1490, symBinAddr: 0x1000046AC, symSize: 0x18 }
  - { offsetInCU: 0x82EEB, offset: 0x82EEB, size: 0x8, addend: 0x0, symName: __ZN5Eigen8internal9evaluatorINS_14CwiseNullaryOpINS0_16scalar_random_opIdEENS_6MatrixIdLin1ELin1ELi0ELin1ELin1EEEEEEC1ERKS7_, symObjAddr: 0x14A8, symBinAddr: 0x1000046C4, symSize: 0x34 }
  - { offsetInCU: 0x82F24, offset: 0x82F24, size: 0x8, addend: 0x0, symName: __ZN5Eigen8internal9evaluatorINS_6MatrixIdLin1ELin1ELi0ELin1ELin1EEEEC1ERKS3_, symObjAddr: 0x15D4, symBinAddr: 0x1000047F0, symSize: 0x34 }
  - { offsetInCU: 0x82F5D, offset: 0x82F5D, size: 0x8, addend: 0x0, symName: __ZNK5Eigen9EigenBaseINS_6MatrixIdLin1ELin1ELi0ELin1ELin1EEEE18const_cast_derivedEv, symObjAddr: 0x1608, symBinAddr: 0x100004824, symSize: 0x14 }
  - { offsetInCU: 0x82FB0, offset: 0x82FB0, size: 0x8, addend: 0x0, symName: __ZN5Eigen8internal31generic_dense_assignment_kernelINS0_9evaluatorINS_6MatrixIdLin1ELin1ELi0ELin1ELin1EEEEENS2_INS_14CwiseNullaryOpINS0_16scalar_random_opIdEES4_EEEENS0_9assign_opIddEELi0EEC1ERS5_RKSA_RKSC_RS4_, symObjAddr: 0x161C, symBinAddr: 0x100004838, symSize: 0x4C }
  - { offsetInCU: 0x8301B, offset: 0x8301B, size: 0x8, addend: 0x0, symName: __ZN5Eigen8internal21dense_assignment_loopINS0_31generic_dense_assignment_kernelINS0_9evaluatorINS_6MatrixIdLin1ELin1ELi0ELin1ELin1EEEEENS3_INS_14CwiseNullaryOpINS0_16scalar_random_opIdEES5_EEEENS0_9assign_opIddEELi0EEELi1ELi0EE3runERSE_, symObjAddr: 0x1668, symBinAddr: 0x100004884, symSize: 0x68 }
  - { offsetInCU: 0x8306B, offset: 0x8306B, size: 0x8, addend: 0x0, symName: __ZN5Eigen8internal9evaluatorINS_6MatrixIdLin1ELin1ELi0ELin1ELin1EEEED1Ev, symObjAddr: 0x16D0, symBinAddr: 0x1000048EC, symSize: 0x2C }
  - { offsetInCU: 0x83098, offset: 0x83098, size: 0x8, addend: 0x0, symName: __ZN5Eigen8internal9evaluatorINS_14CwiseNullaryOpINS0_16scalar_random_opIdEENS_6MatrixIdLin1ELin1ELi0ELin1ELin1EEEEEED1Ev, symObjAddr: 0x16FC, symBinAddr: 0x100004918, symSize: 0x2C }
  - { offsetInCU: 0x830C4, offset: 0x830C4, size: 0x8, addend: 0x0, symName: __ZN5Eigen8internal9evaluatorINS_14CwiseNullaryOpINS0_16scalar_random_opIdEENS_6MatrixIdLin1ELin1ELi0ELin1ELin1EEEEEEC2ERKS7_, symObjAddr: 0x1728, symBinAddr: 0x100004944, symSize: 0x74 }
  - { offsetInCU: 0x830FD, offset: 0x830FD, size: 0x8, addend: 0x0, symName: __ZN5Eigen8internal14evaluator_baseINS_14CwiseNullaryOpINS0_16scalar_random_opIdEENS_6MatrixIdLin1ELin1ELi0ELin1ELin1EEEEEEC2Ev, symObjAddr: 0x179C, symBinAddr: 0x1000049B8, symSize: 0x14 }
  - { offsetInCU: 0x83127, offset: 0x83127, size: 0x8, addend: 0x0, symName: __ZNK5Eigen14CwiseNullaryOpINS_8internal16scalar_random_opIdEENS_6MatrixIdLin1ELin1ELi0ELin1ELin1EEEE7functorEv, symObjAddr: 0x17B0, symBinAddr: 0x1000049CC, symSize: 0x18 }
  - { offsetInCU: 0x8314D, offset: 0x8314D, size: 0x8, addend: 0x0, symName: __ZN5Eigen8internal14evaluator_baseINS_14CwiseNullaryOpINS0_16scalar_random_opIdEENS_6MatrixIdLin1ELin1ELi0ELin1ELin1EEEEEED2Ev, symObjAddr: 0x17C8, symBinAddr: 0x1000049E4, symSize: 0x14 }
  - { offsetInCU: 0x83177, offset: 0x83177, size: 0x8, addend: 0x0, symName: __ZN5Eigen8internal9evaluatorINS_6MatrixIdLin1ELin1ELi0ELin1ELin1EEEEC2ERKS3_, symObjAddr: 0x17DC, symBinAddr: 0x1000049F8, symSize: 0x34 }
  - { offsetInCU: 0x831B0, offset: 0x831B0, size: 0x8, addend: 0x0, symName: __ZN5Eigen8internal9evaluatorINS_15PlainObjectBaseINS_6MatrixIdLin1ELin1ELi0ELin1ELin1EEEEEEC2ERKS5_, symObjAddr: 0x1810, symBinAddr: 0x100004A2C, symSize: 0x80 }
  - { offsetInCU: 0x831E8, offset: 0x831E8, size: 0x8, addend: 0x0, symName: __ZN5Eigen8internal14evaluator_baseINS_6MatrixIdLin1ELin1ELi0ELin1ELin1EEEEC2Ev, symObjAddr: 0x1890, symBinAddr: 0x100004AAC, symSize: 0x14 }
  - { offsetInCU: 0x83212, offset: 0x83212, size: 0x8, addend: 0x0, symName: __ZNK5Eigen15PlainObjectBaseINS_6MatrixIdLin1ELin1ELi0ELin1ELin1EEEE4dataEv, symObjAddr: 0x18A4, symBinAddr: 0x100004AC0, symSize: 0x24 }
  - { offsetInCU: 0x83238, offset: 0x83238, size: 0x8, addend: 0x0, symName: __ZNK5Eigen15DenseCoeffsBaseINS_6MatrixIdLin1ELin1ELi0ELin1ELin1EEELi3EE11outerStrideEv, symObjAddr: 0x18C8, symBinAddr: 0x100004AE4, symSize: 0x38 }
  - { offsetInCU: 0x8325E, offset: 0x8325E, size: 0x8, addend: 0x0, symName: __ZN5Eigen8internal30plainobjectbase_evaluator_dataIdLin1EEC1EPKdl, symObjAddr: 0x1900, symBinAddr: 0x100004B1C, symSize: 0x3C }
  - { offsetInCU: 0x832A4, offset: 0x832A4, size: 0x8, addend: 0x0, symName: __ZN5Eigen8internal14evaluator_baseINS_6MatrixIdLin1ELin1ELi0ELin1ELin1EEEED2Ev, symObjAddr: 0x193C, symBinAddr: 0x100004B58, symSize: 0x14 }
  - { offsetInCU: 0x832CE, offset: 0x832CE, size: 0x8, addend: 0x0, symName: __ZNK5Eigen12DenseStorageIdLin1ELin1ELin1ELi0EE4dataEv, symObjAddr: 0x1950, symBinAddr: 0x100004B6C, symSize: 0x18 }
  - { offsetInCU: 0x832F4, offset: 0x832F4, size: 0x8, addend: 0x0, symName: __ZNK5Eigen9EigenBaseINS_6MatrixIdLin1ELin1ELi0ELin1ELin1EEEE7derivedEv, symObjAddr: 0x1968, symBinAddr: 0x100004B84, symSize: 0x14 }
  - { offsetInCU: 0x8331A, offset: 0x8331A, size: 0x8, addend: 0x0, symName: __ZNK5Eigen6MatrixIdLin1ELin1ELi0ELin1ELin1EE11outerStrideEv, symObjAddr: 0x197C, symBinAddr: 0x100004B98, symSize: 0x34 }
  - { offsetInCU: 0x83340, offset: 0x83340, size: 0x8, addend: 0x0, symName: __ZNK5Eigen9DenseBaseINS_6MatrixIdLin1ELin1ELi0ELin1ELin1EEEE9innerSizeEv, symObjAddr: 0x19B0, symBinAddr: 0x100004BCC, symSize: 0x24 }
  - { offsetInCU: 0x83366, offset: 0x83366, size: 0x8, addend: 0x0, symName: __ZNK5Eigen9EigenBaseINS_6MatrixIdLin1ELin1ELi0ELin1ELin1EEEE4rowsEv, symObjAddr: 0x19D4, symBinAddr: 0x100004BF0, symSize: 0x28 }
  - { offsetInCU: 0x8338C, offset: 0x8338C, size: 0x8, addend: 0x0, symName: __ZN5Eigen8internal30plainobjectbase_evaluator_dataIdLin1EEC2EPKdl, symObjAddr: 0x19FC, symBinAddr: 0x100004C18, symSize: 0x2C }
  - { offsetInCU: 0x833D2, offset: 0x833D2, size: 0x8, addend: 0x0, symName: __ZN5Eigen8internal31generic_dense_assignment_kernelINS0_9evaluatorINS_6MatrixIdLin1ELin1ELi0ELin1ELin1EEEEENS2_INS_14CwiseNullaryOpINS0_16scalar_random_opIdEES4_EEEENS0_9assign_opIddEELi0EEC2ERS5_RKSA_RKSC_RS4_, symObjAddr: 0x1A28, symBinAddr: 0x100004C44, symSize: 0x44 }
  - { offsetInCU: 0x83438, offset: 0x83438, size: 0x8, addend: 0x0, symName: __ZNK5Eigen8internal31generic_dense_assignment_kernelINS0_9evaluatorINS_6MatrixIdLin1ELin1ELi0ELin1ELin1EEEEENS2_INS_14CwiseNullaryOpINS0_16scalar_random_opIdEES4_EEEENS0_9assign_opIddEELi0EE4sizeEv, symObjAddr: 0x1A6C, symBinAddr: 0x100004C88, symSize: 0x28 }
  - { offsetInCU: 0x8345E, offset: 0x8345E, size: 0x8, addend: 0x0, symName: __ZN5Eigen8internal31generic_dense_assignment_kernelINS0_9evaluatorINS_6MatrixIdLin1ELin1ELi0ELin1ELin1EEEEENS2_INS_14CwiseNullaryOpINS0_16scalar_random_opIdEES4_EEEENS0_9assign_opIddEELi0EE11assignCoeffEl, symObjAddr: 0x1A94, symBinAddr: 0x100004CB0, symSize: 0x64 }
  - { offsetInCU: 0x83493, offset: 0x83493, size: 0x8, addend: 0x0, symName: __ZNK5Eigen9EigenBaseINS_6MatrixIdLin1ELin1ELi0ELin1ELin1EEEE4sizeEv, symObjAddr: 0x1AF8, symBinAddr: 0x100004D14, symSize: 0x44 }
  - { offsetInCU: 0x834B9, offset: 0x834B9, size: 0x8, addend: 0x0, symName: __ZNK5Eigen9EigenBaseINS_6MatrixIdLin1ELin1ELi0ELin1ELin1EEEE4colsEv, symObjAddr: 0x1B3C, symBinAddr: 0x100004D58, symSize: 0x28 }
  - { offsetInCU: 0x834DF, offset: 0x834DF, size: 0x8, addend: 0x0, symName: __ZNK5Eigen8internal9assign_opIddE11assignCoeffERdRKd, symObjAddr: 0x1B64, symBinAddr: 0x100004D80, symSize: 0x28 }
  - { offsetInCU: 0x83521, offset: 0x83521, size: 0x8, addend: 0x0, symName: __ZN5Eigen8internal9evaluatorINS_15PlainObjectBaseINS_6MatrixIdLin1ELin1ELi0ELin1ELin1EEEEEE8coeffRefEl, symObjAddr: 0x1B8C, symBinAddr: 0x100004DA8, symSize: 0x24 }
  - { offsetInCU: 0x8355F, offset: 0x8355F, size: 0x8, addend: 0x0, symName: __ZNK5Eigen8internal9evaluatorINS_14CwiseNullaryOpINS0_16scalar_random_opIdEENS_6MatrixIdLin1ELin1ELi0ELin1ELin1EEEEEE5coeffIlEEdT_, symObjAddr: 0x1BB0, symBinAddr: 0x100004DCC, symSize: 0x38 }
  - { offsetInCU: 0x835A2, offset: 0x835A2, size: 0x8, addend: 0x0, symName: __ZNK5Eigen8internal15nullary_wrapperIdNS0_16scalar_random_opIdEELb1ELb0ELb0EEclIlEEdRKS3_T_S8_, symObjAddr: 0x1BE8, symBinAddr: 0x100004E04, symSize: 0x30 }
  - { offsetInCU: 0x835F6, offset: 0x835F6, size: 0x8, addend: 0x0, symName: __ZNK5Eigen8internal16scalar_random_opIdEclEv, symObjAddr: 0x1C18, symBinAddr: 0x100004E34, symSize: 0x20 }
  - { offsetInCU: 0x8361C, offset: 0x8361C, size: 0x8, addend: 0x0, symName: __ZN5Eigen8internal19random_default_implIdLb0ELb0EE3runEv, symObjAddr: 0x1C4C, symBinAddr: 0x100004E68, symSize: 0x34 }
  - { offsetInCU: 0x83630, offset: 0x83630, size: 0x8, addend: 0x0, symName: __ZN5Eigen8internal19random_default_implIdLb0ELb0EE3runERKdS4_, symObjAddr: 0x1C80, symBinAddr: 0x100004E9C, symSize: 0x68 }
  - { offsetInCU: 0x83663, offset: 0x83663, size: 0x8, addend: 0x0, symName: __ZN5Eigen8internal9evaluatorINS_6MatrixIdLin1ELin1ELi0ELin1ELin1EEEED2Ev, symObjAddr: 0x1CE8, symBinAddr: 0x100004F04, symSize: 0x2C }
  - { offsetInCU: 0x83690, offset: 0x83690, size: 0x8, addend: 0x0, symName: __ZN5Eigen8internal9evaluatorINS_15PlainObjectBaseINS_6MatrixIdLin1ELin1ELi0ELin1ELin1EEEEEED2Ev, symObjAddr: 0x1D14, symBinAddr: 0x100004F30, symSize: 0x2C }
  - { offsetInCU: 0x836BC, offset: 0x836BC, size: 0x8, addend: 0x0, symName: __ZN5Eigen8internal9evaluatorINS_14CwiseNullaryOpINS0_16scalar_random_opIdEENS_6MatrixIdLin1ELin1ELi0ELin1ELin1EEEEEED2Ev, symObjAddr: 0x1D40, symBinAddr: 0x100004F5C, symSize: 0x2C }
  - { offsetInCU: 0x836E8, offset: 0x836E8, size: 0x8, addend: 0x0, symName: __ZN5Eigen8internal9assign_opIddEC2Ev, symObjAddr: 0x1D6C, symBinAddr: 0x100004F88, symSize: 0x14 }
  - { offsetInCU: 0x83712, offset: 0x83712, size: 0x8, addend: 0x0, symName: __ZN5Eigen7InverseINS_6MatrixIdLin1ELin1ELi0ELin1ELin1EEEEC1ERKS2_, symObjAddr: 0x1D80, symBinAddr: 0x100004F9C, symSize: 0x34 }
  - { offsetInCU: 0x8374A, offset: 0x8374A, size: 0x8, addend: 0x0, symName: __ZN5Eigen7InverseINS_6MatrixIdLin1ELin1ELi0ELin1ELin1EEEEC2ERKS2_, symObjAddr: 0x1DB4, symBinAddr: 0x100004FD0, symSize: 0x38 }
  - { offsetInCU: 0x83787, offset: 0x83787, size: 0x8, addend: 0x0, symName: __ZN5Eigen11InverseImplINS_6MatrixIdLin1ELin1ELi0ELin1ELin1EEENS_5DenseEEC2Ev, symObjAddr: 0x1DEC, symBinAddr: 0x100005008, symSize: 0x2C }
  - { offsetInCU: 0x837B3, offset: 0x837B3, size: 0x8, addend: 0x0, symName: __ZN5Eigen10MatrixBaseINS_7InverseINS_6MatrixIdLin1ELin1ELi0ELin1ELin1EEEEEEC2Ev, symObjAddr: 0x1E18, symBinAddr: 0x100005034, symSize: 0x2C }
  - { offsetInCU: 0x837DD, offset: 0x837DD, size: 0x8, addend: 0x0, symName: __ZN5Eigen9DenseBaseINS_7InverseINS_6MatrixIdLin1ELin1ELi0ELin1ELin1EEEEEEC2Ev, symObjAddr: 0x1E44, symBinAddr: 0x100005060, symSize: 0x14 }
  - { offsetInCU: 0x83807, offset: 0x83807, size: 0x8, addend: 0x0, symName: __ZN5Eigen6MatrixIdLin1ELin1ELi0ELin1ELin1EEC2INS_7InverseIS1_EEEERKNS_9EigenBaseIT_EE, symObjAddr: 0x1E58, symBinAddr: 0x100005074, symSize: 0x40 }
  - { offsetInCU: 0x83849, offset: 0x83849, size: 0x8, addend: 0x0, symName: __ZNK5Eigen9EigenBaseINS_7InverseINS_6MatrixIdLin1ELin1ELi0ELin1ELin1EEEEEE7derivedEv, symObjAddr: 0x1E98, symBinAddr: 0x1000050B4, symSize: 0x14 }
  - { offsetInCU: 0x8386F, offset: 0x8386F, size: 0x8, addend: 0x0, symName: __ZN5Eigen15PlainObjectBaseINS_6MatrixIdLin1ELin1ELi0ELin1ELin1EEEEC2INS_7InverseIS2_EEEERKNS_9DenseBaseIT_EE, symObjAddr: 0x1EAC, symBinAddr: 0x1000050C8, symSize: 0x80 }
  - { offsetInCU: 0x838B1, offset: 0x838B1, size: 0x8, addend: 0x0, symName: __ZN5Eigen15PlainObjectBaseINS_6MatrixIdLin1ELin1ELi0ELin1ELin1EEEE10resizeLikeINS_7InverseIS2_EEEEvRKNS_9EigenBaseIT_EE, symObjAddr: 0x1F2C, symBinAddr: 0x100005148, symSize: 0x11C }
  - { offsetInCU: 0x83945, offset: 0x83945, size: 0x8, addend: 0x0, symName: __ZN5Eigen15PlainObjectBaseINS_6MatrixIdLin1ELin1ELi0ELin1ELin1EEEE12_set_noaliasINS_7InverseIS2_EEEERS2_RKNS_9DenseBaseIT_EE, symObjAddr: 0x2048, symBinAddr: 0x100005264, symSize: 0x60 }
  - { offsetInCU: 0x83983, offset: 0x83983, size: 0x8, addend: 0x0, symName: __ZNK5Eigen7InverseINS_6MatrixIdLin1ELin1ELi0ELin1ELin1EEEE4rowsEv, symObjAddr: 0x20A8, symBinAddr: 0x1000052C4, symSize: 0x28 }
  - { offsetInCU: 0x839A9, offset: 0x839A9, size: 0x8, addend: 0x0, symName: __ZNK5Eigen7InverseINS_6MatrixIdLin1ELin1ELi0ELin1ELin1EEEE4colsEv, symObjAddr: 0x20D0, symBinAddr: 0x1000052EC, symSize: 0x28 }
  - { offsetInCU: 0x839D9, offset: 0x839D9, size: 0x8, addend: 0x0, symName: __ZN5Eigen8internal10AssignmentINS_6MatrixIdLin1ELin1ELi0ELin1ELin1EEENS_7InverseIS3_EENS0_9assign_opIddEENS0_11Dense2DenseEvE3runERS3_RKS5_RKS7_, symObjAddr: 0x2134, symBinAddr: 0x100005350, symSize: 0xA8 }
  - { offsetInCU: 0x83A5F, offset: 0x83A5F, size: 0x8, addend: 0x0, symName: __ZNK5Eigen7InverseINS_6MatrixIdLin1ELin1ELi0ELin1ELin1EEEE16nestedExpressionEv, symObjAddr: 0x21DC, symBinAddr: 0x1000053F8, symSize: 0x18 }
  - { offsetInCU: 0x83A85, offset: 0x83A85, size: 0x8, addend: 0x0, symName: __ZN5Eigen8internal15compute_inverseINS_6MatrixIdLin1ELin1ELi0ELin1ELin1EEES3_Lin1EE3runERKS3_RS3_, symObjAddr: 0x21F4, symBinAddr: 0x100005410, symSize: 0xA8 }
  - { offsetInCU: 0x83AB6, offset: 0x83AB6, size: 0x8, addend: 0x0, symName: __ZNK5Eigen10MatrixBaseINS_6MatrixIdLin1ELin1ELi0ELin1ELin1EEEE12partialPivLuEv, symObjAddr: 0x229C, symBinAddr: 0x1000054B8, symSize: 0x38 }
  - { offsetInCU: 0x83ADF, offset: 0x83ADF, size: 0x8, addend: 0x0, symName: __ZNK5Eigen12PartialPivLUINS_6MatrixIdLin1ELin1ELi0ELin1ELin1EEEE7inverseEv, symObjAddr: 0x22D4, symBinAddr: 0x1000054F0, symSize: 0x88 }
  - { offsetInCU: 0x83B05, offset: 0x83B05, size: 0x8, addend: 0x0, symName: __ZN5Eigen6MatrixIdLin1ELin1ELi0ELin1ELin1EEaSINS_7InverseINS_12PartialPivLUIS1_EEEEEERS1_RKNS_9DenseBaseIT_EE, symObjAddr: 0x235C, symBinAddr: 0x100005578, symSize: 0x2C }
  - { offsetInCU: 0x83B42, offset: 0x83B42, size: 0x8, addend: 0x0, symName: __ZN5Eigen7InverseINS_12PartialPivLUINS_6MatrixIdLin1ELin1ELi0ELin1ELin1EEEEEED1Ev, symObjAddr: 0x2388, symBinAddr: 0x1000055A4, symSize: 0x2C }
  - { offsetInCU: 0x83B6E, offset: 0x83B6E, size: 0x8, addend: 0x0, symName: __ZN5Eigen12PartialPivLUINS_6MatrixIdLin1ELin1ELi0ELin1ELin1EEEED1Ev, symObjAddr: 0x23B4, symBinAddr: 0x1000055D0, symSize: 0x2C }
  - { offsetInCU: 0x83B9B, offset: 0x83B9B, size: 0x8, addend: 0x0, symName: __ZNK5Eigen9DenseBaseINS_6MatrixIdLin1ELin1ELi0ELin1ELin1EEEE4evalEv, symObjAddr: 0x23E0, symBinAddr: 0x1000055FC, symSize: 0x24 }
  - { offsetInCU: 0x83BC6, offset: 0x83BC6, size: 0x8, addend: 0x0, symName: __ZN5Eigen12PartialPivLUINS_6MatrixIdLin1ELin1ELi0ELin1ELin1EEEEC1IS2_EERKNS_9EigenBaseIT_EE, symObjAddr: 0x2404, symBinAddr: 0x100005620, symSize: 0x34 }
  - { offsetInCU: 0x83C09, offset: 0x83C09, size: 0x8, addend: 0x0, symName: __ZN5Eigen12PartialPivLUINS_6MatrixIdLin1ELin1ELi0ELin1ELin1EEEEC2IS2_EERKNS_9EigenBaseIT_EE, symObjAddr: 0x2438, symBinAddr: 0x100005654, symSize: 0x154 }
  - { offsetInCU: 0x83C4C, offset: 0x83C4C, size: 0x8, addend: 0x0, symName: __ZN5Eigen10SolverBaseINS_12PartialPivLUINS_6MatrixIdLin1ELin1ELi0ELin1ELin1EEEEEEC2Ev, symObjAddr: 0x258C, symBinAddr: 0x1000057A8, symSize: 0x14 }
  - { offsetInCU: 0x83C7B, offset: 0x83C7B, size: 0x8, addend: 0x0, symName: __ZN5Eigen6MatrixIdLin1ELin1ELi0ELin1ELin1EEC1IllEERKT_RKT0_, symObjAddr: 0x25A0, symBinAddr: 0x1000057BC, symSize: 0x3C }
  - { offsetInCU: 0x83CD5, offset: 0x83CD5, size: 0x8, addend: 0x0, symName: __ZN5Eigen17PermutationMatrixILin1ELin1EiEC1El, symObjAddr: 0x25DC, symBinAddr: 0x1000057F8, symSize: 0x34 }
  - { offsetInCU: 0x83D0E, offset: 0x83D0E, size: 0x8, addend: 0x0, symName: __ZN5Eigen14TranspositionsILin1ELin1EiEC1El, symObjAddr: 0x2610, symBinAddr: 0x10000582C, symSize: 0x34 }
  - { offsetInCU: 0x83D46, offset: 0x83D46, size: 0x8, addend: 0x0, symName: __ZN5Eigen12PartialPivLUINS_6MatrixIdLin1ELin1ELi0ELin1ELin1EEEE7computeIS2_EERS3_RKNS_9EigenBaseIT_EE, symObjAddr: 0x2644, symBinAddr: 0x100005860, symSize: 0x48 }
  - { offsetInCU: 0x83D83, offset: 0x83D83, size: 0x8, addend: 0x0, symName: __ZN5Eigen14TranspositionsILin1ELin1EiED1Ev, symObjAddr: 0x268C, symBinAddr: 0x1000058A8, symSize: 0x2C }
  - { offsetInCU: 0x83DAF, offset: 0x83DAF, size: 0x8, addend: 0x0, symName: __ZN5Eigen17PermutationMatrixILin1ELin1EiED1Ev, symObjAddr: 0x26B8, symBinAddr: 0x1000058D4, symSize: 0x2C }
  - { offsetInCU: 0x83DDC, offset: 0x83DDC, size: 0x8, addend: 0x0, symName: __ZN5Eigen10SolverBaseINS_12PartialPivLUINS_6MatrixIdLin1ELin1ELi0ELin1ELin1EEEEEED2Ev, symObjAddr: 0x26E4, symBinAddr: 0x100005900, symSize: 0x14 }
  - { offsetInCU: 0x83E06, offset: 0x83E06, size: 0x8, addend: 0x0, symName: __ZN5Eigen6MatrixIdLin1ELin1ELi0ELin1ELin1EEC2IllEERKT_RKT0_, symObjAddr: 0x26F8, symBinAddr: 0x100005914, symSize: 0x7C }
  - { offsetInCU: 0x83E60, offset: 0x83E60, size: 0x8, addend: 0x0, symName: __ZN5Eigen15PlainObjectBaseINS_6MatrixIdLin1ELin1ELi0ELin1ELin1EEEEC2Ev, symObjAddr: 0x2774, symBinAddr: 0x100005990, symSize: 0x34 }
  - { offsetInCU: 0x83E8F, offset: 0x83E8F, size: 0x8, addend: 0x0, symName: __ZN5Eigen15PlainObjectBaseINS_6MatrixIdLin1ELin1ELi0ELin1ELin1EEEE6_init2IllEEvllPNS_8internal9enable_ifILb1ET_E4typeE, symObjAddr: 0x27A8, symBinAddr: 0x1000059C4, symSize: 0x44 }
  - { offsetInCU: 0x83F0E, offset: 0x83F0E, size: 0x8, addend: 0x0, symName: __ZN5Eigen17PermutationMatrixILin1ELin1EiEC2El, symObjAddr: 0x27EC, symBinAddr: 0x100005A08, symSize: 0x38 }
  - { offsetInCU: 0x83F47, offset: 0x83F47, size: 0x8, addend: 0x0, symName: __ZN5Eigen6MatrixIiLin1ELi1ELi0ELin1ELi1EEC1IlEERKT_, symObjAddr: 0x2824, symBinAddr: 0x100005A40, symSize: 0x34 }
  - { offsetInCU: 0x83F89, offset: 0x83F89, size: 0x8, addend: 0x0, symName: __ZN5Eigen6MatrixIiLin1ELi1ELi0ELin1ELi1EEC2IlEERKT_, symObjAddr: 0x2858, symBinAddr: 0x100005A74, symSize: 0x74 }
  - { offsetInCU: 0x83FCB, offset: 0x83FCB, size: 0x8, addend: 0x0, symName: __ZN5Eigen15PlainObjectBaseINS_6MatrixIiLin1ELi1ELi0ELin1ELi1EEEEC2Ev, symObjAddr: 0x28CC, symBinAddr: 0x100005AE8, symSize: 0x34 }
  - { offsetInCU: 0x83FF5, offset: 0x83FF5, size: 0x8, addend: 0x0, symName: __ZN5Eigen15PlainObjectBaseINS_6MatrixIiLin1ELi1ELi0ELin1ELi1EEEE22_check_template_paramsEv, symObjAddr: 0x2900, symBinAddr: 0x100005B1C, symSize: 0x4 }
  - { offsetInCU: 0x84009, offset: 0x84009, size: 0x8, addend: 0x0, symName: __ZN5Eigen15PlainObjectBaseINS_6MatrixIiLin1ELi1ELi0ELin1ELi1EEEE6_init1IlEEvlPNS_8internal9enable_ifIXaaooneLNS_9DenseBaseIS2_EUt_En1ELi1Entsr8internal14is_convertibleIT_iEE5valueoontLNS5_7is_sameINS_9MatrixXprENS_8ArrayXprEEUt_E0EeqLS9_n1EL_ZNS_L7DynamicEEESA_E4typeE, symObjAddr: 0x2904, symBinAddr: 0x100005B20, symSize: 0x48 }
  - { offsetInCU: 0x84061, offset: 0x84061, size: 0x8, addend: 0x0, symName: __ZN5Eigen15PlainObjectBaseINS_6MatrixIiLin1ELi1ELi0ELin1ELi1EEEED2Ev, symObjAddr: 0x294C, symBinAddr: 0x100005B68, symSize: 0x2C }
  - { offsetInCU: 0x8408D, offset: 0x8408D, size: 0x8, addend: 0x0, symName: __ZN5Eigen10MatrixBaseINS_6MatrixIiLin1ELi1ELi0ELin1ELi1EEEEC2Ev, symObjAddr: 0x2978, symBinAddr: 0x100005B94, symSize: 0x2C }
  - { offsetInCU: 0x840B7, offset: 0x840B7, size: 0x8, addend: 0x0, symName: __ZN5Eigen12DenseStorageIiLin1ELin1ELi1ELi0EEC1Ev, symObjAddr: 0x29A4, symBinAddr: 0x100005BC0, symSize: 0x2C }
  - { offsetInCU: 0x840E1, offset: 0x840E1, size: 0x8, addend: 0x0, symName: __ZN5Eigen9DenseBaseINS_6MatrixIiLin1ELi1ELi0ELin1ELi1EEEEC2Ev, symObjAddr: 0x29D0, symBinAddr: 0x100005BEC, symSize: 0x14 }
  - { offsetInCU: 0x8410B, offset: 0x8410B, size: 0x8, addend: 0x0, symName: __ZN5Eigen12DenseStorageIiLin1ELin1ELi1ELi0EEC2Ev, symObjAddr: 0x29E4, symBinAddr: 0x100005C00, symSize: 0x1C }
  - { offsetInCU: 0x84135, offset: 0x84135, size: 0x8, addend: 0x0, symName: __ZN5Eigen15PlainObjectBaseINS_6MatrixIiLin1ELi1ELi0ELin1ELi1EEEE6resizeEl, symObjAddr: 0x2A10, symBinAddr: 0x100005C2C, symSize: 0x74 }
  - { offsetInCU: 0x8416A, offset: 0x8416A, size: 0x8, addend: 0x0, symName: __ZN5Eigen12DenseStorageIiLin1ELin1ELi1ELi0EE6resizeElll, symObjAddr: 0x2A84, symBinAddr: 0x100005CA0, symSize: 0xA4 }
  - { offsetInCU: 0x841B9, offset: 0x841B9, size: 0x8, addend: 0x0, symName: __ZN5Eigen12DenseStorageIiLin1ELin1ELi1ELi0EED1Ev, symObjAddr: 0x2BD4, symBinAddr: 0x100005DF0, symSize: 0x2C }
  - { offsetInCU: 0x841E3, offset: 0x841E3, size: 0x8, addend: 0x0, symName: __ZN5Eigen12DenseStorageIiLin1ELin1ELi1ELi0EED2Ev, symObjAddr: 0x2C00, symBinAddr: 0x100005E1C, symSize: 0x44 }
  - { offsetInCU: 0x8420D, offset: 0x8420D, size: 0x8, addend: 0x0, symName: __ZN5Eigen14TranspositionsILin1ELin1EiEC2El, symObjAddr: 0x2C44, symBinAddr: 0x100005E60, symSize: 0x38 }
  - { offsetInCU: 0x84245, offset: 0x84245, size: 0x8, addend: 0x0, symName: __ZN5Eigen6MatrixIdLin1ELin1ELi0ELin1ELin1EEaSERKS1_, symObjAddr: 0x2C7C, symBinAddr: 0x100005E98, symSize: 0x2C }
  - { offsetInCU: 0x84279, offset: 0x84279, size: 0x8, addend: 0x0, symName: __ZN5Eigen12PartialPivLUINS_6MatrixIdLin1ELin1ELi0ELin1ELin1EEEE7computeEv, symObjAddr: 0x2CA8, symBinAddr: 0x100005EC4, symSize: 0x200 }
  - { offsetInCU: 0x842C1, offset: 0x842C1, size: 0x8, addend: 0x0, symName: __ZN5Eigen15PlainObjectBaseINS_6MatrixIdLin1ELin1ELi0ELin1ELin1EEEE4_setIS2_EERS2_RKNS_9DenseBaseIT_EE, symObjAddr: 0x2EA8, symBinAddr: 0x1000060C4, symSize: 0x4C }
  - { offsetInCU: 0x842FF, offset: 0x842FF, size: 0x8, addend: 0x0, symName: __ZN5Eigen8internal10AssignmentINS_6MatrixIdLin1ELin1ELi0ELin1ELin1EEES3_NS0_9assign_opIddEENS0_11Dense2DenseEvE3runERS3_RKS3_RKS5_, symObjAddr: 0x2FB8, symBinAddr: 0x1000061D4, symSize: 0x40 }
  - { offsetInCU: 0x84341, offset: 0x84341, size: 0x8, addend: 0x0, symName: __ZN5Eigen8internal27checkTransposeAliasing_implINS_6MatrixIdLin1ELin1ELi0ELin1ELin1EEES3_Lb0EE3runERKS3_S6_, symObjAddr: 0x3130, symBinAddr: 0x10000634C, symSize: 0x14 }
  - { offsetInCU: 0x8436C, offset: 0x8436C, size: 0x8, addend: 0x0, symName: __ZN5Eigen8internal31generic_dense_assignment_kernelINS0_9evaluatorINS_6MatrixIdLin1ELin1ELi0ELin1ELin1EEEEES5_NS0_9assign_opIddEELi0EEC1ERS5_RKS5_RKS7_RS4_, symObjAddr: 0x323C, symBinAddr: 0x100006458, symSize: 0x4C }
  - { offsetInCU: 0x843D2, offset: 0x843D2, size: 0x8, addend: 0x0, symName: __ZN5Eigen8internal31generic_dense_assignment_kernelINS0_9evaluatorINS_6MatrixIdLin1ELin1ELi0ELin1ELin1EEEEES5_NS0_9assign_opIddEELi0EEC2ERS5_RKS5_RKS7_RS4_, symObjAddr: 0x3330, symBinAddr: 0x10000654C, symSize: 0x44 }
  - { offsetInCU: 0x84438, offset: 0x84438, size: 0x8, addend: 0x0, symName: __ZNK5Eigen8internal31generic_dense_assignment_kernelINS0_9evaluatorINS_6MatrixIdLin1ELin1ELi0ELin1ELin1EEEEES5_NS0_9assign_opIddEELi0EE4sizeEv, symObjAddr: 0x3374, symBinAddr: 0x100006590, symSize: 0x28 }
  - { offsetInCU: 0x8445E, offset: 0x8445E, size: 0x8, addend: 0x0, symName: __ZN5Eigen8internal31unaligned_dense_assignment_loopILb1EE3runINS0_31generic_dense_assignment_kernelINS0_9evaluatorINS_6MatrixIdLin1ELin1ELi0ELin1ELin1EEEEES8_NS0_9assign_opIddEELi0EEEEEvRT_ll, symObjAddr: 0x339C, symBinAddr: 0x1000065B8, symSize: 0x18 }
  - { offsetInCU: 0x8449D, offset: 0x8449D, size: 0x8, addend: 0x0, symName: __ZN5Eigen8internal31generic_dense_assignment_kernelINS0_9evaluatorINS_6MatrixIdLin1ELin1ELi0ELin1ELin1EEEEES5_NS0_9assign_opIddEELi0EE12assignPacketILi16ELi16E19__simd128_float64_tEEvl, symObjAddr: 0x33B4, symBinAddr: 0x1000065D0, symSize: 0x64 }
  - { offsetInCU: 0x844EF, offset: 0x844EF, size: 0x8, addend: 0x0, symName: __ZN5Eigen8internal31unaligned_dense_assignment_loopILb0EE3runINS0_31generic_dense_assignment_kernelINS0_9evaluatorINS_6MatrixIdLin1ELin1ELi0ELin1ELin1EEEEES8_NS0_9assign_opIddEELi0EEEEEvRT_ll, symObjAddr: 0x3418, symBinAddr: 0x100006634, symSize: 0x68 }
  - { offsetInCU: 0x84557, offset: 0x84557, size: 0x8, addend: 0x0, symName: __ZNK5Eigen8internal9assign_opIddE12assignPacketILi16E19__simd128_float64_tEEvPdRKT0_, symObjAddr: 0x3480, symBinAddr: 0x10000669C, symSize: 0x40 }
  - { offsetInCU: 0x845DB, offset: 0x845DB, size: 0x8, addend: 0x0, symName: __ZNK5Eigen8internal9evaluatorINS_15PlainObjectBaseINS_6MatrixIdLin1ELin1ELi0ELin1ELin1EEEEEE6packetILi16E19__simd128_float64_tEET0_l, symObjAddr: 0x34C0, symBinAddr: 0x1000066DC, symSize: 0x3C }
  - { offsetInCU: 0x8463F, offset: 0x8463F, size: 0x8, addend: 0x0, symName: __ZN5Eigen8internal31generic_dense_assignment_kernelINS0_9evaluatorINS_6MatrixIdLin1ELin1ELi0ELin1ELin1EEEEES5_NS0_9assign_opIddEELi0EE11assignCoeffEl, symObjAddr: 0x3550, symBinAddr: 0x10000676C, symSize: 0x60 }
  - { offsetInCU: 0x84674, offset: 0x84674, size: 0x8, addend: 0x0, symName: __ZNK5Eigen8internal9evaluatorINS_15PlainObjectBaseINS_6MatrixIdLin1ELin1ELi0ELin1ELin1EEEEEE5coeffEl, symObjAddr: 0x35B0, symBinAddr: 0x1000067CC, symSize: 0x24 }
  - { offsetInCU: 0x846A8, offset: 0x846A8, size: 0x8, addend: 0x0, symName: __ZN5Eigen12PartialPivLUINS_6MatrixIdLin1ELin1ELi0ELin1ELin1EEEE25check_template_parametersEv, symObjAddr: 0x35D4, symBinAddr: 0x1000067F0, symSize: 0x4 }
  - { offsetInCU: 0x846BC, offset: 0x846BC, size: 0x8, addend: 0x0, symName: __ZN5Eigen16GenericNumTraitsIiE7highestEv, symObjAddr: 0x35D8, symBinAddr: 0x1000067F4, symSize: 0x14 }
  - { offsetInCU: 0x846D0, offset: 0x846D0, size: 0x8, addend: 0x0, symName: __ZNK5Eigen10MatrixBaseINS_6MatrixIdLin1ELin1ELi0ELin1ELin1EEEE8cwiseAbsEv, symObjAddr: 0x35EC, symBinAddr: 0x100006808, symSize: 0x4C }
  - { offsetInCU: 0x846F6, offset: 0x846F6, size: 0x8, addend: 0x0, symName: __ZNK5Eigen9DenseBaseINS_12CwiseUnaryOpINS_8internal13scalar_abs_opIdEEKNS_6MatrixIdLin1ELin1ELi0ELin1ELin1EEEEEE7colwiseEv, symObjAddr: 0x3638, symBinAddr: 0x100006854, symSize: 0x38 }
  - { offsetInCU: 0x8471C, offset: 0x8471C, size: 0x8, addend: 0x0, symName: __ZNK5Eigen12VectorwiseOpIKNS_12CwiseUnaryOpINS_8internal13scalar_abs_opIdEEKNS_6MatrixIdLin1ELin1ELi0ELin1ELin1EEEEELi0EE3sumEv, symObjAddr: 0x3670, symBinAddr: 0x10000688C, symSize: 0x4C }
  - { offsetInCU: 0x84742, offset: 0x84742, size: 0x8, addend: 0x0, symName: __ZNK5Eigen9DenseBaseINS_16PartialReduxExprIKNS_12CwiseUnaryOpINS_8internal13scalar_abs_opIdEEKNS_6MatrixIdLin1ELin1ELi0ELin1ELin1EEEEENS3_10member_sumIddEELi0EEEE8maxCoeffEv, symObjAddr: 0x36BC, symBinAddr: 0x1000068D8, symSize: 0x24 }
  - { offsetInCU: 0x84768, offset: 0x84768, size: 0x8, addend: 0x0, symName: __ZN5Eigen18TranspositionsBaseINS_14TranspositionsILin1ELin1EiEEE6resizeEl, symObjAddr: 0x36E0, symBinAddr: 0x1000068FC, symSize: 0x30 }
  - { offsetInCU: 0x847A1, offset: 0x847A1, size: 0x8, addend: 0x0, symName: __ZN5Eigen17PermutationMatrixILin1ELin1EiEaSINS_14TranspositionsILin1ELin1EiEEEERS1_RKNS_18TranspositionsBaseIT_EE, symObjAddr: 0x38BC, symBinAddr: 0x100006AD8, symSize: 0x3C }
  - { offsetInCU: 0x847DF, offset: 0x847DF, size: 0x8, addend: 0x0, symName: __ZNSt3__114numeric_limitsIiE3maxB8ue170006Ev, symObjAddr: 0x38F8, symBinAddr: 0x100006B14, symSize: 0x14 }
  - { offsetInCU: 0x847F3, offset: 0x847F3, size: 0x8, addend: 0x0, symName: __ZNSt3__123__libcpp_numeric_limitsIiLb1EE3maxB8ue170006Ev, symObjAddr: 0x390C, symBinAddr: 0x100006B28, symSize: 0x8 }
  - { offsetInCU: 0x84807, offset: 0x84807, size: 0x8, addend: 0x0, symName: __ZN5Eigen8internal13scalar_abs_opIdEC1Ev, symObjAddr: 0x3914, symBinAddr: 0x100006B30, symSize: 0x2C }
  - { offsetInCU: 0x84831, offset: 0x84831, size: 0x8, addend: 0x0, symName: __ZN5Eigen12CwiseUnaryOpINS_8internal13scalar_abs_opIdEEKNS_6MatrixIdLin1ELin1ELi0ELin1ELin1EEEEC1ERS6_RKS3_, symObjAddr: 0x3940, symBinAddr: 0x100006B5C, symSize: 0x3C }
  - { offsetInCU: 0x84877, offset: 0x84877, size: 0x8, addend: 0x0, symName: __ZN5Eigen8internal13scalar_abs_opIdEC2Ev, symObjAddr: 0x397C, symBinAddr: 0x100006B98, symSize: 0x14 }
  - { offsetInCU: 0x848A1, offset: 0x848A1, size: 0x8, addend: 0x0, symName: __ZN5Eigen12CwiseUnaryOpINS_8internal13scalar_abs_opIdEEKNS_6MatrixIdLin1ELin1ELi0ELin1ELin1EEEEC2ERS6_RKS3_, symObjAddr: 0x3990, symBinAddr: 0x100006BAC, symSize: 0x4C }
  - { offsetInCU: 0x848EC, offset: 0x848EC, size: 0x8, addend: 0x0, symName: __ZN5Eigen16CwiseUnaryOpImplINS_8internal13scalar_abs_opIdEEKNS_6MatrixIdLin1ELin1ELi0ELin1ELin1EEENS_5DenseEEC2Ev, symObjAddr: 0x39DC, symBinAddr: 0x100006BF8, symSize: 0x2C }
  - { offsetInCU: 0x84918, offset: 0x84918, size: 0x8, addend: 0x0, symName: __ZN5Eigen8internal13scalar_abs_opIdEC1ERKS2_, symObjAddr: 0x3A08, symBinAddr: 0x100006C24, symSize: 0x34 }
  - { offsetInCU: 0x8494D, offset: 0x8494D, size: 0x8, addend: 0x0, symName: __ZN5Eigen10MatrixBaseINS_12CwiseUnaryOpINS_8internal13scalar_abs_opIdEEKNS_6MatrixIdLin1ELin1ELi0ELin1ELin1EEEEEEC2Ev, symObjAddr: 0x3A3C, symBinAddr: 0x100006C58, symSize: 0x2C }
  - { offsetInCU: 0x84977, offset: 0x84977, size: 0x8, addend: 0x0, symName: __ZN5Eigen9DenseBaseINS_12CwiseUnaryOpINS_8internal13scalar_abs_opIdEEKNS_6MatrixIdLin1ELin1ELi0ELin1ELin1EEEEEEC2Ev, symObjAddr: 0x3A68, symBinAddr: 0x100006C84, symSize: 0x14 }
  - { offsetInCU: 0x849A1, offset: 0x849A1, size: 0x8, addend: 0x0, symName: __ZN5Eigen8internal13scalar_abs_opIdEC2ERKS2_, symObjAddr: 0x3A7C, symBinAddr: 0x100006C98, symSize: 0x18 }
  - { offsetInCU: 0x849D6, offset: 0x849D6, size: 0x8, addend: 0x0, symName: __ZNK5Eigen9EigenBaseINS_12CwiseUnaryOpINS_8internal13scalar_abs_opIdEEKNS_6MatrixIdLin1ELin1ELi0ELin1ELin1EEEEEE7derivedEv, symObjAddr: 0x3A94, symBinAddr: 0x100006CB0, symSize: 0x14 }
  - { offsetInCU: 0x849FC, offset: 0x849FC, size: 0x8, addend: 0x0, symName: __ZN5Eigen12VectorwiseOpIKNS_12CwiseUnaryOpINS_8internal13scalar_abs_opIdEEKNS_6MatrixIdLin1ELin1ELi0ELin1ELin1EEEEELi0EEC1ERS9_, symObjAddr: 0x3AA8, symBinAddr: 0x100006CC4, symSize: 0x34 }
  - { offsetInCU: 0x84A35, offset: 0x84A35, size: 0x8, addend: 0x0, symName: __ZN5Eigen12VectorwiseOpIKNS_12CwiseUnaryOpINS_8internal13scalar_abs_opIdEEKNS_6MatrixIdLin1ELin1ELi0ELin1ELin1EEEEELi0EEC2ERS9_, symObjAddr: 0x3ADC, symBinAddr: 0x100006CF8, symSize: 0x34 }
  - { offsetInCU: 0x84A6E, offset: 0x84A6E, size: 0x8, addend: 0x0, symName: __ZN5Eigen12CwiseUnaryOpINS_8internal13scalar_abs_opIdEEKNS_6MatrixIdLin1ELin1ELi0ELin1ELin1EEEEC1ERKS7_, symObjAddr: 0x3B10, symBinAddr: 0x100006D2C, symSize: 0x34 }
  - { offsetInCU: 0x84AA3, offset: 0x84AA3, size: 0x8, addend: 0x0, symName: __ZN5Eigen12CwiseUnaryOpINS_8internal13scalar_abs_opIdEEKNS_6MatrixIdLin1ELin1ELi0ELin1ELin1EEEEC2ERKS7_, symObjAddr: 0x3B44, symBinAddr: 0x100006D60, symSize: 0x48 }
  - { offsetInCU: 0x84AD8, offset: 0x84AD8, size: 0x8, addend: 0x0, symName: __ZNK5Eigen12VectorwiseOpIKNS_12CwiseUnaryOpINS_8internal13scalar_abs_opIdEEKNS_6MatrixIdLin1ELin1ELi0ELin1ELin1EEEEELi0EE11_expressionEv, symObjAddr: 0x3B8C, symBinAddr: 0x100006DA8, symSize: 0x14 }
  - { offsetInCU: 0x84AFE, offset: 0x84AFE, size: 0x8, addend: 0x0, symName: __ZN5Eigen8internal10member_sumIddEC1Ev, symObjAddr: 0x3BA0, symBinAddr: 0x100006DBC, symSize: 0x2C }
  - { offsetInCU: 0x84B28, offset: 0x84B28, size: 0x8, addend: 0x0, symName: __ZN5Eigen16PartialReduxExprIKNS_12CwiseUnaryOpINS_8internal13scalar_abs_opIdEEKNS_6MatrixIdLin1ELin1ELi0ELin1ELin1EEEEENS2_10member_sumIddEELi0EEC1ERS9_RKSB_, symObjAddr: 0x3BCC, symBinAddr: 0x100006DE8, symSize: 0x3C }
  - { offsetInCU: 0x84B6E, offset: 0x84B6E, size: 0x8, addend: 0x0, symName: __ZN5Eigen8internal10member_sumIddEC2Ev, symObjAddr: 0x3C08, symBinAddr: 0x100006E24, symSize: 0x14 }
  - { offsetInCU: 0x84B98, offset: 0x84B98, size: 0x8, addend: 0x0, symName: __ZN5Eigen16PartialReduxExprIKNS_12CwiseUnaryOpINS_8internal13scalar_abs_opIdEEKNS_6MatrixIdLin1ELin1ELi0ELin1ELin1EEEEENS2_10member_sumIddEELi0EEC2ERS9_RKSB_, symObjAddr: 0x3C1C, symBinAddr: 0x100006E38, symSize: 0x54 }
  - { offsetInCU: 0x84BDE, offset: 0x84BDE, size: 0x8, addend: 0x0, symName: __ZN5Eigen10MatrixBaseINS_16PartialReduxExprIKNS_12CwiseUnaryOpINS_8internal13scalar_abs_opIdEEKNS_6MatrixIdLin1ELin1ELi0ELin1ELin1EEEEENS3_10member_sumIddEELi0EEEEC2Ev, symObjAddr: 0x3C70, symBinAddr: 0x100006E8C, symSize: 0x2C }
  - { offsetInCU: 0x84C08, offset: 0x84C08, size: 0x8, addend: 0x0, symName: __ZN5Eigen8internal10member_sumIddEC1ERKS2_, symObjAddr: 0x3C9C, symBinAddr: 0x100006EB8, symSize: 0x34 }
  - { offsetInCU: 0x84C3D, offset: 0x84C3D, size: 0x8, addend: 0x0, symName: __ZN5Eigen9DenseBaseINS_16PartialReduxExprIKNS_12CwiseUnaryOpINS_8internal13scalar_abs_opIdEEKNS_6MatrixIdLin1ELin1ELi0ELin1ELin1EEEEENS3_10member_sumIddEELi0EEEEC2Ev, symObjAddr: 0x3CD0, symBinAddr: 0x100006EEC, symSize: 0x14 }
  - { offsetInCU: 0x84C67, offset: 0x84C67, size: 0x8, addend: 0x0, symName: __ZN5Eigen8internal10member_sumIddEC2ERKS2_, symObjAddr: 0x3CE4, symBinAddr: 0x100006F00, symSize: 0x18 }
  - { offsetInCU: 0x84C9C, offset: 0x84C9C, size: 0x8, addend: 0x0, symName: __ZNK5Eigen9DenseBaseINS_16PartialReduxExprIKNS_12CwiseUnaryOpINS_8internal13scalar_abs_opIdEEKNS_6MatrixIdLin1ELin1ELi0ELin1ELin1EEEEENS3_10member_sumIddEELi0EEEE8maxCoeffILi0EEEdv, symObjAddr: 0x3CFC, symBinAddr: 0x100006F18, symSize: 0x40 }
  - { offsetInCU: 0x84CCF, offset: 0x84CCF, size: 0x8, addend: 0x0, symName: __ZNK5Eigen9EigenBaseINS_16PartialReduxExprIKNS_12CwiseUnaryOpINS_8internal13scalar_abs_opIdEEKNS_6MatrixIdLin1ELin1ELi0ELin1ELin1EEEEENS3_10member_sumIddEELi0EEEE7derivedEv, symObjAddr: 0x3D3C, symBinAddr: 0x100006F58, symSize: 0x14 }
  - { offsetInCU: 0x84D09, offset: 0x84D09, size: 0x8, addend: 0x0, symName: __ZNK5Eigen9DenseBaseINS_16PartialReduxExprIKNS_12CwiseUnaryOpINS_8internal13scalar_abs_opIdEEKNS_6MatrixIdLin1ELin1ELi0ELin1ELin1EEEEENS3_10member_sumIddEELi0EEEE5reduxINS3_13scalar_max_opIddLi0EEEEEdRKT_, symObjAddr: 0x3D50, symBinAddr: 0x100006F6C, symSize: 0x10C }
  - { offsetInCU: 0x84D65, offset: 0x84D65, size: 0x8, addend: 0x0, symName: __ZN5Eigen8internal13scalar_max_opIddLi0EEC1Ev, symObjAddr: 0x3E5C, symBinAddr: 0x100007078, symSize: 0x2C }
  - { offsetInCU: 0x84D8F, offset: 0x84D8F, size: 0x8, addend: 0x0, symName: __ZNK5Eigen9EigenBaseINS_16PartialReduxExprIKNS_12CwiseUnaryOpINS_8internal13scalar_abs_opIdEEKNS_6MatrixIdLin1ELin1ELi0ELin1ELin1EEEEENS3_10member_sumIddEELi0EEEE4rowsEv, symObjAddr: 0x3E88, symBinAddr: 0x1000070A4, symSize: 0x28 }
  - { offsetInCU: 0x84DB5, offset: 0x84DB5, size: 0x8, addend: 0x0, symName: __ZNK5Eigen9EigenBaseINS_16PartialReduxExprIKNS_12CwiseUnaryOpINS_8internal13scalar_abs_opIdEEKNS_6MatrixIdLin1ELin1ELi0ELin1ELin1EEEEENS3_10member_sumIddEELi0EEEE4colsEv, symObjAddr: 0x3EB0, symBinAddr: 0x1000070CC, symSize: 0x28 }
  - { offsetInCU: 0x84E1C, offset: 0x84E1C, size: 0x8, addend: 0x0, symName: __ZN5Eigen8internal15redux_evaluatorINS_16PartialReduxExprIKNS_12CwiseUnaryOpINS0_13scalar_abs_opIdEEKNS_6MatrixIdLin1ELin1ELi0ELin1ELin1EEEEENS0_10member_sumIddEELi0EEEEC1ERKSD_, symObjAddr: 0x3ED8, symBinAddr: 0x1000070F4, symSize: 0x34 }
  - { offsetInCU: 0x84E5A, offset: 0x84E5A, size: 0x8, addend: 0x0, symName: __ZN5Eigen8internal10redux_implINS0_13scalar_max_opIddLi0EEENS0_15redux_evaluatorINS_16PartialReduxExprIKNS_12CwiseUnaryOpINS0_13scalar_abs_opIdEEKNS_6MatrixIdLin1ELin1ELi0ELin1ELin1EEEEENS0_10member_sumIddEELi0EEEEELi0ELi0EE3runISG_EEdRKSH_RKS3_RKT_, symObjAddr: 0x3F0C, symBinAddr: 0x100007128, symSize: 0x1E0 }
  - { offsetInCU: 0x84F05, offset: 0x84F05, size: 0x8, addend: 0x0, symName: __ZN5Eigen8internal15redux_evaluatorINS_16PartialReduxExprIKNS_12CwiseUnaryOpINS0_13scalar_abs_opIdEEKNS_6MatrixIdLin1ELin1ELi0ELin1ELin1EEEEENS0_10member_sumIddEELi0EEEED1Ev, symObjAddr: 0x40EC, symBinAddr: 0x100007308, symSize: 0x2C }
  - { offsetInCU: 0x84F32, offset: 0x84F32, size: 0x8, addend: 0x0, symName: __ZNK5Eigen16PartialReduxExprIKNS_12CwiseUnaryOpINS_8internal13scalar_abs_opIdEEKNS_6MatrixIdLin1ELin1ELi0ELin1ELin1EEEEENS2_10member_sumIddEELi0EE4rowsEv, symObjAddr: 0x4118, symBinAddr: 0x100007334, symSize: 0x14 }
  - { offsetInCU: 0x84F58, offset: 0x84F58, size: 0x8, addend: 0x0, symName: __ZNK5Eigen16PartialReduxExprIKNS_12CwiseUnaryOpINS_8internal13scalar_abs_opIdEEKNS_6MatrixIdLin1ELin1ELi0ELin1ELin1EEEEENS2_10member_sumIddEELi0EE4colsEv, symObjAddr: 0x412C, symBinAddr: 0x100007348, symSize: 0x28 }
  - { offsetInCU: 0x84F7E, offset: 0x84F7E, size: 0x8, addend: 0x0, symName: __ZNK5Eigen12CwiseUnaryOpINS_8internal13scalar_abs_opIdEEKNS_6MatrixIdLin1ELin1ELi0ELin1ELin1EEEE4colsEv, symObjAddr: 0x4154, symBinAddr: 0x100007370, symSize: 0x28 }
  - { offsetInCU: 0x84FA4, offset: 0x84FA4, size: 0x8, addend: 0x0, symName: __ZN5Eigen8internal15redux_evaluatorINS_16PartialReduxExprIKNS_12CwiseUnaryOpINS0_13scalar_abs_opIdEEKNS_6MatrixIdLin1ELin1ELi0ELin1ELin1EEEEENS0_10member_sumIddEELi0EEEEC2ERKSD_, symObjAddr: 0x417C, symBinAddr: 0x100007398, symSize: 0x7C }
  - { offsetInCU: 0x84FDD, offset: 0x84FDD, size: 0x8, addend: 0x0, symName: __ZN5Eigen16PartialReduxExprIKNS_12CwiseUnaryOpINS_8internal13scalar_abs_opIdEEKNS_6MatrixIdLin1ELin1ELi0ELin1ELin1EEEEENS2_10member_sumIddEELi0EEC1ERKSC_, symObjAddr: 0x41F8, symBinAddr: 0x100007414, symSize: 0x34 }
  - { offsetInCU: 0x85012, offset: 0x85012, size: 0x8, addend: 0x0, symName: __ZN5Eigen8internal9evaluatorINS_16PartialReduxExprIKNS_12CwiseUnaryOpINS0_13scalar_abs_opIdEEKNS_6MatrixIdLin1ELin1ELi0ELin1ELin1EEEEENS0_10member_sumIddEELi0EEEEC2ESD_, symObjAddr: 0x422C, symBinAddr: 0x100007448, symSize: 0x94 }
  - { offsetInCU: 0x8504B, offset: 0x8504B, size: 0x8, addend: 0x0, symName: __ZN5Eigen16PartialReduxExprIKNS_12CwiseUnaryOpINS_8internal13scalar_abs_opIdEEKNS_6MatrixIdLin1ELin1ELi0ELin1ELin1EEEEENS2_10member_sumIddEELi0EEC2ERKSC_, symObjAddr: 0x42C0, symBinAddr: 0x1000074DC, symSize: 0x50 }
  - { offsetInCU: 0x85080, offset: 0x85080, size: 0x8, addend: 0x0, symName: __ZN5Eigen8internal14evaluator_baseINS_16PartialReduxExprIKNS_12CwiseUnaryOpINS0_13scalar_abs_opIdEEKNS_6MatrixIdLin1ELin1ELi0ELin1ELin1EEEEENS0_10member_sumIddEELi0EEEEC2Ev, symObjAddr: 0x4310, symBinAddr: 0x10000752C, symSize: 0x14 }
  - { offsetInCU: 0x850AA, offset: 0x850AA, size: 0x8, addend: 0x0, symName: __ZNK5Eigen16PartialReduxExprIKNS_12CwiseUnaryOpINS_8internal13scalar_abs_opIdEEKNS_6MatrixIdLin1ELin1ELi0ELin1ELin1EEEEENS2_10member_sumIddEELi0EE16nestedExpressionEv, symObjAddr: 0x4324, symBinAddr: 0x100007540, symSize: 0x3C }
  - { offsetInCU: 0x850D0, offset: 0x850D0, size: 0x8, addend: 0x0, symName: __ZNK5Eigen16PartialReduxExprIKNS_12CwiseUnaryOpINS_8internal13scalar_abs_opIdEEKNS_6MatrixIdLin1ELin1ELi0ELin1ELin1EEEEENS2_10member_sumIddEELi0EE7functorEv, symObjAddr: 0x4360, symBinAddr: 0x10000757C, symSize: 0x18 }
  - { offsetInCU: 0x850F6, offset: 0x850F6, size: 0x8, addend: 0x0, symName: __ZN5Eigen8internal14evaluator_baseINS_16PartialReduxExprIKNS_12CwiseUnaryOpINS0_13scalar_abs_opIdEEKNS_6MatrixIdLin1ELin1ELi0ELin1ELin1EEEEENS0_10member_sumIddEELi0EEEED2Ev, symObjAddr: 0x4378, symBinAddr: 0x100007594, symSize: 0x14 }
  - { offsetInCU: 0x85120, offset: 0x85120, size: 0x8, addend: 0x0, symName: __ZNK5Eigen8internal15redux_evaluatorINS_16PartialReduxExprIKNS_12CwiseUnaryOpINS0_13scalar_abs_opIdEEKNS_6MatrixIdLin1ELin1ELi0ELin1ELin1EEEEENS0_10member_sumIddEELi0EEEE17coeffByOuterInnerEll, symObjAddr: 0x438C, symBinAddr: 0x1000075A8, symSize: 0x34 }
  - { offsetInCU: 0x85164, offset: 0x85164, size: 0x8, addend: 0x0, symName: __ZNK5Eigen9DenseBaseINS_16PartialReduxExprIKNS_12CwiseUnaryOpINS_8internal13scalar_abs_opIdEEKNS_6MatrixIdLin1ELin1ELi0ELin1ELin1EEEEENS3_10member_sumIddEELi0EEEE9innerSizeEv, symObjAddr: 0x43C0, symBinAddr: 0x1000075DC, symSize: 0x24 }
  - { offsetInCU: 0x8518A, offset: 0x8518A, size: 0x8, addend: 0x0, symName: __ZNK5Eigen8internal13scalar_max_opIddLi0EEclERKdS4_, symObjAddr: 0x43E4, symBinAddr: 0x100007600, symSize: 0x30 }
  - { offsetInCU: 0x851CC, offset: 0x851CC, size: 0x8, addend: 0x0, symName: __ZNK5Eigen9DenseBaseINS_16PartialReduxExprIKNS_12CwiseUnaryOpINS_8internal13scalar_abs_opIdEEKNS_6MatrixIdLin1ELin1ELi0ELin1ELin1EEEEENS3_10member_sumIddEELi0EEEE9outerSizeEv, symObjAddr: 0x4414, symBinAddr: 0x100007630, symSize: 0x14 }
  - { offsetInCU: 0x851F2, offset: 0x851F2, size: 0x8, addend: 0x0, symName: __ZNK5Eigen8internal9evaluatorINS_16PartialReduxExprIKNS_12CwiseUnaryOpINS0_13scalar_abs_opIdEEKNS_6MatrixIdLin1ELin1ELi0ELin1ELin1EEEEENS0_10member_sumIddEELi0EEEE5coeffEll, symObjAddr: 0x4428, symBinAddr: 0x100007644, symSize: 0x30 }
  - { offsetInCU: 0x85234, offset: 0x85234, size: 0x8, addend: 0x0, symName: __ZNK5Eigen8internal9evaluatorINS_16PartialReduxExprIKNS_12CwiseUnaryOpINS0_13scalar_abs_opIdEEKNS_6MatrixIdLin1ELin1ELi0ELin1ELin1EEEEENS0_10member_sumIddEELi0EEEE5coeffEl, symObjAddr: 0x4458, symBinAddr: 0x100007674, symSize: 0x48 }
  - { offsetInCU: 0x85268, offset: 0x85268, size: 0x8, addend: 0x0, symName: __ZNK5Eigen8internal10member_sumIddEclINS_5BlockIKNS_12CwiseUnaryOpINS0_13scalar_abs_opIdEEKNS_6MatrixIdLin1ELin1ELi0ELin1ELin1EEEEELin1ELi1ELb1EEEEEdRKT_, symObjAddr: 0x44A0, symBinAddr: 0x1000076BC, symSize: 0x28 }
  - { offsetInCU: 0x852A5, offset: 0x852A5, size: 0x8, addend: 0x0, symName: __ZNK5Eigen9DenseBaseINS_12CwiseUnaryOpINS_8internal13scalar_abs_opIdEEKNS_6MatrixIdLin1ELin1ELi0ELin1ELin1EEEEEE9subVectorILNS_13DirectionTypeE0EEENS2_11conditionalIXeqT_LSB_0EEKNS_5BlockIKS8_Lin1ELi1ELb1EEEKNSD_ISE_Li1ELin1ELb0EEEE4typeEl, symObjAddr: 0x44C8, symBinAddr: 0x1000076E4, symSize: 0x40 }
  - { offsetInCU: 0x852E4, offset: 0x852E4, size: 0x8, addend: 0x0, symName: __ZNK5Eigen9DenseBaseINS_5BlockIKNS_12CwiseUnaryOpINS_8internal13scalar_abs_opIdEEKNS_6MatrixIdLin1ELin1ELi0ELin1ELin1EEEEELin1ELi1ELb1EEEE3sumEv, symObjAddr: 0x4508, symBinAddr: 0x100007724, symSize: 0x74 }
  - { offsetInCU: 0x8530D, offset: 0x8530D, size: 0x8, addend: 0x0, symName: __ZNK5Eigen9EigenBaseINS_5BlockIKNS_12CwiseUnaryOpINS_8internal13scalar_abs_opIdEEKNS_6MatrixIdLin1ELin1ELi0ELin1ELin1EEEEELin1ELi1ELb1EEEE4sizeEv, symObjAddr: 0x457C, symBinAddr: 0x100007798, symSize: 0x44 }
  - { offsetInCU: 0x85333, offset: 0x85333, size: 0x8, addend: 0x0, symName: __ZNK5Eigen9EigenBaseINS_5BlockIKNS_12CwiseUnaryOpINS_8internal13scalar_abs_opIdEEKNS_6MatrixIdLin1ELin1ELi0ELin1ELin1EEEEELin1ELi1ELb1EEEE7derivedEv, symObjAddr: 0x45C0, symBinAddr: 0x1000077DC, symSize: 0x14 }
  - { offsetInCU: 0x85359, offset: 0x85359, size: 0x8, addend: 0x0, symName: __ZNK5Eigen9DenseBaseINS_5BlockIKNS_12CwiseUnaryOpINS_8internal13scalar_abs_opIdEEKNS_6MatrixIdLin1ELin1ELi0ELin1ELin1EEEEELin1ELi1ELb1EEEE5reduxINS3_13scalar_sum_opIddEEEEdRKT_, symObjAddr: 0x45D4, symBinAddr: 0x1000077F0, symSize: 0x10C }
  - { offsetInCU: 0x853B5, offset: 0x853B5, size: 0x8, addend: 0x0, symName: __ZN5Eigen8internal13scalar_sum_opIddEC1Ev, symObjAddr: 0x46E0, symBinAddr: 0x1000078FC, symSize: 0x2C }
  - { offsetInCU: 0x853DF, offset: 0x853DF, size: 0x8, addend: 0x0, symName: __ZNK5Eigen9EigenBaseINS_5BlockIKNS_12CwiseUnaryOpINS_8internal13scalar_abs_opIdEEKNS_6MatrixIdLin1ELin1ELi0ELin1ELin1EEEEELin1ELi1ELb1EEEE4rowsEv, symObjAddr: 0x470C, symBinAddr: 0x100007928, symSize: 0x44 }
  - { offsetInCU: 0x85405, offset: 0x85405, size: 0x8, addend: 0x0, symName: __ZNK5Eigen9EigenBaseINS_5BlockIKNS_12CwiseUnaryOpINS_8internal13scalar_abs_opIdEEKNS_6MatrixIdLin1ELin1ELi0ELin1ELin1EEEEELin1ELi1ELb1EEEE4colsEv, symObjAddr: 0x4750, symBinAddr: 0x10000796C, symSize: 0x44 }
  - { offsetInCU: 0x8542B, offset: 0x8542B, size: 0x8, addend: 0x0, symName: __ZNK5Eigen8internal15BlockImpl_denseIKNS_12CwiseUnaryOpINS0_13scalar_abs_opIdEEKNS_6MatrixIdLin1ELin1ELi0ELin1ELin1EEEEELin1ELi1ELb1ELb0EE4rowsEv, symObjAddr: 0x4794, symBinAddr: 0x1000079B0, symSize: 0x28 }
  - { offsetInCU: 0x85451, offset: 0x85451, size: 0x8, addend: 0x0, symName: __ZNK5Eigen8internal15BlockImpl_denseIKNS_12CwiseUnaryOpINS0_13scalar_abs_opIdEEKNS_6MatrixIdLin1ELin1ELi0ELin1ELin1EEEEELin1ELi1ELb1ELb0EE4colsEv, symObjAddr: 0x47BC, symBinAddr: 0x1000079D8, symSize: 0x20 }
  - { offsetInCU: 0x85477, offset: 0x85477, size: 0x8, addend: 0x0, symName: __ZN5Eigen8internal19variable_if_dynamicIlLi1EE5valueEv, symObjAddr: 0x47DC, symBinAddr: 0x1000079F8, symSize: 0x8 }
  - { offsetInCU: 0x85535, offset: 0x85535, size: 0x8, addend: 0x0, symName: __ZN5Eigen8internal15redux_evaluatorINS_5BlockIKNS_12CwiseUnaryOpINS0_13scalar_abs_opIdEEKNS_6MatrixIdLin1ELin1ELi0ELin1ELin1EEEEELin1ELi1ELb1EEEEC1ERKSB_, symObjAddr: 0x47E4, symBinAddr: 0x100007A00, symSize: 0x34 }
  - { offsetInCU: 0x85573, offset: 0x85573, size: 0x8, addend: 0x0, symName: __ZN5Eigen8internal10redux_implINS0_13scalar_sum_opIddEENS0_15redux_evaluatorINS_5BlockIKNS_12CwiseUnaryOpINS0_13scalar_abs_opIdEEKNS_6MatrixIdLin1ELin1ELi0ELin1ELin1EEEEELin1ELi1ELb1EEEEELi3ELi0EE3runISE_EEdRKSF_RKS3_RKT_, symObjAddr: 0x4818, symBinAddr: 0x100007A34, symSize: 0x348 }
  - { offsetInCU: 0x856F0, offset: 0x856F0, size: 0x8, addend: 0x0, symName: __ZN5Eigen8internal15redux_evaluatorINS_5BlockIKNS_12CwiseUnaryOpINS0_13scalar_abs_opIdEEKNS_6MatrixIdLin1ELin1ELi0ELin1ELin1EEEEELin1ELi1ELb1EEEED1Ev, symObjAddr: 0x4B60, symBinAddr: 0x100007D7C, symSize: 0x2C }
  - { offsetInCU: 0x8571D, offset: 0x8571D, size: 0x8, addend: 0x0, symName: __ZN5Eigen8internal15redux_evaluatorINS_5BlockIKNS_12CwiseUnaryOpINS0_13scalar_abs_opIdEEKNS_6MatrixIdLin1ELin1ELi0ELin1ELin1EEEEELin1ELi1ELb1EEEEC2ERKSB_, symObjAddr: 0x4B8C, symBinAddr: 0x100007DA8, symSize: 0x34 }
  - { offsetInCU: 0x85756, offset: 0x85756, size: 0x8, addend: 0x0, symName: __ZN5Eigen8internal9evaluatorINS_5BlockIKNS_12CwiseUnaryOpINS0_13scalar_abs_opIdEEKNS_6MatrixIdLin1ELin1ELi0ELin1ELin1EEEEELin1ELi1ELb1EEEEC2ERKSB_, symObjAddr: 0x4BC0, symBinAddr: 0x100007DDC, symSize: 0x34 }
  - { offsetInCU: 0x8578F, offset: 0x8578F, size: 0x8, addend: 0x0, symName: __ZN5Eigen8internal15block_evaluatorIKNS_12CwiseUnaryOpINS0_13scalar_abs_opIdEEKNS_6MatrixIdLin1ELin1ELi0ELin1ELin1EEEEELin1ELi1ELb1ELb0EEC2ERKNS_5BlockIS9_Lin1ELi1ELb1EEE, symObjAddr: 0x4BF4, symBinAddr: 0x100007E10, symSize: 0x34 }
  - { offsetInCU: 0x857C8, offset: 0x857C8, size: 0x8, addend: 0x0, symName: __ZN5Eigen8internal15unary_evaluatorINS_5BlockIKNS_12CwiseUnaryOpINS0_13scalar_abs_opIdEEKNS_6MatrixIdLin1ELin1ELi0ELin1ELin1EEEEELin1ELi1ELb1EEENS0_10IndexBasedEdEC2ERKSB_, symObjAddr: 0x4C28, symBinAddr: 0x100007E44, symSize: 0x128 }
  - { offsetInCU: 0x85801, offset: 0x85801, size: 0x8, addend: 0x0, symName: __ZN5Eigen8internal14evaluator_baseINS_5BlockIKNS_12CwiseUnaryOpINS0_13scalar_abs_opIdEEKNS_6MatrixIdLin1ELin1ELi0ELin1ELin1EEEEELin1ELi1ELb1EEEEC2Ev, symObjAddr: 0x4D50, symBinAddr: 0x100007F6C, symSize: 0x14 }
  - { offsetInCU: 0x8582B, offset: 0x8582B, size: 0x8, addend: 0x0, symName: __ZNK5Eigen8internal15BlockImpl_denseIKNS_12CwiseUnaryOpINS0_13scalar_abs_opIdEEKNS_6MatrixIdLin1ELin1ELi0ELin1ELin1EEEEELin1ELi1ELb1ELb0EE16nestedExpressionEv, symObjAddr: 0x4D64, symBinAddr: 0x100007F80, symSize: 0x14 }
  - { offsetInCU: 0x85851, offset: 0x85851, size: 0x8, addend: 0x0, symName: __ZN5Eigen8internal9evaluatorIKNS_12CwiseUnaryOpINS0_13scalar_abs_opIdEEKNS_6MatrixIdLin1ELin1ELi0ELin1ELin1EEEEEEC1ERS9_, symObjAddr: 0x4D78, symBinAddr: 0x100007F94, symSize: 0x34 }
  - { offsetInCU: 0x85889, offset: 0x85889, size: 0x8, addend: 0x0, symName: __ZNK5Eigen8internal15BlockImpl_denseIKNS_12CwiseUnaryOpINS0_13scalar_abs_opIdEEKNS_6MatrixIdLin1ELin1ELi0ELin1ELin1EEEEELin1ELi1ELb1ELb0EE8startRowEv, symObjAddr: 0x4DAC, symBinAddr: 0x100007FC8, symSize: 0x28 }
  - { offsetInCU: 0x858AF, offset: 0x858AF, size: 0x8, addend: 0x0, symName: __ZNK5Eigen8internal15BlockImpl_denseIKNS_12CwiseUnaryOpINS0_13scalar_abs_opIdEEKNS_6MatrixIdLin1ELin1ELi0ELin1ELin1EEEEELin1ELi1ELb1ELb0EE8startColEv, symObjAddr: 0x4DD4, symBinAddr: 0x100007FF0, symSize: 0x28 }
  - { offsetInCU: 0x858D5, offset: 0x858D5, size: 0x8, addend: 0x0, symName: __ZNK5Eigen12CwiseUnaryOpINS_8internal13scalar_abs_opIdEEKNS_6MatrixIdLin1ELin1ELi0ELin1ELin1EEEE4rowsEv, symObjAddr: 0x4DFC, symBinAddr: 0x100008018, symSize: 0x28 }
  - { offsetInCU: 0x858FB, offset: 0x858FB, size: 0x8, addend: 0x0, symName: __ZN5Eigen8internal9evaluatorIKNS_12CwiseUnaryOpINS0_13scalar_abs_opIdEEKNS_6MatrixIdLin1ELin1ELi0ELin1ELin1EEEEEED1Ev, symObjAddr: 0x4E24, symBinAddr: 0x100008040, symSize: 0x2C }
  - { offsetInCU: 0x85927, offset: 0x85927, size: 0x8, addend: 0x0, symName: __ZN5Eigen8internal14evaluator_baseINS_5BlockIKNS_12CwiseUnaryOpINS0_13scalar_abs_opIdEEKNS_6MatrixIdLin1ELin1ELi0ELin1ELin1EEEEELin1ELi1ELb1EEEED2Ev, symObjAddr: 0x4E50, symBinAddr: 0x10000806C, symSize: 0x14 }
  - { offsetInCU: 0x85951, offset: 0x85951, size: 0x8, addend: 0x0, symName: __ZN5Eigen8internal9evaluatorIKNS_12CwiseUnaryOpINS0_13scalar_abs_opIdEEKNS_6MatrixIdLin1ELin1ELi0ELin1ELin1EEEEEEC2ERS9_, symObjAddr: 0x4E64, symBinAddr: 0x100008080, symSize: 0x34 }
  - { offsetInCU: 0x85989, offset: 0x85989, size: 0x8, addend: 0x0, symName: __ZN5Eigen8internal9evaluatorINS_12CwiseUnaryOpINS0_13scalar_abs_opIdEEKNS_6MatrixIdLin1ELin1ELi0ELin1ELin1EEEEEEC2ERKS8_, symObjAddr: 0x4E98, symBinAddr: 0x1000080B4, symSize: 0x34 }
  - { offsetInCU: 0x859C1, offset: 0x859C1, size: 0x8, addend: 0x0, symName: __ZN5Eigen8internal15unary_evaluatorINS_12CwiseUnaryOpINS0_13scalar_abs_opIdEEKNS_6MatrixIdLin1ELin1ELi0ELin1ELin1EEEEENS0_10IndexBasedEdEC2ERKS8_, symObjAddr: 0x4ECC, symBinAddr: 0x1000080E8, symSize: 0x64 }
  - { offsetInCU: 0x859FA, offset: 0x859FA, size: 0x8, addend: 0x0, symName: __ZN5Eigen8internal14evaluator_baseINS_12CwiseUnaryOpINS0_13scalar_abs_opIdEEKNS_6MatrixIdLin1ELin1ELi0ELin1ELin1EEEEEEC2Ev, symObjAddr: 0x4F30, symBinAddr: 0x10000814C, symSize: 0x14 }
  - { offsetInCU: 0x85A24, offset: 0x85A24, size: 0x8, addend: 0x0, symName: __ZN5Eigen8internal15unary_evaluatorINS_12CwiseUnaryOpINS0_13scalar_abs_opIdEEKNS_6MatrixIdLin1ELin1ELi0ELin1ELin1EEEEENS0_10IndexBasedEdE4DataC1ERKS8_, symObjAddr: 0x4F44, symBinAddr: 0x100008160, symSize: 0x34 }
  - { offsetInCU: 0x85A5D, offset: 0x85A5D, size: 0x8, addend: 0x0, symName: __ZN5Eigen8internal14evaluator_baseINS_12CwiseUnaryOpINS0_13scalar_abs_opIdEEKNS_6MatrixIdLin1ELin1ELi0ELin1ELin1EEEEEED2Ev, symObjAddr: 0x4F78, symBinAddr: 0x100008194, symSize: 0x14 }
  - { offsetInCU: 0x85A87, offset: 0x85A87, size: 0x8, addend: 0x0, symName: __ZN5Eigen8internal15unary_evaluatorINS_12CwiseUnaryOpINS0_13scalar_abs_opIdEEKNS_6MatrixIdLin1ELin1ELi0ELin1ELin1EEEEENS0_10IndexBasedEdE4DataC2ERKS8_, symObjAddr: 0x4F8C, symBinAddr: 0x1000081A8, symSize: 0x58 }
  - { offsetInCU: 0x85AC0, offset: 0x85AC0, size: 0x8, addend: 0x0, symName: __ZNK5Eigen12CwiseUnaryOpINS_8internal13scalar_abs_opIdEEKNS_6MatrixIdLin1ELin1ELi0ELin1ELin1EEEE7functorEv, symObjAddr: 0x4FE4, symBinAddr: 0x100008200, symSize: 0x18 }
  - { offsetInCU: 0x85AE6, offset: 0x85AE6, size: 0x8, addend: 0x0, symName: __ZNK5Eigen12CwiseUnaryOpINS_8internal13scalar_abs_opIdEEKNS_6MatrixIdLin1ELin1ELi0ELin1ELin1EEEE16nestedExpressionEv, symObjAddr: 0x4FFC, symBinAddr: 0x100008218, symSize: 0x18 }
  - { offsetInCU: 0x85B0C, offset: 0x85B0C, size: 0x8, addend: 0x0, symName: __ZN5Eigen8internal9evaluatorIKNS_6MatrixIdLin1ELin1ELi0ELin1ELin1EEEEC1ERS4_, symObjAddr: 0x5014, symBinAddr: 0x100008230, symSize: 0x34 }
  - { offsetInCU: 0x85B44, offset: 0x85B44, size: 0x8, addend: 0x0, symName: __ZN5Eigen8internal9evaluatorIKNS_6MatrixIdLin1ELin1ELi0ELin1ELin1EEEEC2ERS4_, symObjAddr: 0x5048, symBinAddr: 0x100008264, symSize: 0x34 }
  - { offsetInCU: 0x85B7C, offset: 0x85B7C, size: 0x8, addend: 0x0, symName: __ZN5Eigen8internal9evaluatorIKNS_12CwiseUnaryOpINS0_13scalar_abs_opIdEEKNS_6MatrixIdLin1ELin1ELi0ELin1ELin1EEEEEED2Ev, symObjAddr: 0x507C, symBinAddr: 0x100008298, symSize: 0x2C }
  - { offsetInCU: 0x85BA8, offset: 0x85BA8, size: 0x8, addend: 0x0, symName: __ZN5Eigen8internal9evaluatorINS_12CwiseUnaryOpINS0_13scalar_abs_opIdEEKNS_6MatrixIdLin1ELin1ELi0ELin1ELin1EEEEEED2Ev, symObjAddr: 0x50A8, symBinAddr: 0x1000082C4, symSize: 0x2C }
  - { offsetInCU: 0x85BD4, offset: 0x85BD4, size: 0x8, addend: 0x0, symName: __ZN5Eigen8internal15unary_evaluatorINS_12CwiseUnaryOpINS0_13scalar_abs_opIdEEKNS_6MatrixIdLin1ELin1ELi0ELin1ELin1EEEEENS0_10IndexBasedEdED2Ev, symObjAddr: 0x50D4, symBinAddr: 0x1000082F0, symSize: 0x34 }
  - { offsetInCU: 0x85C00, offset: 0x85C00, size: 0x8, addend: 0x0, symName: __ZN5Eigen8internal15unary_evaluatorINS_12CwiseUnaryOpINS0_13scalar_abs_opIdEEKNS_6MatrixIdLin1ELin1ELi0ELin1ELin1EEEEENS0_10IndexBasedEdE4DataD1Ev, symObjAddr: 0x5108, symBinAddr: 0x100008324, symSize: 0x2C }
  - { offsetInCU: 0x85C2D, offset: 0x85C2D, size: 0x8, addend: 0x0, symName: __ZN5Eigen8internal15unary_evaluatorINS_12CwiseUnaryOpINS0_13scalar_abs_opIdEEKNS_6MatrixIdLin1ELin1ELi0ELin1ELin1EEEEENS0_10IndexBasedEdE4DataD2Ev, symObjAddr: 0x5134, symBinAddr: 0x100008350, symSize: 0x30 }
  - { offsetInCU: 0x85C5A, offset: 0x85C5A, size: 0x8, addend: 0x0, symName: __ZN5Eigen8internal9evaluatorIKNS_6MatrixIdLin1ELin1ELi0ELin1ELin1EEEED1Ev, symObjAddr: 0x5164, symBinAddr: 0x100008380, symSize: 0x2C }
  - { offsetInCU: 0x85C86, offset: 0x85C86, size: 0x8, addend: 0x0, symName: __ZN5Eigen8internal9evaluatorIKNS_6MatrixIdLin1ELin1ELi0ELin1ELin1EEEED2Ev, symObjAddr: 0x5190, symBinAddr: 0x1000083AC, symSize: 0x2C }
  - { offsetInCU: 0x85CB2, offset: 0x85CB2, size: 0x8, addend: 0x0, symName: __ZNK5Eigen8internal15unary_evaluatorINS_5BlockIKNS_12CwiseUnaryOpINS0_13scalar_abs_opIdEEKNS_6MatrixIdLin1ELin1ELi0ELin1ELin1EEEEELin1ELi1ELb1EEENS0_10IndexBasedEdE6packetILi0E19__simd128_float64_tEET0_l, symObjAddr: 0x51E0, symBinAddr: 0x1000083FC, symSize: 0x44 }
  - { offsetInCU: 0x85CFA, offset: 0x85CFA, size: 0x8, addend: 0x0, symName: __ZNK5Eigen8internal13scalar_sum_opIddE8packetOpI19__simd128_float64_tEET_RKS5_S7_, symObjAddr: 0x5224, symBinAddr: 0x100008440, symSize: 0x30 }
  - { offsetInCU: 0x85D45, offset: 0x85D45, size: 0x8, addend: 0x0, symName: __ZNK5Eigen8internal13scalar_sum_opIddE6preduxI19__simd128_float64_tEEdRKT_, symObjAddr: 0x5254, symBinAddr: 0x100008470, symSize: 0x28 }
  - { offsetInCU: 0x85D82, offset: 0x85D82, size: 0x8, addend: 0x0, symName: __ZNK5Eigen8internal13scalar_sum_opIddEclERKdS4_, symObjAddr: 0x527C, symBinAddr: 0x100008498, symSize: 0x2C }
  - { offsetInCU: 0x85DC4, offset: 0x85DC4, size: 0x8, addend: 0x0, symName: __ZNK5Eigen8internal15unary_evaluatorINS_5BlockIKNS_12CwiseUnaryOpINS0_13scalar_abs_opIdEEKNS_6MatrixIdLin1ELin1ELi0ELin1ELin1EEEEELin1ELi1ELb1EEENS0_10IndexBasedEdE5coeffEl, symObjAddr: 0x52A8, symBinAddr: 0x1000084C4, symSize: 0x2C }
  - { offsetInCU: 0x85DF9, offset: 0x85DF9, size: 0x8, addend: 0x0, symName: __ZN5Eigen8internal18first_aligned_implILi16ENS_5BlockIKNS_12CwiseUnaryOpINS0_13scalar_abs_opIdEEKNS_6MatrixIdLin1ELin1ELi0ELin1ELin1EEEEELin1ELi1ELb1EEELb1EE3runERKSB_, symObjAddr: 0x52FC, symBinAddr: 0x100008518, symSize: 0x14 }
  - { offsetInCU: 0x85E19, offset: 0x85E19, size: 0x8, addend: 0x0, symName: __ZNK5Eigen8internal15unary_evaluatorINS_12CwiseUnaryOpINS0_13scalar_abs_opIdEEKNS_6MatrixIdLin1ELin1ELi0ELin1ELin1EEEEENS0_10IndexBasedEdE6packetILi0E19__simd128_float64_tEET0_l, symObjAddr: 0x5310, symBinAddr: 0x10000852C, symSize: 0x50 }
  - { offsetInCU: 0x85E61, offset: 0x85E61, size: 0x8, addend: 0x0, symName: __ZNK5Eigen8internal15unary_evaluatorINS_12CwiseUnaryOpINS0_13scalar_abs_opIdEEKNS_6MatrixIdLin1ELin1ELi0ELin1ELin1EEEEENS0_10IndexBasedEdE4Data4funcEv, symObjAddr: 0x5360, symBinAddr: 0x10000857C, symSize: 0x14 }
  - { offsetInCU: 0x85E87, offset: 0x85E87, size: 0x8, addend: 0x0, symName: __ZNK5Eigen8internal13scalar_abs_opIdE8packetOpI19__simd128_float64_tEEKT_RS6_, symObjAddr: 0x5374, symBinAddr: 0x100008590, symSize: 0x28 }
  - { offsetInCU: 0x85EC4, offset: 0x85EC4, size: 0x8, addend: 0x0, symName: __ZNK5Eigen8internal9evaluatorINS_15PlainObjectBaseINS_6MatrixIdLin1ELin1ELi0ELin1ELin1EEEEEE6packetILi0E19__simd128_float64_tEET0_l, symObjAddr: 0x539C, symBinAddr: 0x1000085B8, symSize: 0x3C }
  - { offsetInCU: 0x85F28, offset: 0x85F28, size: 0x8, addend: 0x0, symName: __ZNK5Eigen8internal15unary_evaluatorINS_5BlockIKNS_12CwiseUnaryOpINS0_13scalar_abs_opIdEEKNS_6MatrixIdLin1ELin1ELi0ELin1ELin1EEEEELin1ELi1ELb1EEENS0_10IndexBasedEdE17linear_coeff_implElNS0_9true_typeE, symObjAddr: 0x54BC, symBinAddr: 0x1000086D8, symSize: 0x44 }
  - { offsetInCU: 0x85F68, offset: 0x85F68, size: 0x8, addend: 0x0, symName: __ZNK5Eigen8internal15unary_evaluatorINS_12CwiseUnaryOpINS0_13scalar_abs_opIdEEKNS_6MatrixIdLin1ELin1ELi0ELin1ELin1EEEEENS0_10IndexBasedEdE5coeffEl, symObjAddr: 0x5500, symBinAddr: 0x10000871C, symSize: 0x4C }
  - { offsetInCU: 0x85FAF, offset: 0x85FAF, size: 0x8, addend: 0x0, symName: __ZNK5Eigen8internal13scalar_abs_opIdEclERKd, symObjAddr: 0x554C, symBinAddr: 0x100008768, symSize: 0x34 }
  - { offsetInCU: 0x86007, offset: 0x86007, size: 0x8, addend: 0x0, symName: __Z3absB8ue170006d, symObjAddr: 0x5580, symBinAddr: 0x10000879C, symSize: 0x18 }
  - { offsetInCU: 0x86034, offset: 0x86034, size: 0x8, addend: 0x0, symName: __ZN5Eigen8internal15redux_evaluatorINS_5BlockIKNS_12CwiseUnaryOpINS0_13scalar_abs_opIdEEKNS_6MatrixIdLin1ELin1ELi0ELin1ELin1EEEEELin1ELi1ELb1EEEED2Ev, symObjAddr: 0x5598, symBinAddr: 0x1000087B4, symSize: 0x2C }
  - { offsetInCU: 0x86061, offset: 0x86061, size: 0x8, addend: 0x0, symName: __ZN5Eigen8internal9evaluatorINS_5BlockIKNS_12CwiseUnaryOpINS0_13scalar_abs_opIdEEKNS_6MatrixIdLin1ELin1ELi0ELin1ELin1EEEEELin1ELi1ELb1EEEED2Ev, symObjAddr: 0x55C4, symBinAddr: 0x1000087E0, symSize: 0x2C }
  - { offsetInCU: 0x8608E, offset: 0x8608E, size: 0x8, addend: 0x0, symName: __ZN5Eigen8internal15block_evaluatorIKNS_12CwiseUnaryOpINS0_13scalar_abs_opIdEEKNS_6MatrixIdLin1ELin1ELi0ELin1ELin1EEEEELin1ELi1ELb1ELb0EED2Ev, symObjAddr: 0x55F0, symBinAddr: 0x10000880C, symSize: 0x2C }
  - { offsetInCU: 0x860BB, offset: 0x860BB, size: 0x8, addend: 0x0, symName: __ZN5Eigen8internal15unary_evaluatorINS_5BlockIKNS_12CwiseUnaryOpINS0_13scalar_abs_opIdEEKNS_6MatrixIdLin1ELin1ELi0ELin1ELin1EEEEELin1ELi1ELb1EEENS0_10IndexBasedEdED2Ev, symObjAddr: 0x561C, symBinAddr: 0x100008838, symSize: 0x34 }
  - { offsetInCU: 0x860E7, offset: 0x860E7, size: 0x8, addend: 0x0, symName: __ZN5Eigen8internal13scalar_sum_opIddEC2Ev, symObjAddr: 0x5650, symBinAddr: 0x10000886C, symSize: 0x14 }
  - { offsetInCU: 0x86111, offset: 0x86111, size: 0x8, addend: 0x0, symName: __ZN5Eigen5BlockIKNS_12CwiseUnaryOpINS_8internal13scalar_abs_opIdEEKNS_6MatrixIdLin1ELin1ELi0ELin1ELin1EEEEELin1ELi1ELb1EEC1ERS9_l, symObjAddr: 0x5664, symBinAddr: 0x100008880, symSize: 0x3C }
  - { offsetInCU: 0x86157, offset: 0x86157, size: 0x8, addend: 0x0, symName: __ZN5Eigen5BlockIKNS_12CwiseUnaryOpINS_8internal13scalar_abs_opIdEEKNS_6MatrixIdLin1ELin1ELi0ELin1ELin1EEEEELin1ELi1ELb1EEC2ERS9_l, symObjAddr: 0x56A0, symBinAddr: 0x1000088BC, symSize: 0xAC }
  - { offsetInCU: 0x8619D, offset: 0x8619D, size: 0x8, addend: 0x0, symName: __ZN5Eigen9BlockImplIKNS_12CwiseUnaryOpINS_8internal13scalar_abs_opIdEEKNS_6MatrixIdLin1ELin1ELi0ELin1ELin1EEEEELin1ELi1ELb1ENS_5DenseEEC2ERS9_l, symObjAddr: 0x574C, symBinAddr: 0x100008968, symSize: 0x3C }
  - { offsetInCU: 0x861E3, offset: 0x861E3, size: 0x8, addend: 0x0, symName: __ZN5Eigen8internal15BlockImpl_denseIKNS_12CwiseUnaryOpINS0_13scalar_abs_opIdEEKNS_6MatrixIdLin1ELin1ELi0ELin1ELin1EEEEELin1ELi1ELb1ELb0EEC2ERS9_l, symObjAddr: 0x5788, symBinAddr: 0x1000089A4, symSize: 0x88 }
  - { offsetInCU: 0x86229, offset: 0x86229, size: 0x8, addend: 0x0, symName: __ZN5Eigen10MatrixBaseINS_5BlockIKNS_12CwiseUnaryOpINS_8internal13scalar_abs_opIdEEKNS_6MatrixIdLin1ELin1ELi0ELin1ELin1EEEEELin1ELi1ELb1EEEEC2Ev, symObjAddr: 0x5810, symBinAddr: 0x100008A2C, symSize: 0x2C }
  - { offsetInCU: 0x86253, offset: 0x86253, size: 0x8, addend: 0x0, symName: __ZN5Eigen8internal19variable_if_dynamicIlLi1EEC1El, symObjAddr: 0x583C, symBinAddr: 0x100008A58, symSize: 0x34 }
  - { offsetInCU: 0x8628B, offset: 0x8628B, size: 0x8, addend: 0x0, symName: __ZN5Eigen9DenseBaseINS_5BlockIKNS_12CwiseUnaryOpINS_8internal13scalar_abs_opIdEEKNS_6MatrixIdLin1ELin1ELi0ELin1ELin1EEEEELin1ELi1ELb1EEEEC2Ev, symObjAddr: 0x5870, symBinAddr: 0x100008A8C, symSize: 0x14 }
  - { offsetInCU: 0x862B5, offset: 0x862B5, size: 0x8, addend: 0x0, symName: __ZN5Eigen8internal19variable_if_dynamicIlLi1EEC2El, symObjAddr: 0x5884, symBinAddr: 0x100008AA0, symSize: 0x64 }
  - { offsetInCU: 0x862ED, offset: 0x862ED, size: 0x8, addend: 0x0, symName: __ZNK5Eigen9EigenBaseINS_16PartialReduxExprIKNS_12CwiseUnaryOpINS_8internal13scalar_abs_opIdEEKNS_6MatrixIdLin1ELin1ELi0ELin1ELin1EEEEENS3_10member_sumIddEELi0EEEE4sizeEv, symObjAddr: 0x58E8, symBinAddr: 0x100008B04, symSize: 0x44 }
  - { offsetInCU: 0x86329, offset: 0x86329, size: 0x8, addend: 0x0, symName: __ZN5Eigen8internal12pminmax_implILi0EE3runIdPFdRKdS5_EEET_RKS8_SA_T0_, symObjAddr: 0x5960, symBinAddr: 0x100008B7C, symSize: 0x34 }
  - { offsetInCU: 0x86387, offset: 0x86387, size: 0x8, addend: 0x0, symName: __ZNKSt3__16__lessIvvEclB8ue170006IddEEbRKT_RKT0_, symObjAddr: 0x5A54, symBinAddr: 0x100008C70, symSize: 0x34 }
  - { offsetInCU: 0x863DB, offset: 0x863DB, size: 0x8, addend: 0x0, symName: __ZN5Eigen8internal15redux_evaluatorINS_16PartialReduxExprIKNS_12CwiseUnaryOpINS0_13scalar_abs_opIdEEKNS_6MatrixIdLin1ELin1ELi0ELin1ELin1EEEEENS0_10member_sumIddEELi0EEEED2Ev, symObjAddr: 0x5A88, symBinAddr: 0x100008CA4, symSize: 0x2C }
  - { offsetInCU: 0x86408, offset: 0x86408, size: 0x8, addend: 0x0, symName: __ZN5Eigen8internal9evaluatorINS_16PartialReduxExprIKNS_12CwiseUnaryOpINS0_13scalar_abs_opIdEEKNS_6MatrixIdLin1ELin1ELi0ELin1ELin1EEEEENS0_10member_sumIddEELi0EEEED2Ev, symObjAddr: 0x5AB4, symBinAddr: 0x100008CD0, symSize: 0x2C }
  - { offsetInCU: 0x86434, offset: 0x86434, size: 0x8, addend: 0x0, symName: __ZN5Eigen8internal13scalar_max_opIddLi0EEC2Ev, symObjAddr: 0x5AE0, symBinAddr: 0x100008CFC, symSize: 0x14 }
  - { offsetInCU: 0x8645E, offset: 0x8645E, size: 0x8, addend: 0x0, symName: __ZN5Eigen18TranspositionsBaseINS_14TranspositionsILin1ELin1EiEEE7indicesEv, symObjAddr: 0x5AF4, symBinAddr: 0x100008D10, symSize: 0x28 }
  - { offsetInCU: 0x86484, offset: 0x86484, size: 0x8, addend: 0x0, symName: __ZN5Eigen18TranspositionsBaseINS_14TranspositionsILin1ELin1EiEEE7derivedEv, symObjAddr: 0x5B1C, symBinAddr: 0x100008D38, symSize: 0x14 }
  - { offsetInCU: 0x864AA, offset: 0x864AA, size: 0x8, addend: 0x0, symName: __ZN5Eigen14TranspositionsILin1ELin1EiE7indicesEv, symObjAddr: 0x5B30, symBinAddr: 0x100008D4C, symSize: 0x14 }
  - { offsetInCU: 0x864D0, offset: 0x864D0, size: 0x8, addend: 0x0, symName: __ZNK5Eigen18TranspositionsBaseINS_14TranspositionsILin1ELin1EiEEE4sizeEv, symObjAddr: 0x5B44, symBinAddr: 0x100008D60, symSize: 0x28 }
  - { offsetInCU: 0x864F6, offset: 0x864F6, size: 0x8, addend: 0x0, symName: __ZN5Eigen18TranspositionsBaseINS_14TranspositionsILin1ELin1EiEEE8coeffRefEl, symObjAddr: 0x5B6C, symBinAddr: 0x100008D88, symSize: 0x30 }
  - { offsetInCU: 0x8652A, offset: 0x8652A, size: 0x8, addend: 0x0, symName: __ZN5Eigen8internal15partial_lu_implIdLi0EiLin1EE10blocked_luEllPdlPiRil, symObjAddr: 0x5B9C, symBinAddr: 0x100008DB8, symSize: 0x55C }
  - { offsetInCU: 0x86720, offset: 0x86720, size: 0x8, addend: 0x0, symName: __ZN5Eigen15PlainObjectBaseINS_6MatrixIdLin1ELin1ELi0ELin1ELin1EEEE8coeffRefEll, symObjAddr: 0x60F8, symBinAddr: 0x100009314, symSize: 0x6C }
  - { offsetInCU: 0x86762, offset: 0x86762, size: 0x8, addend: 0x0, symName: __ZNK5Eigen18TranspositionsBaseINS_14TranspositionsILin1ELin1EiEEE7indicesEv, symObjAddr: 0x6164, symBinAddr: 0x100009380, symSize: 0x28 }
  - { offsetInCU: 0x86788, offset: 0x86788, size: 0x8, addend: 0x0, symName: __ZNK5Eigen9EigenBaseINS_6MatrixIiLin1ELi1ELi0ELin1ELi1EEEE4sizeEv, symObjAddr: 0x618C, symBinAddr: 0x1000093A8, symSize: 0x44 }
  - { offsetInCU: 0x867AE, offset: 0x867AE, size: 0x8, addend: 0x0, symName: __ZNK5Eigen18TranspositionsBaseINS_14TranspositionsILin1ELin1EiEEE7derivedEv, symObjAddr: 0x61D0, symBinAddr: 0x1000093EC, symSize: 0x14 }
  - { offsetInCU: 0x867D4, offset: 0x867D4, size: 0x8, addend: 0x0, symName: __ZNK5Eigen14TranspositionsILin1ELin1EiE7indicesEv, symObjAddr: 0x61E4, symBinAddr: 0x100009400, symSize: 0x14 }
  - { offsetInCU: 0x867FA, offset: 0x867FA, size: 0x8, addend: 0x0, symName: __ZNK5Eigen9EigenBaseINS_6MatrixIiLin1ELi1ELi0ELin1ELi1EEEE4rowsEv, symObjAddr: 0x61F8, symBinAddr: 0x100009414, symSize: 0x38 }
  - { offsetInCU: 0x86820, offset: 0x86820, size: 0x8, addend: 0x0, symName: __ZNK5Eigen9EigenBaseINS_6MatrixIiLin1ELi1ELi0ELin1ELi1EEEE4colsEv, symObjAddr: 0x6230, symBinAddr: 0x10000944C, symSize: 0x28 }
  - { offsetInCU: 0x86846, offset: 0x86846, size: 0x8, addend: 0x0, symName: __ZNK5Eigen9EigenBaseINS_6MatrixIiLin1ELi1ELi0ELin1ELi1EEEE7derivedEv, symObjAddr: 0x6258, symBinAddr: 0x100009474, symSize: 0x14 }
  - { offsetInCU: 0x8686C, offset: 0x8686C, size: 0x8, addend: 0x0, symName: __ZNK5Eigen15PlainObjectBaseINS_6MatrixIiLin1ELi1ELi0ELin1ELi1EEEE4rowsEv, symObjAddr: 0x626C, symBinAddr: 0x100009488, symSize: 0x24 }
  - { offsetInCU: 0x86892, offset: 0x86892, size: 0x8, addend: 0x0, symName: __ZNK5Eigen12DenseStorageIiLin1ELin1ELi1ELi0EE4rowsEv, symObjAddr: 0x6290, symBinAddr: 0x1000094AC, symSize: 0x18 }
  - { offsetInCU: 0x868B8, offset: 0x868B8, size: 0x8, addend: 0x0, symName: __ZNK5Eigen15PlainObjectBaseINS_6MatrixIiLin1ELi1ELi0ELin1ELi1EEEE4colsEv, symObjAddr: 0x62A8, symBinAddr: 0x1000094C4, symSize: 0x30 }
  - { offsetInCU: 0x868DE, offset: 0x868DE, size: 0x8, addend: 0x0, symName: __ZN5Eigen12DenseStorageIiLin1ELin1ELi1ELi0EE4colsEv, symObjAddr: 0x62D8, symBinAddr: 0x1000094F4, symSize: 0x8 }
  - { offsetInCU: 0x868F2, offset: 0x868F2, size: 0x8, addend: 0x0, symName: __ZN5Eigen15PlainObjectBaseINS_6MatrixIiLin1ELi1ELi0ELin1ELi1EEEE8coeffRefEl, symObjAddr: 0x62E0, symBinAddr: 0x1000094FC, symSize: 0x30 }
  - { offsetInCU: 0x86926, offset: 0x86926, size: 0x8, addend: 0x0, symName: __ZN5Eigen12DenseStorageIiLin1ELin1ELi1ELi0EE4dataEv, symObjAddr: 0x6310, symBinAddr: 0x10000952C, symSize: 0x18 }
  - { offsetInCU: 0x8694C, offset: 0x8694C, size: 0x8, addend: 0x0, symName: __ZN5Eigen15PlainObjectBaseINS_6MatrixIdLin1ELin1ELi0ELin1ELin1EEEE3MapILin1ELi0EEENS3_14StridedMapTypeINS_6StrideIXT_EXT0_EEEE4typeEPdllRKS7_, symObjAddr: 0x6328, symBinAddr: 0x100009544, symSize: 0x50 }
  - { offsetInCU: 0x869B1, offset: 0x869B1, size: 0x8, addend: 0x0, symName: __ZN5Eigen11OuterStrideILin1EEC1El, symObjAddr: 0x6378, symBinAddr: 0x100009594, symSize: 0x34 }
  - { offsetInCU: 0x869EE, offset: 0x869EE, size: 0x8, addend: 0x0, symName: __ZN5Eigen3RefINS_6MatrixIdLin1ELin1ELi0ELin1ELin1EEELi0ENS_11OuterStrideILin1EEEEC1INS_3MapIS2_Li0ENS_6StrideILin1ELi0EEEEEEERKNS_9DenseBaseIT_EEPNS_8internal9enable_ifIXcvbsr6Traits5matchISC_EE18MatchAtCompileTimeESC_E4typeE, symObjAddr: 0x63AC, symBinAddr: 0x1000095C8, symSize: 0x3C }
  - { offsetInCU: 0x86A3B, offset: 0x86A3B, size: 0x8, addend: 0x0, symName: __ZN5Eigen9DenseBaseINS_3RefINS_6MatrixIdLin1ELin1ELi0ELin1ELin1EEELi0ENS_11OuterStrideILin1EEEEEE5blockIllEENS7_13FixedBlockXprIXsr8internal15get_fixed_valueIT_EE5valueEXsr8internal15get_fixed_valueIT0_EE5valueEE4TypeEllSA_SB_, symObjAddr: 0x67B8, symBinAddr: 0x1000099D4, symSize: 0x94 }
  - { offsetInCU: 0x86AB0, offset: 0x86AB0, size: 0x8, addend: 0x0, symName: __ZN5Eigen3RefINS_6MatrixIdLin1ELin1ELi0ELin1ELin1EEELi0ENS_11OuterStrideILin1EEEEC1INS_5BlockIS5_Lin1ELin1ELb0EEEEERKNS_9DenseBaseIT_EEPNS_8internal9enable_ifIXcvbsr6Traits5matchISA_EE18MatchAtCompileTimeESA_E4typeE, symObjAddr: 0x684C, symBinAddr: 0x100009A68, symSize: 0x3C }
  - { offsetInCU: 0x86AFD, offset: 0x86AFD, size: 0x8, addend: 0x0, symName: __ZN5Eigen7MapBaseINS_3RefINS_6MatrixIdLin1ELin1ELi0ELin1ELin1EEELi0ENS_11OuterStrideILin1EEEEELi1EE8coeffRefEll, symObjAddr: 0x6888, symBinAddr: 0x100009AA4, symSize: 0x78 }
  - { offsetInCU: 0x86B41, offset: 0x86B41, size: 0x8, addend: 0x0, symName: __ZN5Eigen9DenseBaseINS_3RefINS_6MatrixIdLin1ELin1ELi0ELin1ELin1EEELi0ENS_11OuterStrideILin1EEEEEE3rowEl, symObjAddr: 0x691C, symBinAddr: 0x100009B38, symSize: 0x3C }
  - { offsetInCU: 0x86B76, offset: 0x86B76, size: 0x8, addend: 0x0, symName: __ZN5Eigen9DenseBaseINS_5BlockINS_3RefINS_6MatrixIdLin1ELin1ELi0ELin1ELin1EEELi0ENS_11OuterStrideILin1EEEEELi1ELin1ELb0EEEE4swapIS8_EEvRKNS0_IT_EE, symObjAddr: 0x6958, symBinAddr: 0x100009B74, symSize: 0xEC }
  - { offsetInCU: 0x86BB4, offset: 0x86BB4, size: 0x8, addend: 0x0, symName: __ZN5Eigen10MatrixBaseINS_3RefINS_6MatrixIdLin1ELin1ELi0ELin1ELin1EEELi0ENS_11OuterStrideILin1EEEEEE14triangularViewILj5EEENS7_24TriangularViewReturnTypeIXT_EE4TypeEv, symObjAddr: 0x6A44, symBinAddr: 0x100009C60, symSize: 0x34 }
  - { offsetInCU: 0x86BE7, offset: 0x86BE7, size: 0x8, addend: 0x0, symName: __ZNK5Eigen18TriangularViewImplINS_3RefINS_6MatrixIdLin1ELin1ELi0ELin1ELin1EEELi0ENS_11OuterStrideILin1EEEEELj5ENS_5DenseEE12solveInPlaceIS6_EEvRKNS_10MatrixBaseIT_EE, symObjAddr: 0x6A78, symBinAddr: 0x100009C94, symSize: 0x2C }
  - { offsetInCU: 0x86C25, offset: 0x86C25, size: 0x8, addend: 0x0, symName: __ZNK5Eigen10MatrixBaseINS_3RefINS_6MatrixIdLin1ELin1ELi0ELin1ELin1EEELi0ENS_11OuterStrideILin1EEEEEEmlIS6_EEKNS_7ProductIS6_T_Li0EEERKNS0_ISA_EE, symObjAddr: 0x6AA4, symBinAddr: 0x100009CC0, symSize: 0x4C }
  - { offsetInCU: 0x86C65, offset: 0x86C65, size: 0x8, addend: 0x0, symName: __ZN5Eigen10MatrixBaseINS_3RefINS_6MatrixIdLin1ELin1ELi0ELin1ELin1EEELi0ENS_11OuterStrideILin1EEEEEE7noaliasEv, symObjAddr: 0x6AF0, symBinAddr: 0x100009D0C, symSize: 0x34 }
  - { offsetInCU: 0x86C8D, offset: 0x86C8D, size: 0x8, addend: 0x0, symName: __ZN5Eigen7NoAliasINS_3RefINS_6MatrixIdLin1ELin1ELi0ELin1ELin1EEELi0ENS_11OuterStrideILin1EEEEENS_10MatrixBaseEEmIINS_7ProductIS6_S6_Li0EEEEERS6_RKNS7_IT_EE, symObjAddr: 0x6B24, symBinAddr: 0x100009D40, symSize: 0x60 }
  - { offsetInCU: 0x86CCA, offset: 0x86CCA, size: 0x8, addend: 0x0, symName: __ZN5Eigen3MapINS_6MatrixIdLin1ELin1ELi0ELin1ELin1EEELi0ENS_6StrideILin1ELi0EEEEC1EPdllRKS4_, symObjAddr: 0x6B84, symBinAddr: 0x100009DA0, symSize: 0x4C }
  - { offsetInCU: 0x86D2C, offset: 0x86D2C, size: 0x8, addend: 0x0, symName: __ZN5Eigen3MapINS_6MatrixIdLin1ELin1ELi0ELin1ELin1EEELi0ENS_6StrideILin1ELi0EEEEC2EPdllRKS4_, symObjAddr: 0x6BD0, symBinAddr: 0x100009DEC, symSize: 0x68 }
  - { offsetInCU: 0x86D8E, offset: 0x86D8E, size: 0x8, addend: 0x0, symName: __ZN5Eigen3MapINS_6MatrixIdLin1ELin1ELi0ELin1ELin1EEELi0ENS_6StrideILin1ELi0EEEE20cast_to_pointer_typeEPd, symObjAddr: 0x6C38, symBinAddr: 0x100009E54, symSize: 0x18 }
  - { offsetInCU: 0x86DC2, offset: 0x86DC2, size: 0x8, addend: 0x0, symName: __ZN5Eigen7MapBaseINS_3MapINS_6MatrixIdLin1ELin1ELi0ELin1ELin1EEELi0ENS_6StrideILin1ELi0EEEEELi1EEC2EPdll, symObjAddr: 0x6C50, symBinAddr: 0x100009E6C, symSize: 0x44 }
  - { offsetInCU: 0x86E19, offset: 0x86E19, size: 0x8, addend: 0x0, symName: __ZN5Eigen6StrideILin1ELi0EEC1ERKS1_, symObjAddr: 0x6C94, symBinAddr: 0x100009EB0, symSize: 0x34 }
  - { offsetInCU: 0x86E51, offset: 0x86E51, size: 0x8, addend: 0x0, symName: __ZN5Eigen7MapBaseINS_3MapINS_6MatrixIdLin1ELin1ELi0ELin1ELin1EEELi0ENS_6StrideILin1ELi0EEEEELi0EEC2EPdll, symObjAddr: 0x6CC8, symBinAddr: 0x100009EE4, symSize: 0x110 }
  - { offsetInCU: 0x86EA5, offset: 0x86EA5, size: 0x8, addend: 0x0, symName: __ZN5Eigen10MatrixBaseINS_3MapINS_6MatrixIdLin1ELin1ELi0ELin1ELin1EEELi0ENS_6StrideILin1ELi0EEEEEEC2Ev, symObjAddr: 0x6DD8, symBinAddr: 0x100009FF4, symSize: 0x2C }
  - { offsetInCU: 0x86ECF, offset: 0x86ECF, size: 0x8, addend: 0x0, symName: __ZNK5Eigen7MapBaseINS_3MapINS_6MatrixIdLin1ELin1ELi0ELin1ELin1EEELi0ENS_6StrideILin1ELi0EEEEELi0EE11checkSanityIS6_EEvNS_8internal9enable_ifIXeqsr8internal6traitsIT_EE9AlignmentLi0EEPvE4typeE, symObjAddr: 0x6E04, symBinAddr: 0x10000A020, symSize: 0x14 }
  - { offsetInCU: 0x86F09, offset: 0x86F09, size: 0x8, addend: 0x0, symName: __ZN5Eigen9DenseBaseINS_3MapINS_6MatrixIdLin1ELin1ELi0ELin1ELin1EEELi0ENS_6StrideILin1ELi0EEEEEEC2Ev, symObjAddr: 0x6E18, symBinAddr: 0x10000A034, symSize: 0x14 }
  - { offsetInCU: 0x86F33, offset: 0x86F33, size: 0x8, addend: 0x0, symName: __ZN5Eigen6StrideILin1ELi0EEC2ERKS1_, symObjAddr: 0x6E2C, symBinAddr: 0x10000A048, symSize: 0x58 }
  - { offsetInCU: 0x86F6B, offset: 0x86F6B, size: 0x8, addend: 0x0, symName: __ZNK5Eigen6StrideILin1ELi0EE5outerEv, symObjAddr: 0x6E84, symBinAddr: 0x10000A0A0, symSize: 0x24 }
  - { offsetInCU: 0x86F91, offset: 0x86F91, size: 0x8, addend: 0x0, symName: __ZNK5Eigen6StrideILin1ELi0EE5innerEv, symObjAddr: 0x6EA8, symBinAddr: 0x10000A0C4, symSize: 0x20 }
  - { offsetInCU: 0x86FB7, offset: 0x86FB7, size: 0x8, addend: 0x0, symName: __ZN5Eigen8internal19variable_if_dynamicIlLi0EEC1El, symObjAddr: 0x6EC8, symBinAddr: 0x10000A0E4, symSize: 0x34 }
  - { offsetInCU: 0x86FEF, offset: 0x86FEF, size: 0x8, addend: 0x0, symName: __ZN5Eigen8internal19variable_if_dynamicIlLi0EE5valueEv, symObjAddr: 0x6EFC, symBinAddr: 0x10000A118, symSize: 0x8 }
  - { offsetInCU: 0x87003, offset: 0x87003, size: 0x8, addend: 0x0, symName: __ZN5Eigen8internal19variable_if_dynamicIlLi0EEC2El, symObjAddr: 0x6F04, symBinAddr: 0x10000A120, symSize: 0x64 }
  - { offsetInCU: 0x8703B, offset: 0x8703B, size: 0x8, addend: 0x0, symName: __ZN5Eigen11OuterStrideILin1EEC2El, symObjAddr: 0x6F68, symBinAddr: 0x10000A184, symSize: 0x38 }
  - { offsetInCU: 0x87073, offset: 0x87073, size: 0x8, addend: 0x0, symName: __ZN5Eigen6StrideILin1ELi0EEC2Ell, symObjAddr: 0x6FA0, symBinAddr: 0x10000A1BC, symSize: 0x48 }
  - { offsetInCU: 0x870B9, offset: 0x870B9, size: 0x8, addend: 0x0, symName: __ZN5Eigen3RefINS_6MatrixIdLin1ELin1ELi0ELin1ELin1EEELi0ENS_11OuterStrideILin1EEEEC2INS_3MapIS2_Li0ENS_6StrideILin1ELi0EEEEEEERKNS_9DenseBaseIT_EEPNS_8internal9enable_ifIXcvbsr6Traits5matchISC_EE18MatchAtCompileTimeESC_E4typeE, symObjAddr: 0x6FE8, symBinAddr: 0x10000A204, symSize: 0x90 }
  - { offsetInCU: 0x87123, offset: 0x87123, size: 0x8, addend: 0x0, symName: __ZN5Eigen7RefBaseINS_3RefINS_6MatrixIdLin1ELin1ELi0ELin1ELin1EEELi0ENS_11OuterStrideILin1EEEEEEC2Ev, symObjAddr: 0x7078, symBinAddr: 0x10000A294, symSize: 0x50 }
  - { offsetInCU: 0x8714D, offset: 0x8714D, size: 0x8, addend: 0x0, symName: __ZN5Eigen7RefBaseINS_3RefINS_6MatrixIdLin1ELin1ELi0ELin1ELin1EEELi0ENS_11OuterStrideILin1EEEEEE9constructINS_3MapIS3_Li0ENS_6StrideILin1ELi0EEEEEEEbRT_, symObjAddr: 0x70C8, symBinAddr: 0x10000A2E4, symSize: 0x1E0 }
  - { offsetInCU: 0x8725F, offset: 0x8725F, size: 0x8, addend: 0x0, symName: __ZNK5Eigen9EigenBaseINS_3MapINS_6MatrixIdLin1ELin1ELi0ELin1ELin1EEELi0ENS_6StrideILin1ELi0EEEEEE18const_cast_derivedEv, symObjAddr: 0x72A8, symBinAddr: 0x10000A4C4, symSize: 0x14 }
  - { offsetInCU: 0x87285, offset: 0x87285, size: 0x8, addend: 0x0, symName: __ZN5Eigen7MapBaseINS_3RefINS_6MatrixIdLin1ELin1ELi0ELin1ELin1EEELi0ENS_11OuterStrideILin1EEEEELi1EEC2EPdll, symObjAddr: 0x72BC, symBinAddr: 0x10000A4D8, symSize: 0x44 }
  - { offsetInCU: 0x872DC, offset: 0x872DC, size: 0x8, addend: 0x0, symName: __ZN5Eigen6StrideILin1ELi0EEC1Ell, symObjAddr: 0x7300, symBinAddr: 0x10000A51C, symSize: 0x3C }
  - { offsetInCU: 0x87322, offset: 0x87322, size: 0x8, addend: 0x0, symName: __ZN5Eigen7MapBaseINS_3RefINS_6MatrixIdLin1ELin1ELi0ELin1ELin1EEELi0ENS_11OuterStrideILin1EEEEELi0EEC2EPdll, symObjAddr: 0x733C, symBinAddr: 0x10000A558, symSize: 0x110 }
  - { offsetInCU: 0x87376, offset: 0x87376, size: 0x8, addend: 0x0, symName: __ZN5Eigen10MatrixBaseINS_3RefINS_6MatrixIdLin1ELin1ELi0ELin1ELin1EEELi0ENS_11OuterStrideILin1EEEEEEC2Ev, symObjAddr: 0x744C, symBinAddr: 0x10000A668, symSize: 0x2C }
  - { offsetInCU: 0x873A0, offset: 0x873A0, size: 0x8, addend: 0x0, symName: __ZNK5Eigen7MapBaseINS_3RefINS_6MatrixIdLin1ELin1ELi0ELin1ELin1EEELi0ENS_11OuterStrideILin1EEEEELi0EE11checkSanityIS6_EEvNS_8internal9enable_ifIXeqsr8internal6traitsIT_EE9AlignmentLi0EEPvE4typeE, symObjAddr: 0x7478, symBinAddr: 0x10000A694, symSize: 0x14 }
  - { offsetInCU: 0x873DA, offset: 0x873DA, size: 0x8, addend: 0x0, symName: __ZN5Eigen9DenseBaseINS_3RefINS_6MatrixIdLin1ELin1ELi0ELin1ELin1EEELi0ENS_11OuterStrideILin1EEEEEEC2Ev, symObjAddr: 0x748C, symBinAddr: 0x10000A6A8, symSize: 0x14 }
  - { offsetInCU: 0x87404, offset: 0x87404, size: 0x8, addend: 0x0, symName: __ZNK5Eigen7MapBaseINS_3MapINS_6MatrixIdLin1ELin1ELi0ELin1ELin1EEELi0ENS_6StrideILin1ELi0EEEEELi0EE4rowsEv, symObjAddr: 0x74A0, symBinAddr: 0x10000A6BC, symSize: 0x28 }
  - { offsetInCU: 0x8742A, offset: 0x8742A, size: 0x8, addend: 0x0, symName: __ZNK5Eigen7MapBaseINS_3MapINS_6MatrixIdLin1ELin1ELi0ELin1ELin1EEELi0ENS_6StrideILin1ELi0EEEEELi0EE4colsEv, symObjAddr: 0x74C8, symBinAddr: 0x10000A6E4, symSize: 0x28 }
  - { offsetInCU: 0x87450, offset: 0x87450, size: 0x8, addend: 0x0, symName: __ZN5Eigen7RefBaseINS_3RefINS_6MatrixIdLin1ELin1ELi0ELin1ELin1EEELi0ENS_11OuterStrideILin1EEEEEE18resolveInnerStrideEl, symObjAddr: 0x74F0, symBinAddr: 0x10000A70C, symSize: 0x40 }
  - { offsetInCU: 0x87473, offset: 0x87473, size: 0x8, addend: 0x0, symName: __ZNK5Eigen3MapINS_6MatrixIdLin1ELin1ELi0ELin1ELin1EEELi0ENS_6StrideILin1ELi0EEEE11innerStrideEv, symObjAddr: 0x7530, symBinAddr: 0x10000A74C, symSize: 0x14 }
  - { offsetInCU: 0x87499, offset: 0x87499, size: 0x8, addend: 0x0, symName: __ZN5Eigen7RefBaseINS_3RefINS_6MatrixIdLin1ELin1ELi0ELin1ELin1EEELi0ENS_11OuterStrideILin1EEEEEE18resolveOuterStrideEllllbb, symObjAddr: 0x7544, symBinAddr: 0x10000A760, symSize: 0xC8 }
  - { offsetInCU: 0x87502, offset: 0x87502, size: 0x8, addend: 0x0, symName: __ZNK5Eigen3MapINS_6MatrixIdLin1ELin1ELi0ELin1ELin1EEELi0ENS_6StrideILin1ELi0EEEE11outerStrideEv, symObjAddr: 0x760C, symBinAddr: 0x10000A828, symSize: 0x28 }
  - { offsetInCU: 0x87528, offset: 0x87528, size: 0x8, addend: 0x0, symName: __ZN5Eigen7MapBaseINS_3MapINS_6MatrixIdLin1ELin1ELi0ELin1ELin1EEELi0ENS_6StrideILin1ELi0EEEEELi1EE4dataEv, symObjAddr: 0x7634, symBinAddr: 0x10000A850, symSize: 0x18 }
  - { offsetInCU: 0x8754E, offset: 0x8754E, size: 0x8, addend: 0x0, symName: __ZN5Eigen7MapBaseINS_3RefINS_6MatrixIdLin1ELin1ELi0ELin1ELin1EEELi0ENS_11OuterStrideILin1EEEEELi1EEC1EPdll, symObjAddr: 0x764C, symBinAddr: 0x10000A868, symSize: 0x44 }
  - { offsetInCU: 0x875A5, offset: 0x875A5, size: 0x8, addend: 0x0, symName: __ZNKSt3__16__lessIvvEclB8ue170006IllEEbRKT_RKT0_, symObjAddr: 0x76E4, symBinAddr: 0x10000A900, symSize: 0x34 }
  - { offsetInCU: 0x875F9, offset: 0x875F9, size: 0x8, addend: 0x0, symName: __ZNK5Eigen7MapBaseINS_3RefINS_6MatrixIdLin1ELin1ELi0ELin1ELin1EEELi0ENS_11OuterStrideILin1EEEEELi0EE4rowsEv, symObjAddr: 0x7718, symBinAddr: 0x10000A934, symSize: 0x28 }
  - { offsetInCU: 0x8761F, offset: 0x8761F, size: 0x8, addend: 0x0, symName: __ZNK5Eigen7MapBaseINS_3RefINS_6MatrixIdLin1ELin1ELi0ELin1ELin1EEELi0ENS_11OuterStrideILin1EEEEELi0EE4colsEv, symObjAddr: 0x7740, symBinAddr: 0x10000A95C, symSize: 0x28 }
  - { offsetInCU: 0x87645, offset: 0x87645, size: 0x8, addend: 0x0, symName: __ZN5Eigen9DenseBaseINS_3RefINS_6MatrixIdLin1ELin1ELi0ELin1ELin1EEELi0ENS_11OuterStrideILin1EEEEEE3colEl, symObjAddr: 0x7768, symBinAddr: 0x10000A984, symSize: 0x3C }
  - { offsetInCU: 0x8767F, offset: 0x8767F, size: 0x8, addend: 0x0, symName: __ZN5Eigen9DenseBaseINS_5BlockINS_3RefINS_6MatrixIdLin1ELin1ELi0ELin1ELin1EEELi0ENS_11OuterStrideILin1EEEEELin1ELi1ELb1EEEE4tailIlEENS9_22FixedSegmentReturnTypeIXsr8internal15get_fixed_valueIT_EE5valueEE4TypeESC_, symObjAddr: 0x77A4, symBinAddr: 0x10000A9C0, symSize: 0x84 }
  - { offsetInCU: 0x876BD, offset: 0x876BD, size: 0x8, addend: 0x0, symName: __ZNK5Eigen9DenseBaseINS_5BlockINS1_INS_3RefINS_6MatrixIdLin1ELin1ELi0ELin1ELin1EEELi0ENS_11OuterStrideILin1EEEEELin1ELi1ELb1EEELin1ELi1ELb0EEEE9unaryExprINS_8internal21scalar_score_coeff_opIdEEEEKNS_12CwiseUnaryOpIT_KS9_EERKSG_, symObjAddr: 0x7828, symBinAddr: 0x10000AA44, symSize: 0x40 }
  - { offsetInCU: 0x876FF, offset: 0x876FF, size: 0x8, addend: 0x0, symName: __ZN5Eigen8internal21scalar_score_coeff_opIdEC1Ev, symObjAddr: 0x7868, symBinAddr: 0x10000AA84, symSize: 0x2C }
  - { offsetInCU: 0x8772B, offset: 0x8772B, size: 0x8, addend: 0x0, symName: __ZNK5Eigen9DenseBaseINS_12CwiseUnaryOpINS_8internal21scalar_score_coeff_opIdEEKNS_5BlockINS5_INS_3RefINS_6MatrixIdLin1ELin1ELi0ELin1ELin1EEELi0ENS_11OuterStrideILin1EEEEELin1ELi1ELb1EEELin1ELi1ELb0EEEEEE8maxCoeffIlEEdPT_, symObjAddr: 0x7894, symBinAddr: 0x10000AAB0, symSize: 0x2C }
  - { offsetInCU: 0x87769, offset: 0x87769, size: 0x8, addend: 0x0, symName: __ZNK5Eigen7MapBaseINS_3RefINS_6MatrixIdLin1ELin1ELi0ELin1ELin1EEELi0ENS_11OuterStrideILin1EEEEELi0EE5coeffEll, symObjAddr: 0x78C0, symBinAddr: 0x10000AADC, symSize: 0x78 }
  - { offsetInCU: 0x877AB, offset: 0x877AB, size: 0x8, addend: 0x0, symName: __ZN5Eigen9DenseBaseINS_5BlockINS_3RefINS_6MatrixIdLin1ELin1ELi0ELin1ELin1EEELi0ENS_11OuterStrideILin1EEEEELin1ELi1ELb1EEEE4tailINS_8internal19VariableAndFixedIntILin1EEEEENS9_22FixedSegmentReturnTypeIXsr8internal15get_fixed_valueIT_EE5valueEE4TypeESF_, symObjAddr: 0x7938, symBinAddr: 0x10000AB54, symSize: 0x88 }
  - { offsetInCU: 0x877E9, offset: 0x877E9, size: 0x8, addend: 0x0, symName: __ZN5Eigen9DenseBaseINS_5BlockINS1_INS_3RefINS_6MatrixIdLin1ELin1ELi0ELin1ELin1EEELi0ENS_11OuterStrideILin1EEEEELin1ELi1ELb1EEELin1ELi1ELb0EEEEdVERKd, symObjAddr: 0x79F8, symBinAddr: 0x10000AC14, symSize: 0x8C }
  - { offsetInCU: 0x87820, offset: 0x87820, size: 0x8, addend: 0x0, symName: __ZNK5Eigen10MatrixBaseINS_5BlockINS1_INS_3RefINS_6MatrixIdLin1ELin1ELi0ELin1ELin1EEELi0ENS_11OuterStrideILin1EEEEELin1ELi1ELb1EEELin1ELi1ELb0EEEEmlINS1_INS1_IS7_Li1ELin1ELb0EEELi1ELin1ELb0EEEEEKNS_7ProductIS9_T_Li0EEERKNS0_ISF_EE, symObjAddr: 0x7A84, symBinAddr: 0x10000ACA0, symSize: 0x48 }
  - { offsetInCU: 0x87865, offset: 0x87865, size: 0x8, addend: 0x0, symName: __ZN5Eigen9DenseBaseINS_5BlockINS_3RefINS_6MatrixIdLin1ELin1ELi0ELin1ELin1EEELi0ENS_11OuterStrideILin1EEEEELi1ELin1ELb0EEEE4tailINS_8internal19VariableAndFixedIntILin1EEEEENS9_22FixedSegmentReturnTypeIXsr8internal15get_fixed_valueIT_EE5valueEE4TypeESF_, symObjAddr: 0x7ACC, symBinAddr: 0x10000ACE8, symSize: 0x88 }
  - { offsetInCU: 0x878A3, offset: 0x878A3, size: 0x8, addend: 0x0, symName: __ZN5Eigen9DenseBaseINS_3RefINS_6MatrixIdLin1ELin1ELi0ELin1ELin1EEELi0ENS_11OuterStrideILin1EEEEEE17bottomRightCornerINS_8internal19VariableAndFixedIntILin1EEESB_EENS7_13FixedBlockXprIXsr8internal15get_fixed_valueIT_EE5valueEXsr8internal15get_fixed_valueIT0_EE5valueEE4TypeESD_SE_, symObjAddr: 0x7B54, symBinAddr: 0x10000AD70, symSize: 0xD8 }
  - { offsetInCU: 0x878F9, offset: 0x878F9, size: 0x8, addend: 0x0, symName: __ZN5Eigen10MatrixBaseINS_5BlockINS_3RefINS_6MatrixIdLin1ELin1ELi0ELin1ELin1EEELi0ENS_11OuterStrideILin1EEEEELin1ELin1ELb0EEEE7noaliasEv, symObjAddr: 0x7C2C, symBinAddr: 0x10000AE48, symSize: 0x34 }
  - { offsetInCU: 0x87921, offset: 0x87921, size: 0x8, addend: 0x0, symName: __ZN5Eigen7NoAliasINS_5BlockINS_3RefINS_6MatrixIdLin1ELin1ELi0ELin1ELin1EEELi0ENS_11OuterStrideILin1EEEEELin1ELin1ELb0EEENS_10MatrixBaseEEmIINS_7ProductINS1_INS1_IS7_Lin1ELi1ELb1EEELin1ELi1ELb0EEENS1_INS1_IS7_Li1ELin1ELb0EEELi1ELin1ELb0EEELi0EEEEERS8_RKNS9_IT_EE, symObjAddr: 0x7C60, symBinAddr: 0x10000AE7C, symSize: 0x60 }
  - { offsetInCU: 0x8795E, offset: 0x8795E, size: 0x8, addend: 0x0, symName: __ZN5Eigen9EigenBaseINS_3RefINS_6MatrixIdLin1ELin1ELi0ELin1ELin1EEELi0ENS_11OuterStrideILin1EEEEEE7derivedEv, symObjAddr: 0x7CC0, symBinAddr: 0x10000AEDC, symSize: 0x14 }
  - { offsetInCU: 0x87984, offset: 0x87984, size: 0x8, addend: 0x0, symName: __ZN5Eigen5BlockINS_3RefINS_6MatrixIdLin1ELin1ELi0ELin1ELin1EEELi0ENS_11OuterStrideILin1EEEEELin1ELi1ELb1EEC1ERS6_l, symObjAddr: 0x7CD4, symBinAddr: 0x10000AEF0, symSize: 0x3C }
  - { offsetInCU: 0x879CA, offset: 0x879CA, size: 0x8, addend: 0x0, symName: __ZN5Eigen5BlockINS_3RefINS_6MatrixIdLin1ELin1ELi0ELin1ELin1EEELi0ENS_11OuterStrideILin1EEEEELin1ELi1ELb1EEC2ERS6_l, symObjAddr: 0x7D10, symBinAddr: 0x10000AF2C, symSize: 0xAC }
  - { offsetInCU: 0x87A10, offset: 0x87A10, size: 0x8, addend: 0x0, symName: __ZN5Eigen9BlockImplINS_3RefINS_6MatrixIdLin1ELin1ELi0ELin1ELin1EEELi0ENS_11OuterStrideILin1EEEEELin1ELi1ELb1ENS_5DenseEEC2ERS6_l, symObjAddr: 0x7DBC, symBinAddr: 0x10000AFD8, symSize: 0x3C }
  - { offsetInCU: 0x87A56, offset: 0x87A56, size: 0x8, addend: 0x0, symName: __ZN5Eigen8internal15BlockImpl_denseINS_3RefINS_6MatrixIdLin1ELin1ELi0ELin1ELin1EEELi0ENS_11OuterStrideILin1EEEEELin1ELi1ELb1ELb1EEC2ERS7_l, symObjAddr: 0x7DF8, symBinAddr: 0x10000B014, symSize: 0xAC }
  - { offsetInCU: 0x87A9E, offset: 0x87A9E, size: 0x8, addend: 0x0, symName: __ZN5Eigen7MapBaseINS_3RefINS_6MatrixIdLin1ELin1ELi0ELin1ELin1EEELi0ENS_11OuterStrideILin1EEEEELi1EE4dataEv, symObjAddr: 0x7EA4, symBinAddr: 0x10000B0C0, symSize: 0x18 }
  - { offsetInCU: 0x87AC4, offset: 0x87AC4, size: 0x8, addend: 0x0, symName: __ZNK5Eigen7RefBaseINS_3RefINS_6MatrixIdLin1ELin1ELi0ELin1ELin1EEELi0ENS_11OuterStrideILin1EEEEEE11outerStrideEv, symObjAddr: 0x7EBC, symBinAddr: 0x10000B0D8, symSize: 0x28 }
  - { offsetInCU: 0x87AEA, offset: 0x87AEA, size: 0x8, addend: 0x0, symName: __ZN5Eigen7MapBaseINS_5BlockINS_3RefINS_6MatrixIdLin1ELin1ELi0ELin1ELin1EEELi0ENS_11OuterStrideILin1EEEEELin1ELi1ELb1EEELi1EEC2EPdll, symObjAddr: 0x7EE4, symBinAddr: 0x10000B100, symSize: 0x44 }
  - { offsetInCU: 0x87B41, offset: 0x87B41, size: 0x8, addend: 0x0, symName: __ZN5Eigen8internal15BlockImpl_denseINS_3RefINS_6MatrixIdLin1ELin1ELi0ELin1ELin1EEELi0ENS_11OuterStrideILin1EEEEELin1ELi1ELb1ELb1EE4initEv, symObjAddr: 0x7F28, symBinAddr: 0x10000B144, symSize: 0x34 }
  - { offsetInCU: 0x87B67, offset: 0x87B67, size: 0x8, addend: 0x0, symName: __ZN5Eigen7MapBaseINS_5BlockINS_3RefINS_6MatrixIdLin1ELin1ELi0ELin1ELin1EEELi0ENS_11OuterStrideILin1EEEEELin1ELi1ELb1EEELi0EEC2EPdll, symObjAddr: 0x7F5C, symBinAddr: 0x10000B178, symSize: 0x11C }
  - { offsetInCU: 0x87BBB, offset: 0x87BBB, size: 0x8, addend: 0x0, symName: __ZN5Eigen10MatrixBaseINS_5BlockINS_3RefINS_6MatrixIdLin1ELin1ELi0ELin1ELin1EEELi0ENS_11OuterStrideILin1EEEEELin1ELi1ELb1EEEEC2Ev, symObjAddr: 0x8078, symBinAddr: 0x10000B294, symSize: 0x2C }
  - { offsetInCU: 0x87BE5, offset: 0x87BE5, size: 0x8, addend: 0x0, symName: __ZNK5Eigen7MapBaseINS_5BlockINS_3RefINS_6MatrixIdLin1ELin1ELi0ELin1ELin1EEELi0ENS_11OuterStrideILin1EEEEELin1ELi1ELb1EEELi0EE11checkSanityIS8_EEvNS_8internal9enable_ifIXeqsr8internal6traitsIT_EE9AlignmentLi0EEPvE4typeE, symObjAddr: 0x80A4, symBinAddr: 0x10000B2C0, symSize: 0x14 }
  - { offsetInCU: 0x87C1F, offset: 0x87C1F, size: 0x8, addend: 0x0, symName: __ZN5Eigen9DenseBaseINS_5BlockINS_3RefINS_6MatrixIdLin1ELin1ELi0ELin1ELin1EEELi0ENS_11OuterStrideILin1EEEEELin1ELi1ELb1EEEEC2Ev, symObjAddr: 0x80B8, symBinAddr: 0x10000B2D4, symSize: 0x14 }
  - { offsetInCU: 0x87C49, offset: 0x87C49, size: 0x8, addend: 0x0, symName: __ZN5Eigen9EigenBaseINS_5BlockINS_3RefINS_6MatrixIdLin1ELin1ELi0ELin1ELin1EEELi0ENS_11OuterStrideILin1EEEEELin1ELi1ELb1EEEE7derivedEv, symObjAddr: 0x80CC, symBinAddr: 0x10000B2E8, symSize: 0x14 }
  - { offsetInCU: 0x87C6F, offset: 0x87C6F, size: 0x8, addend: 0x0, symName: __ZNK5Eigen9EigenBaseINS_5BlockINS_3RefINS_6MatrixIdLin1ELin1ELi0ELin1ELin1EEELi0ENS_11OuterStrideILin1EEEEELin1ELi1ELb1EEEE4sizeEv, symObjAddr: 0x80E0, symBinAddr: 0x10000B2FC, symSize: 0x44 }
  - { offsetInCU: 0x87C95, offset: 0x87C95, size: 0x8, addend: 0x0, symName: __ZN5Eigen11VectorBlockINS_5BlockINS_3RefINS_6MatrixIdLin1ELin1ELi0ELin1ELin1EEELi0ENS_11OuterStrideILin1EEEEELin1ELi1ELb1EEELin1EEC1ERS8_ll, symObjAddr: 0x813C, symBinAddr: 0x10000B358, symSize: 0x44 }
  - { offsetInCU: 0x87CE9, offset: 0x87CE9, size: 0x8, addend: 0x0, symName: __ZNK5Eigen9EigenBaseINS_5BlockINS_3RefINS_6MatrixIdLin1ELin1ELi0ELin1ELin1EEELi0ENS_11OuterStrideILin1EEEEELin1ELi1ELb1EEEE4rowsEv, symObjAddr: 0x8180, symBinAddr: 0x10000B39C, symSize: 0x38 }
  - { offsetInCU: 0x87D0F, offset: 0x87D0F, size: 0x8, addend: 0x0, symName: __ZNK5Eigen9EigenBaseINS_5BlockINS_3RefINS_6MatrixIdLin1ELin1ELi0ELin1ELin1EEELi0ENS_11OuterStrideILin1EEEEELin1ELi1ELb1EEEE4colsEv, symObjAddr: 0x81B8, symBinAddr: 0x10000B3D4, symSize: 0x28 }
  - { offsetInCU: 0x87D35, offset: 0x87D35, size: 0x8, addend: 0x0, symName: __ZNK5Eigen9EigenBaseINS_5BlockINS_3RefINS_6MatrixIdLin1ELin1ELi0ELin1ELin1EEELi0ENS_11OuterStrideILin1EEEEELin1ELi1ELb1EEEE7derivedEv, symObjAddr: 0x81E0, symBinAddr: 0x10000B3FC, symSize: 0x14 }
  - { offsetInCU: 0x87D5B, offset: 0x87D5B, size: 0x8, addend: 0x0, symName: __ZNK5Eigen7MapBaseINS_5BlockINS_3RefINS_6MatrixIdLin1ELin1ELi0ELin1ELin1EEELi0ENS_11OuterStrideILin1EEEEELin1ELi1ELb1EEELi0EE4rowsEv, symObjAddr: 0x81F4, symBinAddr: 0x10000B410, symSize: 0x28 }
  - { offsetInCU: 0x87D81, offset: 0x87D81, size: 0x8, addend: 0x0, symName: __ZNK5Eigen7MapBaseINS_5BlockINS_3RefINS_6MatrixIdLin1ELin1ELi0ELin1ELin1EEELi0ENS_11OuterStrideILin1EEEEELin1ELi1ELb1EEELi0EE4colsEv, symObjAddr: 0x821C, symBinAddr: 0x10000B438, symSize: 0x20 }
  - { offsetInCU: 0x87DA7, offset: 0x87DA7, size: 0x8, addend: 0x0, symName: __ZN5Eigen11VectorBlockINS_5BlockINS_3RefINS_6MatrixIdLin1ELin1ELi0ELin1ELin1EEELi0ENS_11OuterStrideILin1EEEEELin1ELi1ELb1EEELin1EEC2ERS8_ll, symObjAddr: 0x823C, symBinAddr: 0x10000B458, symSize: 0x4C }
  - { offsetInCU: 0x87DFB, offset: 0x87DFB, size: 0x8, addend: 0x0, symName: __ZN5Eigen5BlockINS0_INS_3RefINS_6MatrixIdLin1ELin1ELi0ELin1ELin1EEELi0ENS_11OuterStrideILin1EEEEELin1ELi1ELb1EEELin1ELi1ELb0EEC2ERS7_llll, symObjAddr: 0x8288, symBinAddr: 0x10000B4A4, symSize: 0x190 }
  - { offsetInCU: 0x87E6B, offset: 0x87E6B, size: 0x8, addend: 0x0, symName: __ZN5Eigen9BlockImplINS_5BlockINS_3RefINS_6MatrixIdLin1ELin1ELi0ELin1ELin1EEELi0ENS_11OuterStrideILin1EEEEELin1ELi1ELb1EEELin1ELi1ELb0ENS_5DenseEEC2ERS8_llll, symObjAddr: 0x8418, symBinAddr: 0x10000B634, symSize: 0x54 }
  - { offsetInCU: 0x87EDB, offset: 0x87EDB, size: 0x8, addend: 0x0, symName: __ZN5Eigen8internal15BlockImpl_denseINS_5BlockINS_3RefINS_6MatrixIdLin1ELin1ELi0ELin1ELin1EEELi0ENS_11OuterStrideILin1EEEEELin1ELi1ELb1EEELin1ELi1ELb0ELb1EEC2ERS9_llll, symObjAddr: 0x846C, symBinAddr: 0x10000B688, symSize: 0xD0 }
  - { offsetInCU: 0x87F50, offset: 0x87F50, size: 0x8, addend: 0x0, symName: __ZN5Eigen7MapBaseINS_5BlockINS_3RefINS_6MatrixIdLin1ELin1ELi0ELin1ELin1EEELi0ENS_11OuterStrideILin1EEEEELin1ELi1ELb1EEELi1EE4dataEv, symObjAddr: 0x853C, symBinAddr: 0x10000B758, symSize: 0x18 }
  - { offsetInCU: 0x87F76, offset: 0x87F76, size: 0x8, addend: 0x0, symName: __ZNK5Eigen8internal15BlockImpl_denseINS_3RefINS_6MatrixIdLin1ELin1ELi0ELin1ELin1EEELi0ENS_11OuterStrideILin1EEEEELin1ELi1ELb1ELb1EE11innerStrideEv, symObjAddr: 0x8554, symBinAddr: 0x10000B770, symSize: 0x38 }
  - { offsetInCU: 0x87F9C, offset: 0x87F9C, size: 0x8, addend: 0x0, symName: __ZNK5Eigen8internal15BlockImpl_denseINS_3RefINS_6MatrixIdLin1ELin1ELi0ELin1ELin1EEELi0ENS_11OuterStrideILin1EEEEELin1ELi1ELb1ELb1EE11outerStrideEv, symObjAddr: 0x858C, symBinAddr: 0x10000B7A8, symSize: 0x28 }
  - { offsetInCU: 0x87FC2, offset: 0x87FC2, size: 0x8, addend: 0x0, symName: __ZN5Eigen7MapBaseINS_5BlockINS1_INS_3RefINS_6MatrixIdLin1ELin1ELi0ELin1ELin1EEELi0ENS_11OuterStrideILin1EEEEELin1ELi1ELb1EEELin1ELi1ELb0EEELi1EEC2EPdll, symObjAddr: 0x85B4, symBinAddr: 0x10000B7D0, symSize: 0x44 }
  - { offsetInCU: 0x88019, offset: 0x88019, size: 0x8, addend: 0x0, symName: __ZN5Eigen8internal15BlockImpl_denseINS_5BlockINS_3RefINS_6MatrixIdLin1ELin1ELi0ELin1ELin1EEELi0ENS_11OuterStrideILin1EEEEELin1ELi1ELb1EEELin1ELi1ELb0ELb1EE4initEv, symObjAddr: 0x85F8, symBinAddr: 0x10000B814, symSize: 0x34 }
  - { offsetInCU: 0x8803F, offset: 0x8803F, size: 0x8, addend: 0x0, symName: __ZNK5Eigen7RefBaseINS_3RefINS_6MatrixIdLin1ELin1ELi0ELin1ELin1EEELi0ENS_11OuterStrideILin1EEEEEE11innerStrideEv, symObjAddr: 0x862C, symBinAddr: 0x10000B848, symSize: 0x14 }
  - { offsetInCU: 0x88065, offset: 0x88065, size: 0x8, addend: 0x0, symName: __ZN5Eigen7MapBaseINS_5BlockINS1_INS_3RefINS_6MatrixIdLin1ELin1ELi0ELin1ELin1EEELi0ENS_11OuterStrideILin1EEEEELin1ELi1ELb1EEELin1ELi1ELb0EEELi0EEC2EPdll, symObjAddr: 0x8640, symBinAddr: 0x10000B85C, symSize: 0x11C }
  - { offsetInCU: 0x880B9, offset: 0x880B9, size: 0x8, addend: 0x0, symName: __ZN5Eigen10MatrixBaseINS_5BlockINS1_INS_3RefINS_6MatrixIdLin1ELin1ELi0ELin1ELin1EEELi0ENS_11OuterStrideILin1EEEEELin1ELi1ELb1EEELin1ELi1ELb0EEEEC2Ev, symObjAddr: 0x875C, symBinAddr: 0x10000B978, symSize: 0x2C }
  - { offsetInCU: 0x880E3, offset: 0x880E3, size: 0x8, addend: 0x0, symName: __ZNK5Eigen7MapBaseINS_5BlockINS1_INS_3RefINS_6MatrixIdLin1ELin1ELi0ELin1ELin1EEELi0ENS_11OuterStrideILin1EEEEELin1ELi1ELb1EEELin1ELi1ELb0EEELi0EE11checkSanityIS9_EEvNS_8internal9enable_ifIXeqsr8internal6traitsIT_EE9AlignmentLi0EEPvE4typeE, symObjAddr: 0x8788, symBinAddr: 0x10000B9A4, symSize: 0x14 }
  - { offsetInCU: 0x8811D, offset: 0x8811D, size: 0x8, addend: 0x0, symName: __ZN5Eigen9DenseBaseINS_5BlockINS1_INS_3RefINS_6MatrixIdLin1ELin1ELi0ELin1ELin1EEELi0ENS_11OuterStrideILin1EEEEELin1ELi1ELb1EEELin1ELi1ELb0EEEEC2Ev, symObjAddr: 0x879C, symBinAddr: 0x10000B9B8, symSize: 0x14 }
  - { offsetInCU: 0x88147, offset: 0x88147, size: 0x8, addend: 0x0, symName: __ZNK5Eigen9EigenBaseINS_5BlockINS1_INS_3RefINS_6MatrixIdLin1ELin1ELi0ELin1ELin1EEELi0ENS_11OuterStrideILin1EEEEELin1ELi1ELb1EEELin1ELi1ELb0EEEE7derivedEv, symObjAddr: 0x87B0, symBinAddr: 0x10000B9CC, symSize: 0x14 }
  - { offsetInCU: 0x8816D, offset: 0x8816D, size: 0x8, addend: 0x0, symName: __ZN5Eigen12CwiseUnaryOpINS_8internal21scalar_score_coeff_opIdEEKNS_5BlockINS4_INS_3RefINS_6MatrixIdLin1ELin1ELi0ELin1ELin1EEELi0ENS_11OuterStrideILin1EEEEELin1ELi1ELb1EEELin1ELi1ELb0EEEEC1ERSD_RKS3_, symObjAddr: 0x87C4, symBinAddr: 0x10000B9E0, symSize: 0x3C }
  - { offsetInCU: 0x881B3, offset: 0x881B3, size: 0x8, addend: 0x0, symName: __ZN5Eigen12CwiseUnaryOpINS_8internal21scalar_score_coeff_opIdEEKNS_5BlockINS4_INS_3RefINS_6MatrixIdLin1ELin1ELi0ELin1ELin1EEELi0ENS_11OuterStrideILin1EEEEELin1ELi1ELb1EEELin1ELi1ELb0EEEEC2ERSD_RKS3_, symObjAddr: 0x8800, symBinAddr: 0x10000BA1C, symSize: 0x54 }
  - { offsetInCU: 0x881FE, offset: 0x881FE, size: 0x8, addend: 0x0, symName: __ZN5Eigen16CwiseUnaryOpImplINS_8internal21scalar_score_coeff_opIdEEKNS_5BlockINS4_INS_3RefINS_6MatrixIdLin1ELin1ELi0ELin1ELin1EEELi0ENS_11OuterStrideILin1EEEEELin1ELi1ELb1EEELin1ELi1ELb0EEENS_5DenseEEC2Ev, symObjAddr: 0x8854, symBinAddr: 0x10000BA70, symSize: 0x2C }
  - { offsetInCU: 0x8822A, offset: 0x8822A, size: 0x8, addend: 0x0, symName: __ZN5Eigen8internal21scalar_score_coeff_opIdEC1ERKS2_, symObjAddr: 0x8880, symBinAddr: 0x10000BA9C, symSize: 0x34 }
  - { offsetInCU: 0x8825F, offset: 0x8825F, size: 0x8, addend: 0x0, symName: __ZN5Eigen10MatrixBaseINS_12CwiseUnaryOpINS_8internal21scalar_score_coeff_opIdEEKNS_5BlockINS5_INS_3RefINS_6MatrixIdLin1ELin1ELi0ELin1ELin1EEELi0ENS_11OuterStrideILin1EEEEELin1ELi1ELb1EEELin1ELi1ELb0EEEEEEC2Ev, symObjAddr: 0x88B4, symBinAddr: 0x10000BAD0, symSize: 0x2C }
  - { offsetInCU: 0x88289, offset: 0x88289, size: 0x8, addend: 0x0, symName: __ZN5Eigen9DenseBaseINS_12CwiseUnaryOpINS_8internal21scalar_score_coeff_opIdEEKNS_5BlockINS5_INS_3RefINS_6MatrixIdLin1ELin1ELi0ELin1ELin1EEELi0ENS_11OuterStrideILin1EEEEELin1ELi1ELb1EEELin1ELi1ELb0EEEEEEC2Ev, symObjAddr: 0x88E0, symBinAddr: 0x10000BAFC, symSize: 0x14 }
  - { offsetInCU: 0x882B3, offset: 0x882B3, size: 0x8, addend: 0x0, symName: __ZN5Eigen8internal21scalar_score_coeff_opIdEC2ERKS2_, symObjAddr: 0x88F4, symBinAddr: 0x10000BB10, symSize: 0x34 }
  - { offsetInCU: 0x882E8, offset: 0x882E8, size: 0x8, addend: 0x0, symName: __ZN5Eigen8internal21scalar_score_coeff_opIdEC2Ev, symObjAddr: 0x8928, symBinAddr: 0x10000BB44, symSize: 0x2C }
  - { offsetInCU: 0x88314, offset: 0x88314, size: 0x8, addend: 0x0, symName: __ZNK5Eigen9DenseBaseINS_12CwiseUnaryOpINS_8internal21scalar_score_coeff_opIdEEKNS_5BlockINS5_INS_3RefINS_6MatrixIdLin1ELin1ELi0ELin1ELin1EEELi0ENS_11OuterStrideILin1EEEEELin1ELi1ELb1EEELin1ELi1ELb0EEEEEE8maxCoeffILi0ElEEdPT0_, symObjAddr: 0x8954, symBinAddr: 0x10000BB70, symSize: 0xC8 }
  - { offsetInCU: 0x8836E, offset: 0x8836E, size: 0x8, addend: 0x0, symName: __ZNK5Eigen9EigenBaseINS_12CwiseUnaryOpINS_8internal21scalar_score_coeff_opIdEEKNS_5BlockINS5_INS_3RefINS_6MatrixIdLin1ELin1ELi0ELin1ELin1EEELi0ENS_11OuterStrideILin1EEEEELin1ELi1ELb1EEELin1ELi1ELb0EEEEEE4rowsEv, symObjAddr: 0x8A1C, symBinAddr: 0x10000BC38, symSize: 0x38 }
  - { offsetInCU: 0x88394, offset: 0x88394, size: 0x8, addend: 0x0, symName: __ZNK5Eigen9EigenBaseINS_12CwiseUnaryOpINS_8internal21scalar_score_coeff_opIdEEKNS_5BlockINS5_INS_3RefINS_6MatrixIdLin1ELin1ELi0ELin1ELin1EEELi0ENS_11OuterStrideILin1EEEEELin1ELi1ELb1EEELin1ELi1ELb0EEEEEE4colsEv, symObjAddr: 0x8A54, symBinAddr: 0x10000BC70, symSize: 0x28 }
  - { offsetInCU: 0x883D8, offset: 0x883D8, size: 0x8, addend: 0x0, symName: __ZN5Eigen8internal17max_coeff_visitorINS_12CwiseUnaryOpINS0_21scalar_score_coeff_opIdEEKNS_5BlockINS5_INS_3RefINS_6MatrixIdLin1ELin1ELi0ELin1ELin1EEELi0ENS_11OuterStrideILin1EEEEELin1ELi1ELb1EEELin1ELi1ELb0EEEEELi0EEC1Ev, symObjAddr: 0x8A7C, symBinAddr: 0x10000BC98, symSize: 0x2C }
  - { offsetInCU: 0x88409, offset: 0x88409, size: 0x8, addend: 0x0, symName: __ZNK5Eigen9DenseBaseINS_12CwiseUnaryOpINS_8internal21scalar_score_coeff_opIdEEKNS_5BlockINS5_INS_3RefINS_6MatrixIdLin1ELin1ELi0ELin1ELin1EEELi0ENS_11OuterStrideILin1EEEEELin1ELi1ELb1EEELin1ELi1ELb0EEEEEE5visitINS2_17max_coeff_visitorISF_Li0EEEEEvRT_, symObjAddr: 0x8AA8, symBinAddr: 0x10000BCC4, symSize: 0x94 }
  - { offsetInCU: 0x88462, offset: 0x88462, size: 0x8, addend: 0x0, symName: __ZNK5Eigen9EigenBaseINS_12CwiseUnaryOpINS_8internal21scalar_score_coeff_opIdEEKNS_5BlockINS5_INS_3RefINS_6MatrixIdLin1ELin1ELi0ELin1ELin1EEELi0ENS_11OuterStrideILin1EEEEELin1ELi1ELb1EEELin1ELi1ELb0EEEEEE7derivedEv, symObjAddr: 0x8B3C, symBinAddr: 0x10000BD58, symSize: 0x14 }
  - { offsetInCU: 0x88488, offset: 0x88488, size: 0x8, addend: 0x0, symName: __ZNK5Eigen12CwiseUnaryOpINS_8internal21scalar_score_coeff_opIdEEKNS_5BlockINS4_INS_3RefINS_6MatrixIdLin1ELin1ELi0ELin1ELin1EEELi0ENS_11OuterStrideILin1EEEEELin1ELi1ELb1EEELin1ELi1ELb0EEEE4rowsEv, symObjAddr: 0x8B50, symBinAddr: 0x10000BD6C, symSize: 0x24 }
  - { offsetInCU: 0x884AE, offset: 0x884AE, size: 0x8, addend: 0x0, symName: __ZNK5Eigen7MapBaseINS_5BlockINS1_INS_3RefINS_6MatrixIdLin1ELin1ELi0ELin1ELin1EEELi0ENS_11OuterStrideILin1EEEEELin1ELi1ELb1EEELin1ELi1ELb0EEELi0EE4rowsEv, symObjAddr: 0x8B74, symBinAddr: 0x10000BD90, symSize: 0x28 }
  - { offsetInCU: 0x884D4, offset: 0x884D4, size: 0x8, addend: 0x0, symName: __ZNK5Eigen12CwiseUnaryOpINS_8internal21scalar_score_coeff_opIdEEKNS_5BlockINS4_INS_3RefINS_6MatrixIdLin1ELin1ELi0ELin1ELin1EEELi0ENS_11OuterStrideILin1EEEEELin1ELi1ELb1EEELin1ELi1ELb0EEEE4colsEv, symObjAddr: 0x8B9C, symBinAddr: 0x10000BDB8, symSize: 0x24 }
  - { offsetInCU: 0x884FA, offset: 0x884FA, size: 0x8, addend: 0x0, symName: __ZNK5Eigen7MapBaseINS_5BlockINS1_INS_3RefINS_6MatrixIdLin1ELin1ELi0ELin1ELin1EEELi0ENS_11OuterStrideILin1EEEEELin1ELi1ELb1EEELin1ELi1ELb0EEELi0EE4colsEv, symObjAddr: 0x8BC0, symBinAddr: 0x10000BDDC, symSize: 0x20 }
  - { offsetInCU: 0x88520, offset: 0x88520, size: 0x8, addend: 0x0, symName: __ZN5Eigen8internal17max_coeff_visitorINS_12CwiseUnaryOpINS0_21scalar_score_coeff_opIdEEKNS_5BlockINS5_INS_3RefINS_6MatrixIdLin1ELin1ELi0ELin1ELin1EEELi0ENS_11OuterStrideILin1EEEEELin1ELi1ELb1EEELin1ELi1ELb0EEEEELi0EEC2Ev, symObjAddr: 0x8BE0, symBinAddr: 0x10000BDFC, symSize: 0x2C }
  - { offsetInCU: 0x8854C, offset: 0x8854C, size: 0x8, addend: 0x0, symName: __ZN5Eigen8internal13coeff_visitorINS_12CwiseUnaryOpINS0_21scalar_score_coeff_opIdEEKNS_5BlockINS5_INS_3RefINS_6MatrixIdLin1ELin1ELi0ELin1ELin1EEELi0ENS_11OuterStrideILin1EEEEELin1ELi1ELb1EEELin1ELi1ELb0EEEEEEC2Ev, symObjAddr: 0x8C0C, symBinAddr: 0x10000BE28, symSize: 0x28 }
  - { offsetInCU: 0x88576, offset: 0x88576, size: 0x8, addend: 0x0, symName: __ZNK5Eigen9EigenBaseINS_12CwiseUnaryOpINS_8internal21scalar_score_coeff_opIdEEKNS_5BlockINS5_INS_3RefINS_6MatrixIdLin1ELin1ELi0ELin1ELin1EEELi0ENS_11OuterStrideILin1EEEEELin1ELi1ELb1EEELin1ELi1ELb0EEEEEE4sizeEv, symObjAddr: 0x8C34, symBinAddr: 0x10000BE50, symSize: 0x44 }
  - { offsetInCU: 0x885E7, offset: 0x885E7, size: 0x8, addend: 0x0, symName: __ZN5Eigen8internal17visitor_evaluatorINS_12CwiseUnaryOpINS0_21scalar_score_coeff_opIdEEKNS_5BlockINS5_INS_3RefINS_6MatrixIdLin1ELin1ELi0ELin1ELin1EEELi0ENS_11OuterStrideILin1EEEEELin1ELi1ELb1EEELin1ELi1ELb0EEEEEEC1ERKSF_, symObjAddr: 0x8C78, symBinAddr: 0x10000BE94, symSize: 0x34 }
  - { offsetInCU: 0x88624, offset: 0x88624, size: 0x8, addend: 0x0, symName: __ZN5Eigen8internal12visitor_implINS0_17max_coeff_visitorINS_12CwiseUnaryOpINS0_21scalar_score_coeff_opIdEEKNS_5BlockINS6_INS_3RefINS_6MatrixIdLin1ELin1ELi0ELin1ELin1EEELi0ENS_11OuterStrideILin1EEEEELin1ELi1ELb1EEELin1ELi1ELb0EEEEELi0EEENS0_17visitor_evaluatorISG_EELin1EE3runERKSJ_RSH_, symObjAddr: 0x8CAC, symBinAddr: 0x10000BEC8, symSize: 0x180 }
  - { offsetInCU: 0x886A9, offset: 0x886A9, size: 0x8, addend: 0x0, symName: __ZN5Eigen8internal17visitor_evaluatorINS_12CwiseUnaryOpINS0_21scalar_score_coeff_opIdEEKNS_5BlockINS5_INS_3RefINS_6MatrixIdLin1ELin1ELi0ELin1ELin1EEELi0ENS_11OuterStrideILin1EEEEELin1ELi1ELb1EEELin1ELi1ELb0EEEEEED1Ev, symObjAddr: 0x8E2C, symBinAddr: 0x10000C048, symSize: 0x2C }
  - { offsetInCU: 0x886D5, offset: 0x886D5, size: 0x8, addend: 0x0, symName: __ZN5Eigen8internal17visitor_evaluatorINS_12CwiseUnaryOpINS0_21scalar_score_coeff_opIdEEKNS_5BlockINS5_INS_3RefINS_6MatrixIdLin1ELin1ELi0ELin1ELin1EEELi0ENS_11OuterStrideILin1EEEEELin1ELi1ELb1EEELin1ELi1ELb0EEEEEEC2ERKSF_, symObjAddr: 0x8E58, symBinAddr: 0x10000C074, symSize: 0x3C }
  - { offsetInCU: 0x8870D, offset: 0x8870D, size: 0x8, addend: 0x0, symName: __ZN5Eigen8internal9evaluatorINS_12CwiseUnaryOpINS0_21scalar_score_coeff_opIdEEKNS_5BlockINS5_INS_3RefINS_6MatrixIdLin1ELin1ELi0ELin1ELin1EEELi0ENS_11OuterStrideILin1EEEEELin1ELi1ELb1EEELin1ELi1ELb0EEEEEEC1ERKSF_, symObjAddr: 0x8E94, symBinAddr: 0x10000C0B0, symSize: 0x34 }
  - { offsetInCU: 0x88745, offset: 0x88745, size: 0x8, addend: 0x0, symName: __ZN5Eigen8internal9evaluatorINS_12CwiseUnaryOpINS0_21scalar_score_coeff_opIdEEKNS_5BlockINS5_INS_3RefINS_6MatrixIdLin1ELin1ELi0ELin1ELin1EEELi0ENS_11OuterStrideILin1EEEEELin1ELi1ELb1EEELin1ELi1ELb0EEEEEEC2ERKSF_, symObjAddr: 0x8EC8, symBinAddr: 0x10000C0E4, symSize: 0x34 }
  - { offsetInCU: 0x8877D, offset: 0x8877D, size: 0x8, addend: 0x0, symName: __ZN5Eigen8internal15unary_evaluatorINS_12CwiseUnaryOpINS0_21scalar_score_coeff_opIdEEKNS_5BlockINS5_INS_3RefINS_6MatrixIdLin1ELin1ELi0ELin1ELin1EEELi0ENS_11OuterStrideILin1EEEEELin1ELi1ELb1EEELin1ELi1ELb0EEEEENS0_10IndexBasedEdEC2ERKSF_, symObjAddr: 0x8EFC, symBinAddr: 0x10000C118, symSize: 0x64 }
  - { offsetInCU: 0x887B6, offset: 0x887B6, size: 0x8, addend: 0x0, symName: __ZN5Eigen8internal14evaluator_baseINS_12CwiseUnaryOpINS0_21scalar_score_coeff_opIdEEKNS_5BlockINS5_INS_3RefINS_6MatrixIdLin1ELin1ELi0ELin1ELin1EEELi0ENS_11OuterStrideILin1EEEEELin1ELi1ELb1EEELin1ELi1ELb0EEEEEEC2Ev, symObjAddr: 0x8F60, symBinAddr: 0x10000C17C, symSize: 0x14 }
  - { offsetInCU: 0x887E0, offset: 0x887E0, size: 0x8, addend: 0x0, symName: __ZN5Eigen8internal15unary_evaluatorINS_12CwiseUnaryOpINS0_21scalar_score_coeff_opIdEEKNS_5BlockINS5_INS_3RefINS_6MatrixIdLin1ELin1ELi0ELin1ELin1EEELi0ENS_11OuterStrideILin1EEEEELin1ELi1ELb1EEELin1ELi1ELb0EEEEENS0_10IndexBasedEdE4DataC1ERKSF_, symObjAddr: 0x8F74, symBinAddr: 0x10000C190, symSize: 0x34 }
  - { offsetInCU: 0x88819, offset: 0x88819, size: 0x8, addend: 0x0, symName: __ZN5Eigen8internal14evaluator_baseINS_12CwiseUnaryOpINS0_21scalar_score_coeff_opIdEEKNS_5BlockINS5_INS_3RefINS_6MatrixIdLin1ELin1ELi0ELin1ELin1EEELi0ENS_11OuterStrideILin1EEEEELin1ELi1ELb1EEELin1ELi1ELb0EEEEEED2Ev, symObjAddr: 0x8FA8, symBinAddr: 0x10000C1C4, symSize: 0x14 }
  - { offsetInCU: 0x88843, offset: 0x88843, size: 0x8, addend: 0x0, symName: __ZN5Eigen8internal15unary_evaluatorINS_12CwiseUnaryOpINS0_21scalar_score_coeff_opIdEEKNS_5BlockINS5_INS_3RefINS_6MatrixIdLin1ELin1ELi0ELin1ELin1EEELi0ENS_11OuterStrideILin1EEEEELin1ELi1ELb1EEELin1ELi1ELb0EEEEENS0_10IndexBasedEdE4DataC2ERKSF_, symObjAddr: 0x8FBC, symBinAddr: 0x10000C1D8, symSize: 0x58 }
  - { offsetInCU: 0x8887C, offset: 0x8887C, size: 0x8, addend: 0x0, symName: __ZNK5Eigen12CwiseUnaryOpINS_8internal21scalar_score_coeff_opIdEEKNS_5BlockINS4_INS_3RefINS_6MatrixIdLin1ELin1ELi0ELin1ELin1EEELi0ENS_11OuterStrideILin1EEEEELin1ELi1ELb1EEELin1ELi1ELb0EEEE7functorEv, symObjAddr: 0x9014, symBinAddr: 0x10000C230, symSize: 0x18 }
  - { offsetInCU: 0x888A2, offset: 0x888A2, size: 0x8, addend: 0x0, symName: __ZNK5Eigen12CwiseUnaryOpINS_8internal21scalar_score_coeff_opIdEEKNS_5BlockINS4_INS_3RefINS_6MatrixIdLin1ELin1ELi0ELin1ELin1EEELi0ENS_11OuterStrideILin1EEEEELin1ELi1ELb1EEELin1ELi1ELb0EEEE16nestedExpressionEv, symObjAddr: 0x902C, symBinAddr: 0x10000C248, symSize: 0x14 }
  - { offsetInCU: 0x888C8, offset: 0x888C8, size: 0x8, addend: 0x0, symName: __ZN5Eigen8internal9evaluatorIKNS_5BlockINS2_INS_3RefINS_6MatrixIdLin1ELin1ELi0ELin1ELin1EEELi0ENS_11OuterStrideILin1EEEEELin1ELi1ELb1EEELin1ELi1ELb0EEEEC1ERSB_, symObjAddr: 0x9040, symBinAddr: 0x10000C25C, symSize: 0x34 }
  - { offsetInCU: 0x88900, offset: 0x88900, size: 0x8, addend: 0x0, symName: __ZN5Eigen8internal9evaluatorIKNS_5BlockINS2_INS_3RefINS_6MatrixIdLin1ELin1ELi0ELin1ELin1EEELi0ENS_11OuterStrideILin1EEEEELin1ELi1ELb1EEELin1ELi1ELb0EEEEC2ERSB_, symObjAddr: 0x9074, symBinAddr: 0x10000C290, symSize: 0x34 }
  - { offsetInCU: 0x88938, offset: 0x88938, size: 0x8, addend: 0x0, symName: __ZN5Eigen8internal9evaluatorINS_5BlockINS2_INS_3RefINS_6MatrixIdLin1ELin1ELi0ELin1ELin1EEELi0ENS_11OuterStrideILin1EEEEELin1ELi1ELb1EEELin1ELi1ELb0EEEEC2ERKSA_, symObjAddr: 0x90A8, symBinAddr: 0x10000C2C4, symSize: 0x34 }
  - { offsetInCU: 0x88971, offset: 0x88971, size: 0x8, addend: 0x0, symName: __ZN5Eigen8internal15block_evaluatorINS_5BlockINS_3RefINS_6MatrixIdLin1ELin1ELi0ELin1ELin1EEELi0ENS_11OuterStrideILin1EEEEELin1ELi1ELb1EEELin1ELi1ELb0ELb1EEC2ERKNS2_IS9_Lin1ELi1ELb0EEE, symObjAddr: 0x90DC, symBinAddr: 0x10000C2F8, symSize: 0xDC }
  - { offsetInCU: 0x889AA, offset: 0x889AA, size: 0x8, addend: 0x0, symName: __ZN5Eigen8internal17mapbase_evaluatorINS_5BlockINS2_INS_3RefINS_6MatrixIdLin1ELin1ELi0ELin1ELin1EEELi0ENS_11OuterStrideILin1EEEEELin1ELi1ELb1EEELin1ELi1ELb0EEENS4_IdLin1ELi1ELi0ELin1ELi1EEEEC2ERKSA_, symObjAddr: 0x91B8, symBinAddr: 0x10000C3D4, symSize: 0xB0 }
  - { offsetInCU: 0x889E3, offset: 0x889E3, size: 0x8, addend: 0x0, symName: __ZNK5Eigen7MapBaseINS_5BlockINS1_INS_3RefINS_6MatrixIdLin1ELin1ELi0ELin1ELin1EEELi0ENS_11OuterStrideILin1EEEEELin1ELi1ELb1EEELin1ELi1ELb0EEELi1EE4dataEv, symObjAddr: 0x9268, symBinAddr: 0x10000C484, symSize: 0x18 }
  - { offsetInCU: 0x88A09, offset: 0x88A09, size: 0x8, addend: 0x0, symName: __ZN5Eigen8internal17mapbase_evaluatorINS_5BlockINS2_INS_3RefINS_6MatrixIdLin1ELin1ELi0ELin1ELin1EEELi0ENS_11OuterStrideILin1EEEEELin1ELi1ELb1EEELin1ELi1ELb0EEENS4_IdLin1ELi1ELi0ELin1ELi1EEEED2Ev, symObjAddr: 0x9280, symBinAddr: 0x10000C49C, symSize: 0x2C }
  - { offsetInCU: 0x88A36, offset: 0x88A36, size: 0x8, addend: 0x0, symName: __ZN5Eigen8internal14evaluator_baseINS_5BlockINS2_INS_3RefINS_6MatrixIdLin1ELin1ELi0ELin1ELin1EEELi0ENS_11OuterStrideILin1EEEEELin1ELi1ELb1EEELin1ELi1ELb0EEEEC2Ev, symObjAddr: 0x92AC, symBinAddr: 0x10000C4C8, symSize: 0x14 }
  - { offsetInCU: 0x88A60, offset: 0x88A60, size: 0x8, addend: 0x0, symName: __ZNK5Eigen8internal15BlockImpl_denseINS_5BlockINS_3RefINS_6MatrixIdLin1ELin1ELi0ELin1ELin1EEELi0ENS_11OuterStrideILin1EEEEELin1ELi1ELb1EEELin1ELi1ELb0ELb1EE11innerStrideEv, symObjAddr: 0x92C0, symBinAddr: 0x10000C4DC, symSize: 0x28 }
  - { offsetInCU: 0x88A86, offset: 0x88A86, size: 0x8, addend: 0x0, symName: __ZNK5Eigen8internal15BlockImpl_denseINS_5BlockINS_3RefINS_6MatrixIdLin1ELin1ELi0ELin1ELin1EEELi0ENS_11OuterStrideILin1EEEEELin1ELi1ELb1EEELin1ELi1ELb0ELb1EE11outerStrideEv, symObjAddr: 0x92E8, symBinAddr: 0x10000C504, symSize: 0x28 }
  - { offsetInCU: 0x88AAC, offset: 0x88AAC, size: 0x8, addend: 0x0, symName: __ZN5Eigen8internal14evaluator_baseINS_5BlockINS2_INS_3RefINS_6MatrixIdLin1ELin1ELi0ELin1ELin1EEELi0ENS_11OuterStrideILin1EEEEELin1ELi1ELb1EEELin1ELi1ELb0EEEED2Ev, symObjAddr: 0x9310, symBinAddr: 0x10000C52C, symSize: 0x14 }
  - { offsetInCU: 0x88AD6, offset: 0x88AD6, size: 0x8, addend: 0x0, symName: __ZN5Eigen8internal13coeff_visitorINS_12CwiseUnaryOpINS0_21scalar_score_coeff_opIdEEKNS_5BlockINS5_INS_3RefINS_6MatrixIdLin1ELin1ELi0ELin1ELin1EEELi0ENS_11OuterStrideILin1EEEEELin1ELi1ELb1EEELin1ELi1ELb0EEEEEE4initERKdll, symObjAddr: 0x9324, symBinAddr: 0x10000C540, symSize: 0x3C }
  - { offsetInCU: 0x88B26, offset: 0x88B26, size: 0x8, addend: 0x0, symName: __ZNK5Eigen8internal17visitor_evaluatorINS_12CwiseUnaryOpINS0_21scalar_score_coeff_opIdEEKNS_5BlockINS5_INS_3RefINS_6MatrixIdLin1ELin1ELi0ELin1ELin1EEELi0ENS_11OuterStrideILin1EEEEELin1ELi1ELb1EEELin1ELi1ELb0EEEEEE5coeffEll, symObjAddr: 0x9360, symBinAddr: 0x10000C57C, symSize: 0x34 }
  - { offsetInCU: 0x88B68, offset: 0x88B68, size: 0x8, addend: 0x0, symName: __ZNK5Eigen8internal17visitor_evaluatorINS_12CwiseUnaryOpINS0_21scalar_score_coeff_opIdEEKNS_5BlockINS5_INS_3RefINS_6MatrixIdLin1ELin1ELi0ELin1ELin1EEELi0ENS_11OuterStrideILin1EEEEELin1ELi1ELb1EEELin1ELi1ELb0EEEEEE4rowsEv, symObjAddr: 0x9394, symBinAddr: 0x10000C5B0, symSize: 0x28 }
  - { offsetInCU: 0x88B8E, offset: 0x88B8E, size: 0x8, addend: 0x0, symName: __ZN5Eigen8internal17max_coeff_visitorINS_12CwiseUnaryOpINS0_21scalar_score_coeff_opIdEEKNS_5BlockINS5_INS_3RefINS_6MatrixIdLin1ELin1ELi0ELin1ELin1EEELi0ENS_11OuterStrideILin1EEEEELin1ELi1ELb1EEELin1ELi1ELb0EEEEELi0EEclERKdll, symObjAddr: 0x93BC, symBinAddr: 0x10000C5D8, symSize: 0x64 }
  - { offsetInCU: 0x88BDE, offset: 0x88BDE, size: 0x8, addend: 0x0, symName: __ZNK5Eigen8internal17visitor_evaluatorINS_12CwiseUnaryOpINS0_21scalar_score_coeff_opIdEEKNS_5BlockINS5_INS_3RefINS_6MatrixIdLin1ELin1ELi0ELin1ELin1EEELi0ENS_11OuterStrideILin1EEEEELin1ELi1ELb1EEELin1ELi1ELb0EEEEEE4colsEv, symObjAddr: 0x9420, symBinAddr: 0x10000C63C, symSize: 0x28 }
  - { offsetInCU: 0x88C04, offset: 0x88C04, size: 0x8, addend: 0x0, symName: __ZNK5Eigen8internal15unary_evaluatorINS_12CwiseUnaryOpINS0_21scalar_score_coeff_opIdEEKNS_5BlockINS5_INS_3RefINS_6MatrixIdLin1ELin1ELi0ELin1ELin1EEELi0ENS_11OuterStrideILin1EEEEELin1ELi1ELb1EEELin1ELi1ELb0EEEEENS0_10IndexBasedEdE5coeffEll, symObjAddr: 0x9448, symBinAddr: 0x10000C664, symSize: 0x54 }
  - { offsetInCU: 0x88C48, offset: 0x88C48, size: 0x8, addend: 0x0, symName: __ZNK5Eigen8internal15unary_evaluatorINS_12CwiseUnaryOpINS0_21scalar_score_coeff_opIdEEKNS_5BlockINS5_INS_3RefINS_6MatrixIdLin1ELin1ELi0ELin1ELin1EEELi0ENS_11OuterStrideILin1EEEEELin1ELi1ELb1EEELin1ELi1ELb0EEEEENS0_10IndexBasedEdE4Data4funcEv, symObjAddr: 0x949C, symBinAddr: 0x10000C6B8, symSize: 0x14 }
  - { offsetInCU: 0x88C6E, offset: 0x88C6E, size: 0x8, addend: 0x0, symName: __ZNK5Eigen8internal17mapbase_evaluatorINS_5BlockINS2_INS_3RefINS_6MatrixIdLin1ELin1ELi0ELin1ELin1EEELi0ENS_11OuterStrideILin1EEEEELin1ELi1ELb1EEELin1ELi1ELb0EEENS4_IdLin1ELi1ELi0ELin1ELi1EEEE5coeffEll, symObjAddr: 0x94B0, symBinAddr: 0x10000C6CC, symSize: 0x78 }
  - { offsetInCU: 0x88CB2, offset: 0x88CB2, size: 0x8, addend: 0x0, symName: __ZNK5Eigen8internal17mapbase_evaluatorINS_5BlockINS2_INS_3RefINS_6MatrixIdLin1ELin1ELi0ELin1ELin1EEELi0ENS_11OuterStrideILin1EEEEELin1ELi1ELb1EEELin1ELi1ELb0EEENS4_IdLin1ELi1ELi0ELin1ELi1EEEE9colStrideEv, symObjAddr: 0x9528, symBinAddr: 0x10000C744, symSize: 0x28 }
  - { offsetInCU: 0x88CD8, offset: 0x88CD8, size: 0x8, addend: 0x0, symName: __ZNK5Eigen8internal17mapbase_evaluatorINS_5BlockINS2_INS_3RefINS_6MatrixIdLin1ELin1ELi0ELin1ELin1EEELi0ENS_11OuterStrideILin1EEEEELin1ELi1ELb1EEELin1ELi1ELb0EEENS4_IdLin1ELi1ELi0ELin1ELi1EEEE9rowStrideEv, symObjAddr: 0x9550, symBinAddr: 0x10000C76C, symSize: 0x20 }
  - { offsetInCU: 0x88CFE, offset: 0x88CFE, size: 0x8, addend: 0x0, symName: __ZN5Eigen8internal17visitor_evaluatorINS_12CwiseUnaryOpINS0_21scalar_score_coeff_opIdEEKNS_5BlockINS5_INS_3RefINS_6MatrixIdLin1ELin1ELi0ELin1ELin1EEELi0ENS_11OuterStrideILin1EEEEELin1ELi1ELb1EEELin1ELi1ELb0EEEEEED2Ev, symObjAddr: 0x9570, symBinAddr: 0x10000C78C, symSize: 0x2C }
  - { offsetInCU: 0x88D2A, offset: 0x88D2A, size: 0x8, addend: 0x0, symName: __ZN5Eigen8internal9evaluatorINS_12CwiseUnaryOpINS0_21scalar_score_coeff_opIdEEKNS_5BlockINS5_INS_3RefINS_6MatrixIdLin1ELin1ELi0ELin1ELin1EEELi0ENS_11OuterStrideILin1EEEEELin1ELi1ELb1EEELin1ELi1ELb0EEEEEED1Ev, symObjAddr: 0x959C, symBinAddr: 0x10000C7B8, symSize: 0x2C }
  - { offsetInCU: 0x88D56, offset: 0x88D56, size: 0x8, addend: 0x0, symName: __ZN5Eigen8internal9evaluatorINS_12CwiseUnaryOpINS0_21scalar_score_coeff_opIdEEKNS_5BlockINS5_INS_3RefINS_6MatrixIdLin1ELin1ELi0ELin1ELin1EEELi0ENS_11OuterStrideILin1EEEEELin1ELi1ELb1EEELin1ELi1ELb0EEEEEED2Ev, symObjAddr: 0x95C8, symBinAddr: 0x10000C7E4, symSize: 0x2C }
  - { offsetInCU: 0x88D82, offset: 0x88D82, size: 0x8, addend: 0x0, symName: __ZN5Eigen8internal15unary_evaluatorINS_12CwiseUnaryOpINS0_21scalar_score_coeff_opIdEEKNS_5BlockINS5_INS_3RefINS_6MatrixIdLin1ELin1ELi0ELin1ELin1EEELi0ENS_11OuterStrideILin1EEEEELin1ELi1ELb1EEELin1ELi1ELb0EEEEENS0_10IndexBasedEdED2Ev, symObjAddr: 0x95F4, symBinAddr: 0x10000C810, symSize: 0x34 }
  - { offsetInCU: 0x88DAE, offset: 0x88DAE, size: 0x8, addend: 0x0, symName: __ZN5Eigen8internal15unary_evaluatorINS_12CwiseUnaryOpINS0_21scalar_score_coeff_opIdEEKNS_5BlockINS5_INS_3RefINS_6MatrixIdLin1ELin1ELi0ELin1ELin1EEELi0ENS_11OuterStrideILin1EEEEELin1ELi1ELb1EEELin1ELi1ELb0EEEEENS0_10IndexBasedEdE4DataD1Ev, symObjAddr: 0x9628, symBinAddr: 0x10000C844, symSize: 0x2C }
  - { offsetInCU: 0x88DDB, offset: 0x88DDB, size: 0x8, addend: 0x0, symName: __ZN5Eigen8internal15unary_evaluatorINS_12CwiseUnaryOpINS0_21scalar_score_coeff_opIdEEKNS_5BlockINS5_INS_3RefINS_6MatrixIdLin1ELin1ELi0ELin1ELin1EEELi0ENS_11OuterStrideILin1EEEEELin1ELi1ELb1EEELin1ELi1ELb0EEEEENS0_10IndexBasedEdE4DataD2Ev, symObjAddr: 0x9654, symBinAddr: 0x10000C870, symSize: 0x30 }
  - { offsetInCU: 0x88E08, offset: 0x88E08, size: 0x8, addend: 0x0, symName: __ZN5Eigen8internal9evaluatorIKNS_5BlockINS2_INS_3RefINS_6MatrixIdLin1ELin1ELi0ELin1ELin1EEELi0ENS_11OuterStrideILin1EEEEELin1ELi1ELb1EEELin1ELi1ELb0EEEED1Ev, symObjAddr: 0x9684, symBinAddr: 0x10000C8A0, symSize: 0x2C }
  - { offsetInCU: 0x88E34, offset: 0x88E34, size: 0x8, addend: 0x0, symName: __ZN5Eigen8internal9evaluatorIKNS_5BlockINS2_INS_3RefINS_6MatrixIdLin1ELin1ELi0ELin1ELin1EEELi0ENS_11OuterStrideILin1EEEEELin1ELi1ELb1EEELin1ELi1ELb0EEEED2Ev, symObjAddr: 0x96B0, symBinAddr: 0x10000C8CC, symSize: 0x2C }
  - { offsetInCU: 0x88E60, offset: 0x88E60, size: 0x8, addend: 0x0, symName: __ZN5Eigen8internal9evaluatorINS_5BlockINS2_INS_3RefINS_6MatrixIdLin1ELin1ELi0ELin1ELin1EEELi0ENS_11OuterStrideILin1EEEEELin1ELi1ELb1EEELin1ELi1ELb0EEEED2Ev, symObjAddr: 0x96DC, symBinAddr: 0x10000C8F8, symSize: 0x2C }
  - { offsetInCU: 0x88E8D, offset: 0x88E8D, size: 0x8, addend: 0x0, symName: __ZN5Eigen8internal15block_evaluatorINS_5BlockINS_3RefINS_6MatrixIdLin1ELin1ELi0ELin1ELin1EEELi0ENS_11OuterStrideILin1EEEEELin1ELi1ELb1EEELin1ELi1ELb0ELb1EED2Ev, symObjAddr: 0x9708, symBinAddr: 0x10000C924, symSize: 0x2C }
  - { offsetInCU: 0x88EBA, offset: 0x88EBA, size: 0x8, addend: 0x0, symName: __ZNK5Eigen15DenseCoeffsBaseINS_3RefINS_6MatrixIdLin1ELin1ELi0ELin1ELin1EEELi0ENS_11OuterStrideILin1EEEEELi3EE9colStrideEv, symObjAddr: 0x9734, symBinAddr: 0x10000C950, symSize: 0x24 }
  - { offsetInCU: 0x88EE0, offset: 0x88EE0, size: 0x8, addend: 0x0, symName: __ZNK5Eigen15DenseCoeffsBaseINS_3RefINS_6MatrixIdLin1ELin1ELi0ELin1ELin1EEELi0ENS_11OuterStrideILin1EEEEELi3EE9rowStrideEv, symObjAddr: 0x9758, symBinAddr: 0x10000C974, symSize: 0x24 }
  - { offsetInCU: 0x88F06, offset: 0x88F06, size: 0x8, addend: 0x0, symName: __ZNK5Eigen15DenseCoeffsBaseINS_3RefINS_6MatrixIdLin1ELin1ELi0ELin1ELin1EEELi0ENS_11OuterStrideILin1EEEEELi3EE11outerStrideEv, symObjAddr: 0x977C, symBinAddr: 0x10000C998, symSize: 0x38 }
  - { offsetInCU: 0x88F2C, offset: 0x88F2C, size: 0x8, addend: 0x0, symName: __ZNK5Eigen9EigenBaseINS_3RefINS_6MatrixIdLin1ELin1ELi0ELin1ELin1EEELi0ENS_11OuterStrideILin1EEEEEE7derivedEv, symObjAddr: 0x97B4, symBinAddr: 0x10000C9D0, symSize: 0x14 }
  - { offsetInCU: 0x88F52, offset: 0x88F52, size: 0x8, addend: 0x0, symName: __ZNK5Eigen15DenseCoeffsBaseINS_3RefINS_6MatrixIdLin1ELin1ELi0ELin1ELin1EEELi0ENS_11OuterStrideILin1EEEEELi3EE11innerStrideEv, symObjAddr: 0x97C8, symBinAddr: 0x10000C9E4, symSize: 0x28 }
  - { offsetInCU: 0x88F78, offset: 0x88F78, size: 0x8, addend: 0x0, symName: __ZNK5Eigen8internal19VariableAndFixedIntILin1EEcviEv, symObjAddr: 0x981C, symBinAddr: 0x10000CA38, symSize: 0x18 }
  - { offsetInCU: 0x88F9E, offset: 0x88F9E, size: 0x8, addend: 0x0, symName: __ZN5Eigen8internal19VariableAndFixedIntILin1EEC1Ei, symObjAddr: 0x984C, symBinAddr: 0x10000CA68, symSize: 0x34 }
  - { offsetInCU: 0x88FD6, offset: 0x88FD6, size: 0x8, addend: 0x0, symName: __ZN5Eigen8internal19VariableAndFixedIntILin1EEC2Ei, symObjAddr: 0x9880, symBinAddr: 0x10000CA9C, symSize: 0x20 }
  - { offsetInCU: 0x8900E, offset: 0x8900E, size: 0x8, addend: 0x0, symName: __ZN5Eigen9EigenBaseINS_5BlockINS1_INS_3RefINS_6MatrixIdLin1ELin1ELi0ELin1ELin1EEELi0ENS_11OuterStrideILin1EEEEELin1ELi1ELb1EEELin1ELi1ELb0EEEE7derivedEv, symObjAddr: 0x98D8, symBinAddr: 0x10000CAF4, symSize: 0x14 }
  - { offsetInCU: 0x89034, offset: 0x89034, size: 0x8, addend: 0x0, symName: __ZN5Eigen9DenseBaseINS_6MatrixIdLin1ELi1ELi0ELin1ELi1EEEE8ConstantEllRKd, symObjAddr: 0x98EC, symBinAddr: 0x10000CB08, symSize: 0x60 }
  - { offsetInCU: 0x89078, offset: 0x89078, size: 0x8, addend: 0x0, symName: __ZNK5Eigen9EigenBaseINS_5BlockINS1_INS_3RefINS_6MatrixIdLin1ELin1ELi0ELin1ELin1EEELi0ENS_11OuterStrideILin1EEEEELin1ELi1ELb1EEELin1ELi1ELb0EEEE4rowsEv, symObjAddr: 0x994C, symBinAddr: 0x10000CB68, symSize: 0x28 }
  - { offsetInCU: 0x8909E, offset: 0x8909E, size: 0x8, addend: 0x0, symName: __ZNK5Eigen9EigenBaseINS_5BlockINS1_INS_3RefINS_6MatrixIdLin1ELin1ELi0ELin1ELin1EEELi0ENS_11OuterStrideILin1EEEEELin1ELi1ELb1EEELin1ELi1ELb0EEEE4colsEv, symObjAddr: 0x9974, symBinAddr: 0x10000CB90, symSize: 0x28 }
  - { offsetInCU: 0x890C4, offset: 0x890C4, size: 0x8, addend: 0x0, symName: __ZN5Eigen8internal13div_assign_opIddEC1Ev, symObjAddr: 0x999C, symBinAddr: 0x10000CBB8, symSize: 0x2C }
  - { offsetInCU: 0x890EE, offset: 0x890EE, size: 0x8, addend: 0x0, symName: __ZN5Eigen8internal10AssignmentINS_5BlockINS2_INS_3RefINS_6MatrixIdLin1ELin1ELi0ELin1ELin1EEELi0ENS_11OuterStrideILin1EEEEELin1ELi1ELb1EEELin1ELi1ELb0EEENS_14CwiseNullaryOpINS0_18scalar_constant_opIdEENS4_IdLin1ELi1ELi0ELin1ELi1EEEEENS0_13div_assign_opIddEENS0_11Dense2DenseEvE3runERSA_RKSF_RKSH_, symObjAddr: 0x9A04, symBinAddr: 0x10000CC20, symSize: 0x40 }
  - { offsetInCU: 0x89130, offset: 0x89130, size: 0x8, addend: 0x0, symName: __ZN5Eigen8internal9evaluatorINS_14CwiseNullaryOpINS0_18scalar_constant_opIdEENS_6MatrixIdLin1ELi1ELi0ELin1ELi1EEEEEEC1ERKS7_, symObjAddr: 0x9B38, symBinAddr: 0x10000CD54, symSize: 0x34 }
  - { offsetInCU: 0x89169, offset: 0x89169, size: 0x8, addend: 0x0, symName: __ZN5Eigen8internal9evaluatorINS_5BlockINS2_INS_3RefINS_6MatrixIdLin1ELin1ELi0ELin1ELin1EEELi0ENS_11OuterStrideILin1EEEEELin1ELi1ELb1EEELin1ELi1ELb0EEEEC1ERKSA_, symObjAddr: 0x9C20, symBinAddr: 0x10000CE3C, symSize: 0x34 }
  - { offsetInCU: 0x891A2, offset: 0x891A2, size: 0x8, addend: 0x0, symName: __ZNK5Eigen9EigenBaseINS_5BlockINS1_INS_3RefINS_6MatrixIdLin1ELin1ELi0ELin1ELin1EEELi0ENS_11OuterStrideILin1EEEEELin1ELi1ELb1EEELin1ELi1ELb0EEEE18const_cast_derivedEv, symObjAddr: 0x9C54, symBinAddr: 0x10000CE70, symSize: 0x14 }
  - { offsetInCU: 0x891C8, offset: 0x891C8, size: 0x8, addend: 0x0, symName: __ZN5Eigen8internal31generic_dense_assignment_kernelINS0_9evaluatorINS_5BlockINS3_INS_3RefINS_6MatrixIdLin1ELin1ELi0ELin1ELin1EEELi0ENS_11OuterStrideILin1EEEEELin1ELi1ELb1EEELin1ELi1ELb0EEEEENS2_INS_14CwiseNullaryOpINS0_18scalar_constant_opIdEENS5_IdLin1ELi1ELi0ELin1ELi1EEEEEEENS0_13div_assign_opIddEELi0EEC1ERSC_RKSI_RKSK_RSB_, symObjAddr: 0x9C68, symBinAddr: 0x10000CE84, symSize: 0x4C }
  - { offsetInCU: 0x8922E, offset: 0x8922E, size: 0x8, addend: 0x0, symName: __ZN5Eigen8internal9evaluatorINS_5BlockINS2_INS_3RefINS_6MatrixIdLin1ELin1ELi0ELin1ELin1EEELi0ENS_11OuterStrideILin1EEEEELin1ELi1ELb1EEELin1ELi1ELb0EEEED1Ev, symObjAddr: 0x9D74, symBinAddr: 0x10000CF90, symSize: 0x2C }
  - { offsetInCU: 0x8925B, offset: 0x8925B, size: 0x8, addend: 0x0, symName: __ZN5Eigen8internal9evaluatorINS_14CwiseNullaryOpINS0_18scalar_constant_opIdEENS_6MatrixIdLin1ELi1ELi0ELin1ELi1EEEEEED1Ev, symObjAddr: 0x9DA0, symBinAddr: 0x10000CFBC, symSize: 0x2C }
  - { offsetInCU: 0x89287, offset: 0x89287, size: 0x8, addend: 0x0, symName: __ZN5Eigen8internal9evaluatorINS_14CwiseNullaryOpINS0_18scalar_constant_opIdEENS_6MatrixIdLin1ELi1ELi0ELin1ELi1EEEEEEC2ERKS7_, symObjAddr: 0x9DCC, symBinAddr: 0x10000CFE8, symSize: 0x74 }
  - { offsetInCU: 0x892C0, offset: 0x892C0, size: 0x8, addend: 0x0, symName: __ZN5Eigen8internal14evaluator_baseINS_14CwiseNullaryOpINS0_18scalar_constant_opIdEENS_6MatrixIdLin1ELi1ELi0ELin1ELi1EEEEEEC2Ev, symObjAddr: 0x9E40, symBinAddr: 0x10000D05C, symSize: 0x14 }
  - { offsetInCU: 0x892EA, offset: 0x892EA, size: 0x8, addend: 0x0, symName: __ZNK5Eigen14CwiseNullaryOpINS_8internal18scalar_constant_opIdEENS_6MatrixIdLin1ELi1ELi0ELin1ELi1EEEE7functorEv, symObjAddr: 0x9E54, symBinAddr: 0x10000D070, symSize: 0x18 }
  - { offsetInCU: 0x89310, offset: 0x89310, size: 0x8, addend: 0x0, symName: __ZN5Eigen8internal18scalar_constant_opIdEC1ERKS2_, symObjAddr: 0x9E6C, symBinAddr: 0x10000D088, symSize: 0x34 }
  - { offsetInCU: 0x89348, offset: 0x89348, size: 0x8, addend: 0x0, symName: __ZN5Eigen8internal14evaluator_baseINS_14CwiseNullaryOpINS0_18scalar_constant_opIdEENS_6MatrixIdLin1ELi1ELi0ELin1ELi1EEEEEED2Ev, symObjAddr: 0x9EA0, symBinAddr: 0x10000D0BC, symSize: 0x14 }
  - { offsetInCU: 0x89372, offset: 0x89372, size: 0x8, addend: 0x0, symName: __ZN5Eigen8internal18scalar_constant_opIdEC2ERKS2_, symObjAddr: 0x9EB4, symBinAddr: 0x10000D0D0, symSize: 0x24 }
  - { offsetInCU: 0x893AA, offset: 0x893AA, size: 0x8, addend: 0x0, symName: __ZNK5Eigen14CwiseNullaryOpINS_8internal18scalar_constant_opIdEENS_6MatrixIdLin1ELi1ELi0ELin1ELi1EEEE4rowsEv, symObjAddr: 0x9ED8, symBinAddr: 0x10000D0F4, symSize: 0x24 }
  - { offsetInCU: 0x893D0, offset: 0x893D0, size: 0x8, addend: 0x0, symName: __ZNK5Eigen14CwiseNullaryOpINS_8internal18scalar_constant_opIdEENS_6MatrixIdLin1ELi1ELi0ELin1ELi1EEEE4colsEv, symObjAddr: 0x9EFC, symBinAddr: 0x10000D118, symSize: 0x20 }
  - { offsetInCU: 0x893F6, offset: 0x893F6, size: 0x8, addend: 0x0, symName: __ZN5Eigen8internal31generic_dense_assignment_kernelINS0_9evaluatorINS_5BlockINS3_INS_3RefINS_6MatrixIdLin1ELin1ELi0ELin1ELin1EEELi0ENS_11OuterStrideILin1EEEEELin1ELi1ELb1EEELin1ELi1ELb0EEEEENS2_INS_14CwiseNullaryOpINS0_18scalar_constant_opIdEENS5_IdLin1ELi1ELi0ELin1ELi1EEEEEEENS0_13div_assign_opIddEELi0EEC2ERSC_RKSI_RKSK_RSB_, symObjAddr: 0x9F1C, symBinAddr: 0x10000D138, symSize: 0x44 }
  - { offsetInCU: 0x8945C, offset: 0x8945C, size: 0x8, addend: 0x0, symName: __ZNK5Eigen8internal31generic_dense_assignment_kernelINS0_9evaluatorINS_5BlockINS3_INS_3RefINS_6MatrixIdLin1ELin1ELi0ELin1ELin1EEELi0ENS_11OuterStrideILin1EEEEELin1ELi1ELb1EEELin1ELi1ELb0EEEEENS2_INS_14CwiseNullaryOpINS0_18scalar_constant_opIdEENS5_IdLin1ELi1ELi0ELin1ELi1EEEEEEENS0_13div_assign_opIddEELi0EE4sizeEv, symObjAddr: 0x9F60, symBinAddr: 0x10000D17C, symSize: 0x28 }
  - { offsetInCU: 0x89482, offset: 0x89482, size: 0x8, addend: 0x0, symName: __ZNK5Eigen8internal31generic_dense_assignment_kernelINS0_9evaluatorINS_5BlockINS3_INS_3RefINS_6MatrixIdLin1ELin1ELi0ELin1ELin1EEELi0ENS_11OuterStrideILin1EEEEELin1ELi1ELb1EEELin1ELi1ELb0EEEEENS2_INS_14CwiseNullaryOpINS0_18scalar_constant_opIdEENS5_IdLin1ELi1ELi0ELin1ELi1EEEEEEENS0_13div_assign_opIddEELi0EE10dstDataPtrEv, symObjAddr: 0xA034, symBinAddr: 0x10000D250, symSize: 0x28 }
  - { offsetInCU: 0x894A8, offset: 0x894A8, size: 0x8, addend: 0x0, symName: __ZN5Eigen8internal31unaligned_dense_assignment_loopILb0EE3runINS0_31generic_dense_assignment_kernelINS0_9evaluatorINS_5BlockINS6_INS_3RefINS_6MatrixIdLin1ELin1ELi0ELin1ELin1EEELi0ENS_11OuterStrideILin1EEEEELin1ELi1ELb1EEELin1ELi1ELb0EEEEENS5_INS_14CwiseNullaryOpINS0_18scalar_constant_opIdEENS8_IdLin1ELi1ELi0ELin1ELi1EEEEEEENS0_13div_assign_opIddEELi0EEEEEvRT_ll, symObjAddr: 0xA05C, symBinAddr: 0x10000D278, symSize: 0x68 }
  - { offsetInCU: 0x89510, offset: 0x89510, size: 0x8, addend: 0x0, symName: __ZN5Eigen8internal31generic_dense_assignment_kernelINS0_9evaluatorINS_5BlockINS3_INS_3RefINS_6MatrixIdLin1ELin1ELi0ELin1ELin1EEELi0ENS_11OuterStrideILin1EEEEELin1ELi1ELb1EEELin1ELi1ELb0EEEEENS2_INS_14CwiseNullaryOpINS0_18scalar_constant_opIdEENS5_IdLin1ELi1ELi0ELin1ELi1EEEEEEENS0_13div_assign_opIddEELi0EE12assignPacketILi16ELi0E19__simd128_float64_tEEvl, symObjAddr: 0xA0C4, symBinAddr: 0x10000D2E0, symSize: 0x64 }
  - { offsetInCU: 0x89562, offset: 0x89562, size: 0x8, addend: 0x0, symName: __ZNK5Eigen9EigenBaseINS_5BlockINS1_INS_3RefINS_6MatrixIdLin1ELin1ELi0ELin1ELin1EEELi0ENS_11OuterStrideILin1EEEEELin1ELi1ELb1EEELin1ELi1ELb0EEEE4sizeEv, symObjAddr: 0xA128, symBinAddr: 0x10000D344, symSize: 0x44 }
  - { offsetInCU: 0x89588, offset: 0x89588, size: 0x8, addend: 0x0, symName: __ZN5Eigen7MapBaseINS_5BlockINS1_INS_3RefINS_6MatrixIdLin1ELin1ELi0ELin1ELin1EEELi0ENS_11OuterStrideILin1EEEEELin1ELi1ELb1EEELin1ELi1ELb0EEELi1EE4dataEv, symObjAddr: 0xA16C, symBinAddr: 0x10000D388, symSize: 0x18 }
  - { offsetInCU: 0x895AE, offset: 0x895AE, size: 0x8, addend: 0x0, symName: __ZN5Eigen8internal31generic_dense_assignment_kernelINS0_9evaluatorINS_5BlockINS3_INS_3RefINS_6MatrixIdLin1ELin1ELi0ELin1ELin1EEELi0ENS_11OuterStrideILin1EEEEELin1ELi1ELb1EEELin1ELi1ELb0EEEEENS2_INS_14CwiseNullaryOpINS0_18scalar_constant_opIdEENS5_IdLin1ELi1ELi0ELin1ELi1EEEEEEENS0_13div_assign_opIddEELi0EE11assignCoeffEl, symObjAddr: 0xA184, symBinAddr: 0x10000D3A0, symSize: 0x64 }
  - { offsetInCU: 0x895E3, offset: 0x895E3, size: 0x8, addend: 0x0, symName: __ZNK5Eigen8internal13div_assign_opIddE11assignCoeffERdRKd, symObjAddr: 0xA1E8, symBinAddr: 0x10000D404, symSize: 0x30 }
  - { offsetInCU: 0x89625, offset: 0x89625, size: 0x8, addend: 0x0, symName: __ZN5Eigen8internal17mapbase_evaluatorINS_5BlockINS2_INS_3RefINS_6MatrixIdLin1ELin1ELi0ELin1ELin1EEELi0ENS_11OuterStrideILin1EEEEELin1ELi1ELb1EEELin1ELi1ELb0EEENS4_IdLin1ELi1ELi0ELin1ELi1EEEE8coeffRefEl, symObjAddr: 0xA218, symBinAddr: 0x10000D434, symSize: 0x48 }
  - { offsetInCU: 0x89664, offset: 0x89664, size: 0x8, addend: 0x0, symName: __ZNK5Eigen8internal9evaluatorINS_14CwiseNullaryOpINS0_18scalar_constant_opIdEENS_6MatrixIdLin1ELi1ELi0ELin1ELi1EEEEEE5coeffIlEEdT_, symObjAddr: 0xA260, symBinAddr: 0x10000D47C, symSize: 0x38 }
  - { offsetInCU: 0x896A7, offset: 0x896A7, size: 0x8, addend: 0x0, symName: __ZNK5Eigen8internal15nullary_wrapperIdNS0_18scalar_constant_opIdEELb1ELb0ELb0EEclIlEEdRKS3_T_S8_, symObjAddr: 0xA298, symBinAddr: 0x10000D4B4, symSize: 0x30 }
  - { offsetInCU: 0x896FB, offset: 0x896FB, size: 0x8, addend: 0x0, symName: __ZNK5Eigen8internal18scalar_constant_opIdEclEv, symObjAddr: 0xA2C8, symBinAddr: 0x10000D4E4, symSize: 0x18 }
  - { offsetInCU: 0x89721, offset: 0x89721, size: 0x8, addend: 0x0, symName: __ZNK5Eigen8internal13div_assign_opIddE12assignPacketILi16E19__simd128_float64_tEEvPdRKT0_, symObjAddr: 0xA2E0, symBinAddr: 0x10000D4FC, symSize: 0x6C }
  - { offsetInCU: 0x897B8, offset: 0x897B8, size: 0x8, addend: 0x0, symName: __ZNK5Eigen8internal9evaluatorINS_14CwiseNullaryOpINS0_18scalar_constant_opIdEENS_6MatrixIdLin1ELi1ELi0ELin1ELi1EEEEEE6packetILi0E19__simd128_float64_tlEET0_T1_, symObjAddr: 0xA34C, symBinAddr: 0x10000D568, symSize: 0x38 }
  - { offsetInCU: 0x89809, offset: 0x89809, size: 0x8, addend: 0x0, symName: __ZNK5Eigen8internal15nullary_wrapperIdNS0_18scalar_constant_opIdEELb1ELb0ELb0EE8packetOpI19__simd128_float64_tlEET_RKS3_T0_SA_, symObjAddr: 0xA3C4, symBinAddr: 0x10000D5E0, symSize: 0x30 }
  - { offsetInCU: 0x89866, offset: 0x89866, size: 0x8, addend: 0x0, symName: __ZNK5Eigen8internal18scalar_constant_opIdE8packetOpI19__simd128_float64_tEEKT_v, symObjAddr: 0xA3F4, symBinAddr: 0x10000D610, symSize: 0x24 }
  - { offsetInCU: 0x89895, offset: 0x89895, size: 0x8, addend: 0x0, symName: __ZN5Eigen8internal9evaluatorINS_14CwiseNullaryOpINS0_18scalar_constant_opIdEENS_6MatrixIdLin1ELi1ELi0ELin1ELi1EEEEEED2Ev, symObjAddr: 0xA45C, symBinAddr: 0x10000D678, symSize: 0x2C }
  - { offsetInCU: 0x898C1, offset: 0x898C1, size: 0x8, addend: 0x0, symName: __ZN5Eigen9DenseBaseINS_6MatrixIdLin1ELi1ELi0ELin1ELi1EEEE11NullaryExprINS_8internal18scalar_constant_opIdEEEEKNS_14CwiseNullaryOpIT_S2_EEllRKS9_, symObjAddr: 0xA488, symBinAddr: 0x10000D6A4, symSize: 0x48 }
  - { offsetInCU: 0x8990E, offset: 0x8990E, size: 0x8, addend: 0x0, symName: __ZN5Eigen8internal18scalar_constant_opIdEC1ERKd, symObjAddr: 0xA4D0, symBinAddr: 0x10000D6EC, symSize: 0x34 }
  - { offsetInCU: 0x89946, offset: 0x89946, size: 0x8, addend: 0x0, symName: __ZN5Eigen14CwiseNullaryOpINS_8internal18scalar_constant_opIdEENS_6MatrixIdLin1ELi1ELi0ELin1ELi1EEEEC1EllRKS3_, symObjAddr: 0xA504, symBinAddr: 0x10000D720, symSize: 0x44 }
  - { offsetInCU: 0x8999A, offset: 0x8999A, size: 0x8, addend: 0x0, symName: __ZN5Eigen14CwiseNullaryOpINS_8internal18scalar_constant_opIdEENS_6MatrixIdLin1ELi1ELi0ELin1ELi1EEEEC2EllRKS3_, symObjAddr: 0xA548, symBinAddr: 0x10000D764, symSize: 0xE8 }
  - { offsetInCU: 0x899EE, offset: 0x899EE, size: 0x8, addend: 0x0, symName: __ZN5Eigen10MatrixBaseINS_14CwiseNullaryOpINS_8internal18scalar_constant_opIdEENS_6MatrixIdLin1ELi1ELi0ELin1ELi1EEEEEEC2Ev, symObjAddr: 0xA630, symBinAddr: 0x10000D84C, symSize: 0x2C }
  - { offsetInCU: 0x89A18, offset: 0x89A18, size: 0x8, addend: 0x0, symName: __ZN5Eigen9DenseBaseINS_14CwiseNullaryOpINS_8internal18scalar_constant_opIdEENS_6MatrixIdLin1ELi1ELi0ELin1ELi1EEEEEEC2Ev, symObjAddr: 0xA65C, symBinAddr: 0x10000D878, symSize: 0x14 }
  - { offsetInCU: 0x89A42, offset: 0x89A42, size: 0x8, addend: 0x0, symName: __ZN5Eigen8internal18scalar_constant_opIdEC2ERKd, symObjAddr: 0xA670, symBinAddr: 0x10000D88C, symSize: 0x24 }
  - { offsetInCU: 0x89A7A, offset: 0x89A7A, size: 0x8, addend: 0x0, symName: __ZN5Eigen8internal13div_assign_opIddEC2Ev, symObjAddr: 0xA694, symBinAddr: 0x10000D8B0, symSize: 0x14 }
  - { offsetInCU: 0x89AA4, offset: 0x89AA4, size: 0x8, addend: 0x0, symName: __ZNK5Eigen9EigenBaseINS_5BlockINS1_INS_3RefINS_6MatrixIdLin1ELin1ELi0ELin1ELin1EEELi0ENS_11OuterStrideILin1EEEEELi1ELin1ELb0EEELi1ELin1ELb0EEEE7derivedEv, symObjAddr: 0xA6A8, symBinAddr: 0x10000D8C4, symSize: 0x14 }
  - { offsetInCU: 0x89ACA, offset: 0x89ACA, size: 0x8, addend: 0x0, symName: __ZN5Eigen7ProductINS_5BlockINS1_INS_3RefINS_6MatrixIdLin1ELin1ELi0ELin1ELin1EEELi0ENS_11OuterStrideILin1EEEEELin1ELi1ELb1EEELin1ELi1ELb0EEENS1_INS1_IS7_Li1ELin1ELb0EEELi1ELin1ELb0EEELi0EEC1ERKS9_RKSB_, symObjAddr: 0xA6BC, symBinAddr: 0x10000D8D8, symSize: 0x3C }
  - { offsetInCU: 0x89B10, offset: 0x89B10, size: 0x8, addend: 0x0, symName: __ZN5Eigen7ProductINS_5BlockINS1_INS_3RefINS_6MatrixIdLin1ELin1ELi0ELin1ELin1EEELi0ENS_11OuterStrideILin1EEEEELin1ELi1ELb1EEELin1ELi1ELb0EEENS1_INS1_IS7_Li1ELin1ELb0EEELi1ELin1ELb0EEELi0EEC2ERKS9_RKSB_, symObjAddr: 0xA6F8, symBinAddr: 0x10000D914, symSize: 0xD0 }
  - { offsetInCU: 0x89B5B, offset: 0x89B5B, size: 0x8, addend: 0x0, symName: __ZN5Eigen11ProductImplINS_5BlockINS1_INS_3RefINS_6MatrixIdLin1ELin1ELi0ELin1ELin1EEELi0ENS_11OuterStrideILin1EEEEELin1ELi1ELb1EEELin1ELi1ELb0EEENS1_INS1_IS7_Li1ELin1ELb0EEELi1ELin1ELb0EEELi0ENS_5DenseEEC2Ev, symObjAddr: 0xA7C8, symBinAddr: 0x10000D9E4, symSize: 0x2C }
  - { offsetInCU: 0x89B87, offset: 0x89B87, size: 0x8, addend: 0x0, symName: __ZNK5Eigen7MapBaseINS_5BlockINS1_INS_3RefINS_6MatrixIdLin1ELin1ELi0ELin1ELin1EEELi0ENS_11OuterStrideILin1EEEEELi1ELin1ELb0EEELi1ELin1ELb0EEELi0EE4rowsEv, symObjAddr: 0xA7F4, symBinAddr: 0x10000DA10, symSize: 0x20 }
  - { offsetInCU: 0x89BB2, offset: 0x89BB2, size: 0x8, addend: 0x0, symName: __ZN5Eigen8internal18dense_product_baseINS_5BlockINS2_INS_3RefINS_6MatrixIdLin1ELin1ELi0ELin1ELin1EEELi0ENS_11OuterStrideILin1EEEEELin1ELi1ELb1EEELin1ELi1ELb0EEENS2_INS2_IS8_Li1ELin1ELb0EEELi1ELin1ELb0EEELi0ELi5EEC2Ev, symObjAddr: 0xA814, symBinAddr: 0x10000DA30, symSize: 0x2C }
  - { offsetInCU: 0x89BDE, offset: 0x89BDE, size: 0x8, addend: 0x0, symName: __ZN5Eigen10MatrixBaseINS_7ProductINS_5BlockINS2_INS_3RefINS_6MatrixIdLin1ELin1ELi0ELin1ELin1EEELi0ENS_11OuterStrideILin1EEEEELin1ELi1ELb1EEELin1ELi1ELb0EEENS2_INS2_IS8_Li1ELin1ELb0EEELi1ELin1ELb0EEELi0EEEEC2Ev, symObjAddr: 0xA840, symBinAddr: 0x10000DA5C, symSize: 0x2C }
  - { offsetInCU: 0x89C08, offset: 0x89C08, size: 0x8, addend: 0x0, symName: __ZN5Eigen9DenseBaseINS_7ProductINS_5BlockINS2_INS_3RefINS_6MatrixIdLin1ELin1ELi0ELin1ELin1EEELi0ENS_11OuterStrideILin1EEEEELin1ELi1ELb1EEELin1ELi1ELb0EEENS2_INS2_IS8_Li1ELin1ELb0EEELi1ELin1ELb0EEELi0EEEEC2Ev, symObjAddr: 0xA86C, symBinAddr: 0x10000DA88, symSize: 0x14 }
  - { offsetInCU: 0x89C32, offset: 0x89C32, size: 0x8, addend: 0x0, symName: __ZN5Eigen9EigenBaseINS_5BlockINS_3RefINS_6MatrixIdLin1ELin1ELi0ELin1ELin1EEELi0ENS_11OuterStrideILin1EEEEELi1ELin1ELb0EEEE7derivedEv, symObjAddr: 0xA880, symBinAddr: 0x10000DA9C, symSize: 0x14 }
  - { offsetInCU: 0x89C58, offset: 0x89C58, size: 0x8, addend: 0x0, symName: __ZNK5Eigen9EigenBaseINS_5BlockINS_3RefINS_6MatrixIdLin1ELin1ELi0ELin1ELin1EEELi0ENS_11OuterStrideILin1EEEEELi1ELin1ELb0EEEE4sizeEv, symObjAddr: 0xA894, symBinAddr: 0x10000DAB0, symSize: 0x44 }
  - { offsetInCU: 0x89C7E, offset: 0x89C7E, size: 0x8, addend: 0x0, symName: __ZN5Eigen11VectorBlockINS_5BlockINS_3RefINS_6MatrixIdLin1ELin1ELi0ELin1ELin1EEELi0ENS_11OuterStrideILin1EEEEELi1ELin1ELb0EEELin1EEC1ERS8_ll, symObjAddr: 0xA8D8, symBinAddr: 0x10000DAF4, symSize: 0x44 }
  - { offsetInCU: 0x89CD2, offset: 0x89CD2, size: 0x8, addend: 0x0, symName: __ZNK5Eigen9EigenBaseINS_5BlockINS_3RefINS_6MatrixIdLin1ELin1ELi0ELin1ELin1EEELi0ENS_11OuterStrideILin1EEEEELi1ELin1ELb0EEEE4rowsEv, symObjAddr: 0xA91C, symBinAddr: 0x10000DB38, symSize: 0x38 }
  - { offsetInCU: 0x89CF8, offset: 0x89CF8, size: 0x8, addend: 0x0, symName: __ZNK5Eigen9EigenBaseINS_5BlockINS_3RefINS_6MatrixIdLin1ELin1ELi0ELin1ELin1EEELi0ENS_11OuterStrideILin1EEEEELi1ELin1ELb0EEEE4colsEv, symObjAddr: 0xA954, symBinAddr: 0x10000DB70, symSize: 0x28 }
  - { offsetInCU: 0x89D1E, offset: 0x89D1E, size: 0x8, addend: 0x0, symName: __ZNK5Eigen9EigenBaseINS_5BlockINS_3RefINS_6MatrixIdLin1ELin1ELi0ELin1ELin1EEELi0ENS_11OuterStrideILin1EEEEELi1ELin1ELb0EEEE7derivedEv, symObjAddr: 0xA97C, symBinAddr: 0x10000DB98, symSize: 0x14 }
  - { offsetInCU: 0x89D44, offset: 0x89D44, size: 0x8, addend: 0x0, symName: __ZNK5Eigen7MapBaseINS_5BlockINS_3RefINS_6MatrixIdLin1ELin1ELi0ELin1ELin1EEELi0ENS_11OuterStrideILin1EEEEELi1ELin1ELb0EEELi0EE4rowsEv, symObjAddr: 0xA990, symBinAddr: 0x10000DBAC, symSize: 0x20 }
  - { offsetInCU: 0x89D6A, offset: 0x89D6A, size: 0x8, addend: 0x0, symName: __ZNK5Eigen7MapBaseINS_5BlockINS_3RefINS_6MatrixIdLin1ELin1ELi0ELin1ELin1EEELi0ENS_11OuterStrideILin1EEEEELi1ELin1ELb0EEELi0EE4colsEv, symObjAddr: 0xA9B0, symBinAddr: 0x10000DBCC, symSize: 0x28 }
  - { offsetInCU: 0x89D90, offset: 0x89D90, size: 0x8, addend: 0x0, symName: __ZN5Eigen11VectorBlockINS_5BlockINS_3RefINS_6MatrixIdLin1ELin1ELi0ELin1ELin1EEELi0ENS_11OuterStrideILin1EEEEELi1ELin1ELb0EEELin1EEC2ERS8_ll, symObjAddr: 0xA9D8, symBinAddr: 0x10000DBF4, symSize: 0x4C }
  - { offsetInCU: 0x89DE4, offset: 0x89DE4, size: 0x8, addend: 0x0, symName: __ZN5Eigen5BlockINS0_INS_3RefINS_6MatrixIdLin1ELin1ELi0ELin1ELin1EEELi0ENS_11OuterStrideILin1EEEEELi1ELin1ELb0EEELi1ELin1ELb0EEC2ERS7_llll, symObjAddr: 0xAA24, symBinAddr: 0x10000DC40, symSize: 0x1B0 }
  - { offsetInCU: 0x89E54, offset: 0x89E54, size: 0x8, addend: 0x0, symName: __ZN5Eigen9BlockImplINS_5BlockINS_3RefINS_6MatrixIdLin1ELin1ELi0ELin1ELin1EEELi0ENS_11OuterStrideILin1EEEEELi1ELin1ELb0EEELi1ELin1ELb0ENS_5DenseEEC2ERS8_llll, symObjAddr: 0xABD4, symBinAddr: 0x10000DDF0, symSize: 0x54 }
  - { offsetInCU: 0x89EC4, offset: 0x89EC4, size: 0x8, addend: 0x0, symName: __ZN5Eigen8internal15BlockImpl_denseINS_5BlockINS_3RefINS_6MatrixIdLin1ELin1ELi0ELin1ELin1EEELi0ENS_11OuterStrideILin1EEEEELi1ELin1ELb0EEELi1ELin1ELb0ELb1EEC2ERS9_llll, symObjAddr: 0xAC28, symBinAddr: 0x10000DE44, symSize: 0xD0 }
  - { offsetInCU: 0x89F39, offset: 0x89F39, size: 0x8, addend: 0x0, symName: __ZN5Eigen7MapBaseINS_5BlockINS_3RefINS_6MatrixIdLin1ELin1ELi0ELin1ELin1EEELi0ENS_11OuterStrideILin1EEEEELi1ELin1ELb0EEELi1EE4dataEv, symObjAddr: 0xACF8, symBinAddr: 0x10000DF14, symSize: 0x18 }
  - { offsetInCU: 0x89F5F, offset: 0x89F5F, size: 0x8, addend: 0x0, symName: __ZNK5Eigen8internal15BlockImpl_denseINS_3RefINS_6MatrixIdLin1ELin1ELi0ELin1ELin1EEELi0ENS_11OuterStrideILin1EEEEELi1ELin1ELb0ELb1EE11innerStrideEv, symObjAddr: 0xAD10, symBinAddr: 0x10000DF2C, symSize: 0x28 }
  - { offsetInCU: 0x89F85, offset: 0x89F85, size: 0x8, addend: 0x0, symName: __ZNK5Eigen8internal15BlockImpl_denseINS_3RefINS_6MatrixIdLin1ELin1ELi0ELin1ELin1EEELi0ENS_11OuterStrideILin1EEEEELi1ELin1ELb0ELb1EE11outerStrideEv, symObjAddr: 0xAD38, symBinAddr: 0x10000DF54, symSize: 0x28 }
  - { offsetInCU: 0x89FAB, offset: 0x89FAB, size: 0x8, addend: 0x0, symName: __ZN5Eigen7MapBaseINS_5BlockINS1_INS_3RefINS_6MatrixIdLin1ELin1ELi0ELin1ELin1EEELi0ENS_11OuterStrideILin1EEEEELi1ELin1ELb0EEELi1ELin1ELb0EEELi1EEC2EPdll, symObjAddr: 0xAD60, symBinAddr: 0x10000DF7C, symSize: 0x44 }
  - { offsetInCU: 0x8A002, offset: 0x8A002, size: 0x8, addend: 0x0, symName: __ZN5Eigen8internal15BlockImpl_denseINS_5BlockINS_3RefINS_6MatrixIdLin1ELin1ELi0ELin1ELin1EEELi0ENS_11OuterStrideILin1EEEEELi1ELin1ELb0EEELi1ELin1ELb0ELb1EE4initEv, symObjAddr: 0xADA4, symBinAddr: 0x10000DFC0, symSize: 0x34 }
  - { offsetInCU: 0x8A028, offset: 0x8A028, size: 0x8, addend: 0x0, symName: __ZN5Eigen7MapBaseINS_5BlockINS1_INS_3RefINS_6MatrixIdLin1ELin1ELi0ELin1ELin1EEELi0ENS_11OuterStrideILin1EEEEELi1ELin1ELb0EEELi1ELin1ELb0EEELi0EEC2EPdll, symObjAddr: 0xADD8, symBinAddr: 0x10000DFF4, symSize: 0x130 }
  - { offsetInCU: 0x8A07C, offset: 0x8A07C, size: 0x8, addend: 0x0, symName: __ZN5Eigen10MatrixBaseINS_5BlockINS1_INS_3RefINS_6MatrixIdLin1ELin1ELi0ELin1ELin1EEELi0ENS_11OuterStrideILin1EEEEELi1ELin1ELb0EEELi1ELin1ELb0EEEEC2Ev, symObjAddr: 0xAF08, symBinAddr: 0x10000E124, symSize: 0x2C }
  - { offsetInCU: 0x8A0A6, offset: 0x8A0A6, size: 0x8, addend: 0x0, symName: __ZNK5Eigen7MapBaseINS_5BlockINS1_INS_3RefINS_6MatrixIdLin1ELin1ELi0ELin1ELin1EEELi0ENS_11OuterStrideILin1EEEEELi1ELin1ELb0EEELi1ELin1ELb0EEELi0EE11checkSanityIS9_EEvNS_8internal9enable_ifIXeqsr8internal6traitsIT_EE9AlignmentLi0EEPvE4typeE, symObjAddr: 0xAF34, symBinAddr: 0x10000E150, symSize: 0x14 }
  - { offsetInCU: 0x8A0E0, offset: 0x8A0E0, size: 0x8, addend: 0x0, symName: __ZN5Eigen9DenseBaseINS_5BlockINS1_INS_3RefINS_6MatrixIdLin1ELin1ELi0ELin1ELin1EEELi0ENS_11OuterStrideILin1EEEEELi1ELin1ELb0EEELi1ELin1ELb0EEEEC2Ev, symObjAddr: 0xAF48, symBinAddr: 0x10000E164, symSize: 0x14 }
  - { offsetInCU: 0x8A10A, offset: 0x8A10A, size: 0x8, addend: 0x0, symName: __ZNK5Eigen9EigenBaseINS_3RefINS_6MatrixIdLin1ELin1ELi0ELin1ELin1EEELi0ENS_11OuterStrideILin1EEEEEE4rowsEv, symObjAddr: 0xAF5C, symBinAddr: 0x10000E178, symSize: 0x28 }
  - { offsetInCU: 0x8A130, offset: 0x8A130, size: 0x8, addend: 0x0, symName: __ZNK5Eigen9EigenBaseINS_3RefINS_6MatrixIdLin1ELin1ELi0ELin1ELin1EEELi0ENS_11OuterStrideILin1EEEEEE4colsEv, symObjAddr: 0xAF84, symBinAddr: 0x10000E1A0, symSize: 0x28 }
  - { offsetInCU: 0x8A156, offset: 0x8A156, size: 0x8, addend: 0x0, symName: __ZN5Eigen5BlockINS_3RefINS_6MatrixIdLin1ELin1ELi0ELin1ELin1EEELi0ENS_11OuterStrideILin1EEEEELin1ELin1ELb0EEC1ERS6_llll, symObjAddr: 0xAFAC, symBinAddr: 0x10000E1C8, symSize: 0x54 }
  - { offsetInCU: 0x8A1C6, offset: 0x8A1C6, size: 0x8, addend: 0x0, symName: __ZN5Eigen5BlockINS_3RefINS_6MatrixIdLin1ELin1ELi0ELin1ELin1EEELi0ENS_11OuterStrideILin1EEEEELin1ELin1ELb0EEC2ERS6_llll, symObjAddr: 0xB000, symBinAddr: 0x10000E21C, symSize: 0x154 }
  - { offsetInCU: 0x8A236, offset: 0x8A236, size: 0x8, addend: 0x0, symName: __ZN5Eigen9BlockImplINS_3RefINS_6MatrixIdLin1ELin1ELi0ELin1ELin1EEELi0ENS_11OuterStrideILin1EEEEELin1ELin1ELb0ENS_5DenseEEC2ERS6_llll, symObjAddr: 0xB154, symBinAddr: 0x10000E370, symSize: 0x54 }
  - { offsetInCU: 0x8A2A6, offset: 0x8A2A6, size: 0x8, addend: 0x0, symName: __ZN5Eigen8internal15BlockImpl_denseINS_3RefINS_6MatrixIdLin1ELin1ELi0ELin1ELin1EEELi0ENS_11OuterStrideILin1EEEEELin1ELin1ELb0ELb1EEC2ERS7_llll, symObjAddr: 0xB1A8, symBinAddr: 0x10000E3C4, symSize: 0xC4 }
  - { offsetInCU: 0x8A31B, offset: 0x8A31B, size: 0x8, addend: 0x0, symName: __ZN5Eigen7MapBaseINS_5BlockINS_3RefINS_6MatrixIdLin1ELin1ELi0ELin1ELin1EEELi0ENS_11OuterStrideILin1EEEEELin1ELin1ELb0EEELi1EEC2EPdll, symObjAddr: 0xB26C, symBinAddr: 0x10000E488, symSize: 0x44 }
  - { offsetInCU: 0x8A372, offset: 0x8A372, size: 0x8, addend: 0x0, symName: __ZN5Eigen8internal15BlockImpl_denseINS_3RefINS_6MatrixIdLin1ELin1ELi0ELin1ELin1EEELi0ENS_11OuterStrideILin1EEEEELin1ELin1ELb0ELb1EE4initEv, symObjAddr: 0xB2B0, symBinAddr: 0x10000E4CC, symSize: 0x34 }
  - { offsetInCU: 0x8A398, offset: 0x8A398, size: 0x8, addend: 0x0, symName: __ZN5Eigen7MapBaseINS_5BlockINS_3RefINS_6MatrixIdLin1ELin1ELi0ELin1ELin1EEELi0ENS_11OuterStrideILin1EEEEELin1ELin1ELb0EEELi0EEC2EPdll, symObjAddr: 0xB2E4, symBinAddr: 0x10000E500, symSize: 0x110 }
  - { offsetInCU: 0x8A3EC, offset: 0x8A3EC, size: 0x8, addend: 0x0, symName: __ZN5Eigen10MatrixBaseINS_5BlockINS_3RefINS_6MatrixIdLin1ELin1ELi0ELin1ELin1EEELi0ENS_11OuterStrideILin1EEEEELin1ELin1ELb0EEEEC2Ev, symObjAddr: 0xB3F4, symBinAddr: 0x10000E610, symSize: 0x2C }
  - { offsetInCU: 0x8A416, offset: 0x8A416, size: 0x8, addend: 0x0, symName: __ZNK5Eigen7MapBaseINS_5BlockINS_3RefINS_6MatrixIdLin1ELin1ELi0ELin1ELin1EEELi0ENS_11OuterStrideILin1EEEEELin1ELin1ELb0EEELi0EE11checkSanityIS8_EEvNS_8internal9enable_ifIXeqsr8internal6traitsIT_EE9AlignmentLi0EEPvE4typeE, symObjAddr: 0xB420, symBinAddr: 0x10000E63C, symSize: 0x14 }
  - { offsetInCU: 0x8A450, offset: 0x8A450, size: 0x8, addend: 0x0, symName: __ZN5Eigen9DenseBaseINS_5BlockINS_3RefINS_6MatrixIdLin1ELin1ELi0ELin1ELin1EEELi0ENS_11OuterStrideILin1EEEEELin1ELin1ELb0EEEEC2Ev, symObjAddr: 0xB434, symBinAddr: 0x10000E650, symSize: 0x14 }
  - { offsetInCU: 0x8A47A, offset: 0x8A47A, size: 0x8, addend: 0x0, symName: __ZN5Eigen9EigenBaseINS_5BlockINS_3RefINS_6MatrixIdLin1ELin1ELi0ELin1ELin1EEELi0ENS_11OuterStrideILin1EEEEELin1ELin1ELb0EEEE7derivedEv, symObjAddr: 0xB448, symBinAddr: 0x10000E664, symSize: 0x14 }
  - { offsetInCU: 0x8A4A0, offset: 0x8A4A0, size: 0x8, addend: 0x0, symName: __ZN5Eigen7NoAliasINS_5BlockINS_3RefINS_6MatrixIdLin1ELin1ELi0ELin1ELin1EEELi0ENS_11OuterStrideILin1EEEEELin1ELin1ELb0EEENS_10MatrixBaseEEC1ERS8_, symObjAddr: 0xB45C, symBinAddr: 0x10000E678, symSize: 0x34 }
  - { offsetInCU: 0x8A4D8, offset: 0x8A4D8, size: 0x8, addend: 0x0, symName: __ZN5Eigen7NoAliasINS_5BlockINS_3RefINS_6MatrixIdLin1ELin1ELi0ELin1ELin1EEELi0ENS_11OuterStrideILin1EEEEELin1ELin1ELb0EEENS_10MatrixBaseEEC2ERS8_, symObjAddr: 0xB490, symBinAddr: 0x10000E6AC, symSize: 0x20 }
  - { offsetInCU: 0x8A510, offset: 0x8A510, size: 0x8, addend: 0x0, symName: __ZNK5Eigen9EigenBaseINS_7ProductINS_5BlockINS2_INS_3RefINS_6MatrixIdLin1ELin1ELi0ELin1ELin1EEELi0ENS_11OuterStrideILin1EEEEELin1ELi1ELb1EEELin1ELi1ELb0EEENS2_INS2_IS8_Li1ELin1ELb0EEELi1ELin1ELb0EEELi0EEEE7derivedEv, symObjAddr: 0xB4EC, symBinAddr: 0x10000E708, symSize: 0x14 }
  - { offsetInCU: 0x8A536, offset: 0x8A536, size: 0x8, addend: 0x0, symName: __ZN5Eigen8internal13sub_assign_opIddEC1Ev, symObjAddr: 0xB500, symBinAddr: 0x10000E71C, symSize: 0x2C }
  - { offsetInCU: 0x8A56A, offset: 0x8A56A, size: 0x8, addend: 0x0, symName: __ZN5Eigen8internal10AssignmentINS_5BlockINS_3RefINS_6MatrixIdLin1ELin1ELi0ELin1ELin1EEELi0ENS_11OuterStrideILin1EEEEELin1ELin1ELb0EEENS_7ProductINS2_INS2_IS8_Lin1ELi1ELb1EEELin1ELi1ELb0EEENS2_INS2_IS8_Li1ELin1ELb0EEELi1ELin1ELb0EEELi0EEENS0_13sub_assign_opIddEENS0_11Dense2DenseEvE3runERS9_RKSF_RKSH_, symObjAddr: 0xB52C, symBinAddr: 0x10000E748, symSize: 0xE0 }
  - { offsetInCU: 0x8A5A6, offset: 0x8A5A6, size: 0x8, addend: 0x0, symName: __ZNK5Eigen7MapBaseINS_5BlockINS_3RefINS_6MatrixIdLin1ELin1ELi0ELin1ELin1EEELi0ENS_11OuterStrideILin1EEEEELin1ELin1ELb0EEELi0EE4rowsEv, symObjAddr: 0xB60C, symBinAddr: 0x10000E828, symSize: 0x28 }
  - { offsetInCU: 0x8A5CC, offset: 0x8A5CC, size: 0x8, addend: 0x0, symName: __ZNK5Eigen7ProductINS_5BlockINS1_INS_3RefINS_6MatrixIdLin1ELin1ELi0ELin1ELin1EEELi0ENS_11OuterStrideILin1EEEEELin1ELi1ELb1EEELin1ELi1ELb0EEENS1_INS1_IS7_Li1ELin1ELb0EEELi1ELin1ELb0EEELi0EE4rowsEv, symObjAddr: 0xB634, symBinAddr: 0x10000E850, symSize: 0x24 }
  - { offsetInCU: 0x8A5F2, offset: 0x8A5F2, size: 0x8, addend: 0x0, symName: __ZNK5Eigen7MapBaseINS_5BlockINS_3RefINS_6MatrixIdLin1ELin1ELi0ELin1ELin1EEELi0ENS_11OuterStrideILin1EEEEELin1ELin1ELb0EEELi0EE4colsEv, symObjAddr: 0xB658, symBinAddr: 0x10000E874, symSize: 0x28 }
  - { offsetInCU: 0x8A618, offset: 0x8A618, size: 0x8, addend: 0x0, symName: __ZNK5Eigen7ProductINS_5BlockINS1_INS_3RefINS_6MatrixIdLin1ELin1ELi0ELin1ELin1EEELi0ENS_11OuterStrideILin1EEEEELin1ELi1ELb1EEELin1ELi1ELb0EEENS1_INS1_IS7_Li1ELin1ELb0EEELi1ELin1ELb0EEELi0EE4colsEv, symObjAddr: 0xB680, symBinAddr: 0x10000E89C, symSize: 0x28 }
  - { offsetInCU: 0x8A63E, offset: 0x8A63E, size: 0x8, addend: 0x0, symName: __ZN5Eigen8internal20generic_product_implINS_5BlockINS2_INS_3RefINS_6MatrixIdLin1ELin1ELi0ELin1ELin1EEELi0ENS_11OuterStrideILin1EEEEELin1ELi1ELb1EEELin1ELi1ELb0EEENS2_INS2_IS8_Li1ELin1ELb0EEELi1ELin1ELb0EEENS_10DenseShapeESD_Li5EE5subToINS2_IS8_Lin1ELin1ELb0EEEEEvRT_RKSA_RKSC_, symObjAddr: 0xB6A8, symBinAddr: 0x10000E8C4, symSize: 0x3C }
  - { offsetInCU: 0x8A689, offset: 0x8A689, size: 0x8, addend: 0x0, symName: __ZNK5Eigen7ProductINS_5BlockINS1_INS_3RefINS_6MatrixIdLin1ELin1ELi0ELin1ELin1EEELi0ENS_11OuterStrideILin1EEEEELin1ELi1ELb1EEELin1ELi1ELb0EEENS1_INS1_IS7_Li1ELin1ELb0EEELi1ELin1ELb0EEELi0EE3lhsEv, symObjAddr: 0xB6E4, symBinAddr: 0x10000E900, symSize: 0x14 }
  - { offsetInCU: 0x8A6AF, offset: 0x8A6AF, size: 0x8, addend: 0x0, symName: __ZNK5Eigen7ProductINS_5BlockINS1_INS_3RefINS_6MatrixIdLin1ELin1ELi0ELin1ELin1EEELi0ENS_11OuterStrideILin1EEEEELin1ELi1ELb1EEELin1ELi1ELb0EEENS1_INS1_IS7_Li1ELin1ELb0EEELi1ELin1ELb0EEELi0EE3rhsEv, symObjAddr: 0xB6F8, symBinAddr: 0x10000E914, symSize: 0x18 }
  - { offsetInCU: 0x8A6D5, offset: 0x8A6D5, size: 0x8, addend: 0x0, symName: __ZNK5Eigen7MapBaseINS_5BlockINS1_INS_3RefINS_6MatrixIdLin1ELin1ELi0ELin1ELin1EEELi0ENS_11OuterStrideILin1EEEEELi1ELin1ELb0EEELi1ELin1ELb0EEELi0EE4colsEv, symObjAddr: 0xB710, symBinAddr: 0x10000E92C, symSize: 0x28 }
  - { offsetInCU: 0x8A719, offset: 0x8A719, size: 0x8, addend: 0x0, symName: __ZN5Eigen8internal9evaluatorINS_5BlockINS2_INS_3RefINS_6MatrixIdLin1ELin1ELi0ELin1ELin1EEELi0ENS_11OuterStrideILin1EEEEELi1ELin1ELb0EEELi1ELin1ELb0EEEEC1ERKSA_, symObjAddr: 0xB894, symBinAddr: 0x10000EAB0, symSize: 0x34 }
  - { offsetInCU: 0x8A75C, offset: 0x8A75C, size: 0x8, addend: 0x0, symName: __ZN5Eigen8internal25local_nested_eval_wrapperINS_5BlockINS2_INS_3RefINS_6MatrixIdLin1ELin1ELi0ELin1ELin1EEELi0ENS_11OuterStrideILin1EEEEELin1ELi1ELb1EEELin1ELi1ELb0EEELin1ELb0EEC1ERKSA_Pd, symObjAddr: 0xB8C8, symBinAddr: 0x10000EAE4, symSize: 0x3C }
  - { offsetInCU: 0x8A7AE, offset: 0x8A7AE, size: 0x8, addend: 0x0, symName: __ZNK5Eigen8internal20generic_product_implINS_5BlockINS2_INS_3RefINS_6MatrixIdLin1ELin1ELi0ELin1ELin1EEELi0ENS_11OuterStrideILin1EEEEELin1ELi1ELb1EEELin1ELi1ELb0EEENS2_INS2_IS8_Li1ELin1ELb0EEELi1ELin1ELb0EEENS_10DenseShapeESD_Li5EE3subclINS2_INS2_IS8_Lin1ELin1ELb0EEELin1ELi1ELb1EEENS_13CwiseBinaryOpINS0_17scalar_product_opIddEEKNS_14CwiseNullaryOpINS0_18scalar_constant_opIdEEKNS4_IdLin1ELi1ELi0ELin1ELi1EEEEEKSA_EEEEvRKT_RKT0_, symObjAddr: 0xB904, symBinAddr: 0x10000EB20, symSize: 0x3C }
  - { offsetInCU: 0x8A804, offset: 0x8A804, size: 0x8, addend: 0x0, symName: __ZN5Eigen9DenseBaseINS_5BlockINS_3RefINS_6MatrixIdLin1ELin1ELi0ELin1ELin1EEELi0ENS_11OuterStrideILin1EEEEELin1ELin1ELb0EEEE3colEl, symObjAddr: 0xB940, symBinAddr: 0x10000EB5C, symSize: 0x3C }
  - { offsetInCU: 0x8A839, offset: 0x8A839, size: 0x8, addend: 0x0, symName: __ZNK5Eigen8internal17mapbase_evaluatorINS_5BlockINS2_INS_3RefINS_6MatrixIdLin1ELin1ELi0ELin1ELin1EEELi0ENS_11OuterStrideILin1EEEEELi1ELin1ELb0EEELi1ELin1ELb0EEENS4_IdLi1ELin1ELi1ELi1ELin1EEEE5coeffEll, symObjAddr: 0xBA18, symBinAddr: 0x10000EC34, symSize: 0x78 }
  - { offsetInCU: 0x8A87D, offset: 0x8A87D, size: 0x8, addend: 0x0, symName: __ZN5Eigen8internal9evaluatorINS_5BlockINS2_INS_3RefINS_6MatrixIdLin1ELin1ELi0ELin1ELin1EEELi0ENS_11OuterStrideILin1EEEEELi1ELin1ELb0EEELi1ELin1ELb0EEEED1Ev, symObjAddr: 0xBA90, symBinAddr: 0x10000ECAC, symSize: 0x2C }
  - { offsetInCU: 0x8A8AA, offset: 0x8A8AA, size: 0x8, addend: 0x0, symName: __ZN5Eigen8internal9evaluatorINS_5BlockINS2_INS_3RefINS_6MatrixIdLin1ELin1ELi0ELin1ELin1EEELi0ENS_11OuterStrideILin1EEEEELi1ELin1ELb0EEELi1ELin1ELb0EEEEC2ERKSA_, symObjAddr: 0xBABC, symBinAddr: 0x10000ECD8, symSize: 0x34 }
  - { offsetInCU: 0x8A8E3, offset: 0x8A8E3, size: 0x8, addend: 0x0, symName: __ZN5Eigen8internal15block_evaluatorINS_5BlockINS_3RefINS_6MatrixIdLin1ELin1ELi0ELin1ELin1EEELi0ENS_11OuterStrideILin1EEEEELi1ELin1ELb0EEELi1ELin1ELb0ELb1EEC2ERKNS2_IS9_Li1ELin1ELb0EEE, symObjAddr: 0xBAF0, symBinAddr: 0x10000ED0C, symSize: 0xDC }
  - { offsetInCU: 0x8A91C, offset: 0x8A91C, size: 0x8, addend: 0x0, symName: __ZN5Eigen8internal17mapbase_evaluatorINS_5BlockINS2_INS_3RefINS_6MatrixIdLin1ELin1ELi0ELin1ELin1EEELi0ENS_11OuterStrideILin1EEEEELi1ELin1ELb0EEELi1ELin1ELb0EEENS4_IdLi1ELin1ELi1ELi1ELin1EEEEC2ERKSA_, symObjAddr: 0xBBCC, symBinAddr: 0x10000EDE8, symSize: 0xB0 }
  - { offsetInCU: 0x8A955, offset: 0x8A955, size: 0x8, addend: 0x0, symName: __ZNK5Eigen7MapBaseINS_5BlockINS1_INS_3RefINS_6MatrixIdLin1ELin1ELi0ELin1ELin1EEELi0ENS_11OuterStrideILin1EEEEELi1ELin1ELb0EEELi1ELin1ELb0EEELi1EE4dataEv, symObjAddr: 0xBC7C, symBinAddr: 0x10000EE98, symSize: 0x18 }
  - { offsetInCU: 0x8A97B, offset: 0x8A97B, size: 0x8, addend: 0x0, symName: __ZN5Eigen8internal17mapbase_evaluatorINS_5BlockINS2_INS_3RefINS_6MatrixIdLin1ELin1ELi0ELin1ELin1EEELi0ENS_11OuterStrideILin1EEEEELi1ELin1ELb0EEELi1ELin1ELb0EEENS4_IdLi1ELin1ELi1ELi1ELin1EEEED2Ev, symObjAddr: 0xBC94, symBinAddr: 0x10000EEB0, symSize: 0x2C }
  - { offsetInCU: 0x8A9A8, offset: 0x8A9A8, size: 0x8, addend: 0x0, symName: __ZN5Eigen8internal14evaluator_baseINS_5BlockINS2_INS_3RefINS_6MatrixIdLin1ELin1ELi0ELin1ELin1EEELi0ENS_11OuterStrideILin1EEEEELi1ELin1ELb0EEELi1ELin1ELb0EEEEC2Ev, symObjAddr: 0xBCC0, symBinAddr: 0x10000EEDC, symSize: 0x14 }
  - { offsetInCU: 0x8A9D2, offset: 0x8A9D2, size: 0x8, addend: 0x0, symName: __ZNK5Eigen8internal15BlockImpl_denseINS_5BlockINS_3RefINS_6MatrixIdLin1ELin1ELi0ELin1ELin1EEELi0ENS_11OuterStrideILin1EEEEELi1ELin1ELb0EEELi1ELin1ELb0ELb1EE11innerStrideEv, symObjAddr: 0xBCD4, symBinAddr: 0x10000EEF0, symSize: 0x28 }
  - { offsetInCU: 0x8A9F8, offset: 0x8A9F8, size: 0x8, addend: 0x0, symName: __ZNK5Eigen8internal15BlockImpl_denseINS_5BlockINS_3RefINS_6MatrixIdLin1ELin1ELi0ELin1ELin1EEELi0ENS_11OuterStrideILin1EEEEELi1ELin1ELb0EEELi1ELin1ELb0ELb1EE11outerStrideEv, symObjAddr: 0xBCFC, symBinAddr: 0x10000EF18, symSize: 0x28 }
  - { offsetInCU: 0x8AA1E, offset: 0x8AA1E, size: 0x8, addend: 0x0, symName: __ZN5Eigen8internal14evaluator_baseINS_5BlockINS2_INS_3RefINS_6MatrixIdLin1ELin1ELi0ELin1ELin1EEELi0ENS_11OuterStrideILin1EEEEELi1ELin1ELb0EEELi1ELin1ELb0EEEED2Ev, symObjAddr: 0xBD24, symBinAddr: 0x10000EF40, symSize: 0x14 }
  - { offsetInCU: 0x8AA48, offset: 0x8AA48, size: 0x8, addend: 0x0, symName: __ZN5Eigen8internal25local_nested_eval_wrapperINS_5BlockINS2_INS_3RefINS_6MatrixIdLin1ELin1ELi0ELin1ELin1EEELi0ENS_11OuterStrideILin1EEEEELin1ELi1ELb1EEELin1ELi1ELb0EEELin1ELb0EEC2ERKSA_Pd, symObjAddr: 0xBD38, symBinAddr: 0x10000EF54, symSize: 0x4C }
  - { offsetInCU: 0x8AA90, offset: 0x8AA90, size: 0x8, addend: 0x0, symName: __ZNK5Eigen9EigenBaseINS_5BlockINS1_INS_3RefINS_6MatrixIdLin1ELin1ELi0ELin1ELin1EEELi0ENS_11OuterStrideILin1EEEEELin1ELin1ELb0EEELin1ELi1ELb1EEEE18const_cast_derivedEv, symObjAddr: 0xBD94, symBinAddr: 0x10000EFB0, symSize: 0x14 }
  - { offsetInCU: 0x8AAB6, offset: 0x8AAB6, size: 0x8, addend: 0x0, symName: __ZN5Eigen10MatrixBaseINS_5BlockINS1_INS_3RefINS_6MatrixIdLin1ELin1ELi0ELin1ELin1EEELi0ENS_11OuterStrideILin1EEEEELin1ELin1ELb0EEELin1ELi1ELb1EEEEmIINS_13CwiseBinaryOpINS_8internal17scalar_product_opIddEEKNS_14CwiseNullaryOpINSD_18scalar_constant_opIdEEKNS3_IdLin1ELi1ELi0ELin1ELi1EEEEEKNS1_INS1_IS7_Lin1ELi1ELb1EEELin1ELi1ELb0EEEEEEERS9_RKNS0_IT_EE, symObjAddr: 0xBDA8, symBinAddr: 0x10000EFC4, symSize: 0x64 }
  - { offsetInCU: 0x8AAF5, offset: 0x8AAF5, size: 0x8, addend: 0x0, symName: __ZN5Eigen9EigenBaseINS_5BlockINS1_INS_3RefINS_6MatrixIdLin1ELin1ELi0ELin1ELin1EEELi0ENS_11OuterStrideILin1EEEEELin1ELin1ELb0EEELin1ELi1ELb1EEEE7derivedEv, symObjAddr: 0xBE44, symBinAddr: 0x10000F060, symSize: 0x14 }
  - { offsetInCU: 0x8AB1B, offset: 0x8AB1B, size: 0x8, addend: 0x0, symName: __ZNK5Eigen9EigenBaseINS_13CwiseBinaryOpINS_8internal17scalar_product_opIddEEKNS_14CwiseNullaryOpINS2_18scalar_constant_opIdEEKNS_6MatrixIdLin1ELi1ELi0ELin1ELi1EEEEEKNS_5BlockINSD_INS_3RefINS8_IdLin1ELin1ELi0ELin1ELin1EEELi0ENS_11OuterStrideILin1EEEEELin1ELi1ELb1EEELin1ELi1ELb0EEEEEE7derivedEv, symObjAddr: 0xBE58, symBinAddr: 0x10000F074, symSize: 0x14 }
  - { offsetInCU: 0x8AB41, offset: 0x8AB41, size: 0x8, addend: 0x0, symName: __ZN5Eigen8internal10AssignmentINS_5BlockINS2_INS_3RefINS_6MatrixIdLin1ELin1ELi0ELin1ELin1EEELi0ENS_11OuterStrideILin1EEEEELin1ELin1ELb0EEELin1ELi1ELb1EEENS_13CwiseBinaryOpINS0_17scalar_product_opIddEEKNS_14CwiseNullaryOpINS0_18scalar_constant_opIdEEKNS4_IdLin1ELi1ELi0ELin1ELi1EEEEEKNS2_INS2_IS8_Lin1ELi1ELb1EEELin1ELi1ELb0EEEEENS0_13sub_assign_opIddEENS0_11Dense2DenseEvE3runERSA_RKSO_RKSQ_, symObjAddr: 0xBEA8, symBinAddr: 0x10000F0C4, symSize: 0x40 }
  - { offsetInCU: 0x8AB83, offset: 0x8AB83, size: 0x8, addend: 0x0, symName: __ZN5Eigen8internal9evaluatorINS_13CwiseBinaryOpINS0_17scalar_product_opIddEEKNS_14CwiseNullaryOpINS0_18scalar_constant_opIdEEKNS_6MatrixIdLin1ELi1ELi0ELin1ELi1EEEEEKNS_5BlockINSD_INS_3RefINS8_IdLin1ELin1ELi0ELin1ELin1EEELi0ENS_11OuterStrideILin1EEEEELin1ELi1ELb1EEELin1ELi1ELb0EEEEEEC1ERKSM_, symObjAddr: 0xBFD4, symBinAddr: 0x10000F1F0, symSize: 0x34 }
  - { offsetInCU: 0x8ABBC, offset: 0x8ABBC, size: 0x8, addend: 0x0, symName: __ZN5Eigen8internal9evaluatorINS_5BlockINS2_INS_3RefINS_6MatrixIdLin1ELin1ELi0ELin1ELin1EEELi0ENS_11OuterStrideILin1EEEEELin1ELin1ELb0EEELin1ELi1ELb1EEEEC1ERKSA_, symObjAddr: 0xC0BC, symBinAddr: 0x10000F2D8, symSize: 0x34 }
  - { offsetInCU: 0x8ABF5, offset: 0x8ABF5, size: 0x8, addend: 0x0, symName: __ZN5Eigen8internal31generic_dense_assignment_kernelINS0_9evaluatorINS_5BlockINS3_INS_3RefINS_6MatrixIdLin1ELin1ELi0ELin1ELin1EEELi0ENS_11OuterStrideILin1EEEEELin1ELin1ELb0EEELin1ELi1ELb1EEEEENS2_INS_13CwiseBinaryOpINS0_17scalar_product_opIddEEKNS_14CwiseNullaryOpINS0_18scalar_constant_opIdEEKNS5_IdLin1ELi1ELi0ELin1ELi1EEEEEKNS3_INS3_IS9_Lin1ELi1ELb1EEELin1ELi1ELb0EEEEEEENS0_13sub_assign_opIddEELi0EEC1ERSC_RKSR_RKST_RSB_, symObjAddr: 0xC0F0, symBinAddr: 0x10000F30C, symSize: 0x4C }
  - { offsetInCU: 0x8AC5B, offset: 0x8AC5B, size: 0x8, addend: 0x0, symName: __ZN5Eigen8internal9evaluatorINS_5BlockINS2_INS_3RefINS_6MatrixIdLin1ELin1ELi0ELin1ELin1EEELi0ENS_11OuterStrideILin1EEEEELin1ELin1ELb0EEELin1ELi1ELb1EEEED1Ev, symObjAddr: 0xC1FC, symBinAddr: 0x10000F418, symSize: 0x2C }
  - { offsetInCU: 0x8AC88, offset: 0x8AC88, size: 0x8, addend: 0x0, symName: __ZN5Eigen8internal9evaluatorINS_13CwiseBinaryOpINS0_17scalar_product_opIddEEKNS_14CwiseNullaryOpINS0_18scalar_constant_opIdEEKNS_6MatrixIdLin1ELi1ELi0ELin1ELi1EEEEEKNS_5BlockINSD_INS_3RefINS8_IdLin1ELin1ELi0ELin1ELin1EEELi0ENS_11OuterStrideILin1EEEEELin1ELi1ELb1EEELin1ELi1ELb0EEEEEED1Ev, symObjAddr: 0xC228, symBinAddr: 0x10000F444, symSize: 0x2C }
  - { offsetInCU: 0x8ACB5, offset: 0x8ACB5, size: 0x8, addend: 0x0, symName: __ZN5Eigen8internal9evaluatorINS_13CwiseBinaryOpINS0_17scalar_product_opIddEEKNS_14CwiseNullaryOpINS0_18scalar_constant_opIdEEKNS_6MatrixIdLin1ELi1ELi0ELin1ELi1EEEEEKNS_5BlockINSD_INS_3RefINS8_IdLin1ELin1ELi0ELin1ELin1EEELi0ENS_11OuterStrideILin1EEEEELin1ELi1ELb1EEELin1ELi1ELb0EEEEEEC2ERKSM_, symObjAddr: 0xC254, symBinAddr: 0x10000F470, symSize: 0x34 }
  - { offsetInCU: 0x8ACEE, offset: 0x8ACEE, size: 0x8, addend: 0x0, symName: __ZN5Eigen8internal16binary_evaluatorINS_13CwiseBinaryOpINS0_17scalar_product_opIddEEKNS_14CwiseNullaryOpINS0_18scalar_constant_opIdEEKNS_6MatrixIdLin1ELi1ELi0ELin1ELi1EEEEEKNS_5BlockINSD_INS_3RefINS8_IdLin1ELin1ELi0ELin1ELin1EEELi0ENS_11OuterStrideILin1EEEEELin1ELi1ELb1EEELin1ELi1ELb0EEEEENS0_10IndexBasedESN_ddEC2ERKSM_, symObjAddr: 0xC288, symBinAddr: 0x10000F4A4, symSize: 0x64 }
  - { offsetInCU: 0x8AD27, offset: 0x8AD27, size: 0x8, addend: 0x0, symName: __ZN5Eigen8internal14evaluator_baseINS_13CwiseBinaryOpINS0_17scalar_product_opIddEEKNS_14CwiseNullaryOpINS0_18scalar_constant_opIdEEKNS_6MatrixIdLin1ELi1ELi0ELin1ELi1EEEEEKNS_5BlockINSD_INS_3RefINS8_IdLin1ELin1ELi0ELin1ELin1EEELi0ENS_11OuterStrideILin1EEEEELin1ELi1ELb1EEELin1ELi1ELb0EEEEEEC2Ev, symObjAddr: 0xC2EC, symBinAddr: 0x10000F508, symSize: 0x14 }
  - { offsetInCU: 0x8AD51, offset: 0x8AD51, size: 0x8, addend: 0x0, symName: __ZN5Eigen8internal16binary_evaluatorINS_13CwiseBinaryOpINS0_17scalar_product_opIddEEKNS_14CwiseNullaryOpINS0_18scalar_constant_opIdEEKNS_6MatrixIdLin1ELi1ELi0ELin1ELi1EEEEEKNS_5BlockINSD_INS_3RefINS8_IdLin1ELin1ELi0ELin1ELin1EEELi0ENS_11OuterStrideILin1EEEEELin1ELi1ELb1EEELin1ELi1ELb0EEEEENS0_10IndexBasedESN_ddE4DataC1ERKSM_, symObjAddr: 0xC300, symBinAddr: 0x10000F51C, symSize: 0x34 }
  - { offsetInCU: 0x8AD8A, offset: 0x8AD8A, size: 0x8, addend: 0x0, symName: __ZN5Eigen8internal14evaluator_baseINS_13CwiseBinaryOpINS0_17scalar_product_opIddEEKNS_14CwiseNullaryOpINS0_18scalar_constant_opIdEEKNS_6MatrixIdLin1ELi1ELi0ELin1ELi1EEEEEKNS_5BlockINSD_INS_3RefINS8_IdLin1ELin1ELi0ELin1ELin1EEELi0ENS_11OuterStrideILin1EEEEELin1ELi1ELb1EEELin1ELi1ELb0EEEEEED2Ev, symObjAddr: 0xC334, symBinAddr: 0x10000F550, symSize: 0x14 }
  - { offsetInCU: 0x8ADB4, offset: 0x8ADB4, size: 0x8, addend: 0x0, symName: __ZN5Eigen8internal16binary_evaluatorINS_13CwiseBinaryOpINS0_17scalar_product_opIddEEKNS_14CwiseNullaryOpINS0_18scalar_constant_opIdEEKNS_6MatrixIdLin1ELi1ELi0ELin1ELi1EEEEEKNS_5BlockINSD_INS_3RefINS8_IdLin1ELin1ELi0ELin1ELin1EEELi0ENS_11OuterStrideILin1EEEEELin1ELi1ELb1EEELin1ELi1ELb0EEEEENS0_10IndexBasedESN_ddE4DataC2ERKSM_, symObjAddr: 0xC348, symBinAddr: 0x10000F564, symSize: 0xA8 }
  - { offsetInCU: 0x8ADED, offset: 0x8ADED, size: 0x8, addend: 0x0, symName: __ZNK5Eigen13CwiseBinaryOpINS_8internal17scalar_product_opIddEEKNS_14CwiseNullaryOpINS1_18scalar_constant_opIdEEKNS_6MatrixIdLin1ELi1ELi0ELin1ELi1EEEEEKNS_5BlockINSC_INS_3RefINS7_IdLin1ELin1ELi0ELin1ELin1EEELi0ENS_11OuterStrideILin1EEEEELin1ELi1ELb1EEELin1ELi1ELb0EEEE7functorEv, symObjAddr: 0xC3F0, symBinAddr: 0x10000F60C, symSize: 0x18 }
  - { offsetInCU: 0x8AE13, offset: 0x8AE13, size: 0x8, addend: 0x0, symName: __ZN5Eigen8internal17scalar_product_opIddEC1ERKS2_, symObjAddr: 0xC408, symBinAddr: 0x10000F624, symSize: 0x34 }
  - { offsetInCU: 0x8AE48, offset: 0x8AE48, size: 0x8, addend: 0x0, symName: __ZNK5Eigen13CwiseBinaryOpINS_8internal17scalar_product_opIddEEKNS_14CwiseNullaryOpINS1_18scalar_constant_opIdEEKNS_6MatrixIdLin1ELi1ELi0ELin1ELi1EEEEEKNS_5BlockINSC_INS_3RefINS7_IdLin1ELin1ELi0ELin1ELin1EEELi0ENS_11OuterStrideILin1EEEEELin1ELi1ELb1EEELin1ELi1ELb0EEEE3lhsEv, symObjAddr: 0xC43C, symBinAddr: 0x10000F658, symSize: 0x18 }
  - { offsetInCU: 0x8AE6E, offset: 0x8AE6E, size: 0x8, addend: 0x0, symName: __ZN5Eigen8internal9evaluatorIKNS_14CwiseNullaryOpINS0_18scalar_constant_opIdEEKNS_6MatrixIdLin1ELi1ELi0ELin1ELi1EEEEEEC1ERS9_, symObjAddr: 0xC454, symBinAddr: 0x10000F670, symSize: 0x34 }
  - { offsetInCU: 0x8AEA6, offset: 0x8AEA6, size: 0x8, addend: 0x0, symName: __ZNK5Eigen13CwiseBinaryOpINS_8internal17scalar_product_opIddEEKNS_14CwiseNullaryOpINS1_18scalar_constant_opIdEEKNS_6MatrixIdLin1ELi1ELi0ELin1ELi1EEEEEKNS_5BlockINSC_INS_3RefINS7_IdLin1ELin1ELi0ELin1ELin1EEELi0ENS_11OuterStrideILin1EEEEELin1ELi1ELb1EEELin1ELi1ELb0EEEE3rhsEv, symObjAddr: 0xC488, symBinAddr: 0x10000F6A4, symSize: 0x18 }
  - { offsetInCU: 0x8AECC, offset: 0x8AECC, size: 0x8, addend: 0x0, symName: __ZN5Eigen8internal9evaluatorIKNS_14CwiseNullaryOpINS0_18scalar_constant_opIdEEKNS_6MatrixIdLin1ELi1ELi0ELin1ELi1EEEEEED1Ev, symObjAddr: 0xC4A0, symBinAddr: 0x10000F6BC, symSize: 0x2C }
  - { offsetInCU: 0x8AEF8, offset: 0x8AEF8, size: 0x8, addend: 0x0, symName: __ZN5Eigen8internal17scalar_product_opIddEC2ERKS2_, symObjAddr: 0xC4CC, symBinAddr: 0x10000F6E8, symSize: 0x18 }
  - { offsetInCU: 0x8AF2D, offset: 0x8AF2D, size: 0x8, addend: 0x0, symName: __ZN5Eigen8internal9evaluatorIKNS_14CwiseNullaryOpINS0_18scalar_constant_opIdEEKNS_6MatrixIdLin1ELi1ELi0ELin1ELi1EEEEEEC2ERS9_, symObjAddr: 0xC4E4, symBinAddr: 0x10000F700, symSize: 0x34 }
  - { offsetInCU: 0x8AF65, offset: 0x8AF65, size: 0x8, addend: 0x0, symName: __ZN5Eigen8internal9evaluatorINS_14CwiseNullaryOpINS0_18scalar_constant_opIdEEKNS_6MatrixIdLin1ELi1ELi0ELin1ELi1EEEEEEC2ERKS8_, symObjAddr: 0xC518, symBinAddr: 0x10000F734, symSize: 0x74 }
  - { offsetInCU: 0x8AF9E, offset: 0x8AF9E, size: 0x8, addend: 0x0, symName: __ZN5Eigen8internal14evaluator_baseINS_14CwiseNullaryOpINS0_18scalar_constant_opIdEEKNS_6MatrixIdLin1ELi1ELi0ELin1ELi1EEEEEEC2Ev, symObjAddr: 0xC58C, symBinAddr: 0x10000F7A8, symSize: 0x14 }
  - { offsetInCU: 0x8AFC8, offset: 0x8AFC8, size: 0x8, addend: 0x0, symName: __ZNK5Eigen14CwiseNullaryOpINS_8internal18scalar_constant_opIdEEKNS_6MatrixIdLin1ELi1ELi0ELin1ELi1EEEE7functorEv, symObjAddr: 0xC5A0, symBinAddr: 0x10000F7BC, symSize: 0x18 }
  - { offsetInCU: 0x8AFEE, offset: 0x8AFEE, size: 0x8, addend: 0x0, symName: __ZN5Eigen8internal14evaluator_baseINS_14CwiseNullaryOpINS0_18scalar_constant_opIdEEKNS_6MatrixIdLin1ELi1ELi0ELin1ELi1EEEEEED2Ev, symObjAddr: 0xC5B8, symBinAddr: 0x10000F7D4, symSize: 0x14 }
  - { offsetInCU: 0x8B018, offset: 0x8B018, size: 0x8, addend: 0x0, symName: __ZN5Eigen8internal9evaluatorIKNS_14CwiseNullaryOpINS0_18scalar_constant_opIdEEKNS_6MatrixIdLin1ELi1ELi0ELin1ELi1EEEEEED2Ev, symObjAddr: 0xC5CC, symBinAddr: 0x10000F7E8, symSize: 0x2C }
  - { offsetInCU: 0x8B044, offset: 0x8B044, size: 0x8, addend: 0x0, symName: __ZN5Eigen8internal9evaluatorINS_14CwiseNullaryOpINS0_18scalar_constant_opIdEEKNS_6MatrixIdLin1ELi1ELi0ELin1ELi1EEEEEED2Ev, symObjAddr: 0xC5F8, symBinAddr: 0x10000F814, symSize: 0x2C }
  - { offsetInCU: 0x8B070, offset: 0x8B070, size: 0x8, addend: 0x0, symName: __ZNK5Eigen7MapBaseINS_5BlockINS1_INS_3RefINS_6MatrixIdLin1ELin1ELi0ELin1ELin1EEELi0ENS_11OuterStrideILin1EEEEELin1ELin1ELb0EEELin1ELi1ELb1EEELi0EE4rowsEv, symObjAddr: 0xC624, symBinAddr: 0x10000F840, symSize: 0x28 }
  - { offsetInCU: 0x8B096, offset: 0x8B096, size: 0x8, addend: 0x0, symName: __ZNK5Eigen13CwiseBinaryOpINS_8internal17scalar_product_opIddEEKNS_14CwiseNullaryOpINS1_18scalar_constant_opIdEEKNS_6MatrixIdLin1ELi1ELi0ELin1ELi1EEEEEKNS_5BlockINSC_INS_3RefINS7_IdLin1ELin1ELi0ELin1ELin1EEELi0ENS_11OuterStrideILin1EEEEELin1ELi1ELb1EEELin1ELi1ELb0EEEE4rowsEv, symObjAddr: 0xC64C, symBinAddr: 0x10000F868, symSize: 0x28 }
  - { offsetInCU: 0x8B0BC, offset: 0x8B0BC, size: 0x8, addend: 0x0, symName: __ZNK5Eigen7MapBaseINS_5BlockINS1_INS_3RefINS_6MatrixIdLin1ELin1ELi0ELin1ELin1EEELi0ENS_11OuterStrideILin1EEEEELin1ELin1ELb0EEELin1ELi1ELb1EEELi0EE4colsEv, symObjAddr: 0xC674, symBinAddr: 0x10000F890, symSize: 0x20 }
  - { offsetInCU: 0x8B0E2, offset: 0x8B0E2, size: 0x8, addend: 0x0, symName: __ZNK5Eigen13CwiseBinaryOpINS_8internal17scalar_product_opIddEEKNS_14CwiseNullaryOpINS1_18scalar_constant_opIdEEKNS_6MatrixIdLin1ELi1ELi0ELin1ELi1EEEEEKNS_5BlockINSC_INS_3RefINS7_IdLin1ELin1ELi0ELin1ELin1EEELi0ENS_11OuterStrideILin1EEEEELin1ELi1ELb1EEELin1ELi1ELb0EEEE4colsEv, symObjAddr: 0xC694, symBinAddr: 0x10000F8B0, symSize: 0x38 }
  - { offsetInCU: 0x8B108, offset: 0x8B108, size: 0x8, addend: 0x0, symName: __ZNK5Eigen14CwiseNullaryOpINS_8internal18scalar_constant_opIdEEKNS_6MatrixIdLin1ELi1ELi0ELin1ELi1EEEE4colsEv, symObjAddr: 0xC6CC, symBinAddr: 0x10000F8E8, symSize: 0x20 }
  - { offsetInCU: 0x8B12E, offset: 0x8B12E, size: 0x8, addend: 0x0, symName: __ZN5Eigen8internal9evaluatorINS_5BlockINS2_INS_3RefINS_6MatrixIdLin1ELin1ELi0ELin1ELin1EEELi0ENS_11OuterStrideILin1EEEEELin1ELin1ELb0EEELin1ELi1ELb1EEEEC2ERKSA_, symObjAddr: 0xC6EC, symBinAddr: 0x10000F908, symSize: 0x34 }
  - { offsetInCU: 0x8B167, offset: 0x8B167, size: 0x8, addend: 0x0, symName: __ZN5Eigen8internal15block_evaluatorINS_5BlockINS_3RefINS_6MatrixIdLin1ELin1ELi0ELin1ELin1EEELi0ENS_11OuterStrideILin1EEEEELin1ELin1ELb0EEELin1ELi1ELb1ELb1EEC2ERKNS2_IS9_Lin1ELi1ELb1EEE, symObjAddr: 0xC720, symBinAddr: 0x10000F93C, symSize: 0xDC }
  - { offsetInCU: 0x8B1A0, offset: 0x8B1A0, size: 0x8, addend: 0x0, symName: __ZN5Eigen8internal17mapbase_evaluatorINS_5BlockINS2_INS_3RefINS_6MatrixIdLin1ELin1ELi0ELin1ELin1EEELi0ENS_11OuterStrideILin1EEEEELin1ELin1ELb0EEELin1ELi1ELb1EEENS4_IdLin1ELi1ELi0ELin1ELi1EEEEC2ERKSA_, symObjAddr: 0xC7FC, symBinAddr: 0x10000FA18, symSize: 0xB0 }
  - { offsetInCU: 0x8B1D9, offset: 0x8B1D9, size: 0x8, addend: 0x0, symName: __ZNK5Eigen7MapBaseINS_5BlockINS1_INS_3RefINS_6MatrixIdLin1ELin1ELi0ELin1ELin1EEELi0ENS_11OuterStrideILin1EEEEELin1ELin1ELb0EEELin1ELi1ELb1EEELi1EE4dataEv, symObjAddr: 0xC8AC, symBinAddr: 0x10000FAC8, symSize: 0x18 }
  - { offsetInCU: 0x8B1FF, offset: 0x8B1FF, size: 0x8, addend: 0x0, symName: __ZN5Eigen8internal17mapbase_evaluatorINS_5BlockINS2_INS_3RefINS_6MatrixIdLin1ELin1ELi0ELin1ELin1EEELi0ENS_11OuterStrideILin1EEEEELin1ELin1ELb0EEELin1ELi1ELb1EEENS4_IdLin1ELi1ELi0ELin1ELi1EEEED2Ev, symObjAddr: 0xC8C4, symBinAddr: 0x10000FAE0, symSize: 0x2C }
  - { offsetInCU: 0x8B22C, offset: 0x8B22C, size: 0x8, addend: 0x0, symName: __ZN5Eigen8internal14evaluator_baseINS_5BlockINS2_INS_3RefINS_6MatrixIdLin1ELin1ELi0ELin1ELin1EEELi0ENS_11OuterStrideILin1EEEEELin1ELin1ELb0EEELin1ELi1ELb1EEEEC2Ev, symObjAddr: 0xC8F0, symBinAddr: 0x10000FB0C, symSize: 0x14 }
  - { offsetInCU: 0x8B256, offset: 0x8B256, size: 0x8, addend: 0x0, symName: __ZNK5Eigen8internal15BlockImpl_denseINS_5BlockINS_3RefINS_6MatrixIdLin1ELin1ELi0ELin1ELin1EEELi0ENS_11OuterStrideILin1EEEEELin1ELin1ELb0EEELin1ELi1ELb1ELb1EE11innerStrideEv, symObjAddr: 0xC904, symBinAddr: 0x10000FB20, symSize: 0x28 }
  - { offsetInCU: 0x8B27C, offset: 0x8B27C, size: 0x8, addend: 0x0, symName: __ZNK5Eigen8internal15BlockImpl_denseINS_5BlockINS_3RefINS_6MatrixIdLin1ELin1ELi0ELin1ELin1EEELi0ENS_11OuterStrideILin1EEEEELin1ELin1ELb0EEELin1ELi1ELb1ELb1EE11outerStrideEv, symObjAddr: 0xC92C, symBinAddr: 0x10000FB48, symSize: 0x28 }
  - { offsetInCU: 0x8B2A2, offset: 0x8B2A2, size: 0x8, addend: 0x0, symName: __ZN5Eigen8internal14evaluator_baseINS_5BlockINS2_INS_3RefINS_6MatrixIdLin1ELin1ELi0ELin1ELin1EEELi0ENS_11OuterStrideILin1EEEEELin1ELin1ELb0EEELin1ELi1ELb1EEEED2Ev, symObjAddr: 0xC954, symBinAddr: 0x10000FB70, symSize: 0x14 }
  - { offsetInCU: 0x8B2CC, offset: 0x8B2CC, size: 0x8, addend: 0x0, symName: __ZNK5Eigen8internal15BlockImpl_denseINS_3RefINS_6MatrixIdLin1ELin1ELi0ELin1ELin1EEELi0ENS_11OuterStrideILin1EEEEELin1ELin1ELb0ELb1EE11innerStrideEv, symObjAddr: 0xC968, symBinAddr: 0x10000FB84, symSize: 0x28 }
  - { offsetInCU: 0x8B2F2, offset: 0x8B2F2, size: 0x8, addend: 0x0, symName: __ZNK5Eigen8internal15BlockImpl_denseINS_3RefINS_6MatrixIdLin1ELin1ELi0ELin1ELin1EEELi0ENS_11OuterStrideILin1EEEEELin1ELin1ELb0ELb1EE11outerStrideEv, symObjAddr: 0xC990, symBinAddr: 0x10000FBAC, symSize: 0x28 }
  - { offsetInCU: 0x8B318, offset: 0x8B318, size: 0x8, addend: 0x0, symName: __ZN5Eigen8internal31generic_dense_assignment_kernelINS0_9evaluatorINS_5BlockINS3_INS_3RefINS_6MatrixIdLin1ELin1ELi0ELin1ELin1EEELi0ENS_11OuterStrideILin1EEEEELin1ELin1ELb0EEELin1ELi1ELb1EEEEENS2_INS_13CwiseBinaryOpINS0_17scalar_product_opIddEEKNS_14CwiseNullaryOpINS0_18scalar_constant_opIdEEKNS5_IdLin1ELi1ELi0ELin1ELi1EEEEEKNS3_INS3_IS9_Lin1ELi1ELb1EEELin1ELi1ELb0EEEEEEENS0_13sub_assign_opIddEELi0EEC2ERSC_RKSR_RKST_RSB_, symObjAddr: 0xC9B8, symBinAddr: 0x10000FBD4, symSize: 0x44 }
  - { offsetInCU: 0x8B37E, offset: 0x8B37E, size: 0x8, addend: 0x0, symName: __ZNK5Eigen8internal31generic_dense_assignment_kernelINS0_9evaluatorINS_5BlockINS3_INS_3RefINS_6MatrixIdLin1ELin1ELi0ELin1ELin1EEELi0ENS_11OuterStrideILin1EEEEELin1ELin1ELb0EEELin1ELi1ELb1EEEEENS2_INS_13CwiseBinaryOpINS0_17scalar_product_opIddEEKNS_14CwiseNullaryOpINS0_18scalar_constant_opIdEEKNS5_IdLin1ELi1ELi0ELin1ELi1EEEEEKNS3_INS3_IS9_Lin1ELi1ELb1EEELin1ELi1ELb0EEEEEEENS0_13sub_assign_opIddEELi0EE4sizeEv, symObjAddr: 0xC9FC, symBinAddr: 0x10000FC18, symSize: 0x28 }
  - { offsetInCU: 0x8B3A4, offset: 0x8B3A4, size: 0x8, addend: 0x0, symName: __ZNK5Eigen8internal31generic_dense_assignment_kernelINS0_9evaluatorINS_5BlockINS3_INS_3RefINS_6MatrixIdLin1ELin1ELi0ELin1ELin1EEELi0ENS_11OuterStrideILin1EEEEELin1ELin1ELb0EEELin1ELi1ELb1EEEEENS2_INS_13CwiseBinaryOpINS0_17scalar_product_opIddEEKNS_14CwiseNullaryOpINS0_18scalar_constant_opIdEEKNS5_IdLin1ELi1ELi0ELin1ELi1EEEEEKNS3_INS3_IS9_Lin1ELi1ELb1EEELin1ELi1ELb0EEEEEEENS0_13sub_assign_opIddEELi0EE10dstDataPtrEv, symObjAddr: 0xCA24, symBinAddr: 0x10000FC40, symSize: 0x28 }
  - { offsetInCU: 0x8B3CA, offset: 0x8B3CA, size: 0x8, addend: 0x0, symName: __ZN5Eigen8internal31unaligned_dense_assignment_loopILb0EE3runINS0_31generic_dense_assignment_kernelINS0_9evaluatorINS_5BlockINS6_INS_3RefINS_6MatrixIdLin1ELin1ELi0ELin1ELin1EEELi0ENS_11OuterStrideILin1EEEEELin1ELin1ELb0EEELin1ELi1ELb1EEEEENS5_INS_13CwiseBinaryOpINS0_17scalar_product_opIddEEKNS_14CwiseNullaryOpINS0_18scalar_constant_opIdEEKNS8_IdLin1ELi1ELi0ELin1ELi1EEEEEKNS6_INS6_ISC_Lin1ELi1ELb1EEELin1ELi1ELb0EEEEEEENS0_13sub_assign_opIddEELi0EEEEEvRT_ll, symObjAddr: 0xCA4C, symBinAddr: 0x10000FC68, symSize: 0x68 }
  - { offsetInCU: 0x8B432, offset: 0x8B432, size: 0x8, addend: 0x0, symName: __ZN5Eigen8internal31generic_dense_assignment_kernelINS0_9evaluatorINS_5BlockINS3_INS_3RefINS_6MatrixIdLin1ELin1ELi0ELin1ELin1EEELi0ENS_11OuterStrideILin1EEEEELin1ELin1ELb0EEELin1ELi1ELb1EEEEENS2_INS_13CwiseBinaryOpINS0_17scalar_product_opIddEEKNS_14CwiseNullaryOpINS0_18scalar_constant_opIdEEKNS5_IdLin1ELi1ELi0ELin1ELi1EEEEEKNS3_INS3_IS9_Lin1ELi1ELb1EEELin1ELi1ELb0EEEEEEENS0_13sub_assign_opIddEELi0EE12assignPacketILi16ELi0E19__simd128_float64_tEEvl, symObjAddr: 0xCAB4, symBinAddr: 0x10000FCD0, symSize: 0x64 }
  - { offsetInCU: 0x8B484, offset: 0x8B484, size: 0x8, addend: 0x0, symName: __ZNK5Eigen9EigenBaseINS_5BlockINS1_INS_3RefINS_6MatrixIdLin1ELin1ELi0ELin1ELin1EEELi0ENS_11OuterStrideILin1EEEEELin1ELin1ELb0EEELin1ELi1ELb1EEEE4sizeEv, symObjAddr: 0xCB18, symBinAddr: 0x10000FD34, symSize: 0x44 }
  - { offsetInCU: 0x8B4AA, offset: 0x8B4AA, size: 0x8, addend: 0x0, symName: __ZNK5Eigen9EigenBaseINS_5BlockINS1_INS_3RefINS_6MatrixIdLin1ELin1ELi0ELin1ELin1EEELi0ENS_11OuterStrideILin1EEEEELin1ELin1ELb0EEELin1ELi1ELb1EEEE4rowsEv, symObjAddr: 0xCB5C, symBinAddr: 0x10000FD78, symSize: 0x38 }
  - { offsetInCU: 0x8B4D0, offset: 0x8B4D0, size: 0x8, addend: 0x0, symName: __ZNK5Eigen9EigenBaseINS_5BlockINS1_INS_3RefINS_6MatrixIdLin1ELin1ELi0ELin1ELin1EEELi0ENS_11OuterStrideILin1EEEEELin1ELin1ELb0EEELin1ELi1ELb1EEEE4colsEv, symObjAddr: 0xCB94, symBinAddr: 0x10000FDB0, symSize: 0x28 }
  - { offsetInCU: 0x8B4F6, offset: 0x8B4F6, size: 0x8, addend: 0x0, symName: __ZNK5Eigen9EigenBaseINS_5BlockINS1_INS_3RefINS_6MatrixIdLin1ELin1ELi0ELin1ELin1EEELi0ENS_11OuterStrideILin1EEEEELin1ELin1ELb0EEELin1ELi1ELb1EEEE7derivedEv, symObjAddr: 0xCBBC, symBinAddr: 0x10000FDD8, symSize: 0x14 }
  - { offsetInCU: 0x8B51C, offset: 0x8B51C, size: 0x8, addend: 0x0, symName: __ZN5Eigen7MapBaseINS_5BlockINS1_INS_3RefINS_6MatrixIdLin1ELin1ELi0ELin1ELin1EEELi0ENS_11OuterStrideILin1EEEEELin1ELin1ELb0EEELin1ELi1ELb1EEELi1EE4dataEv, symObjAddr: 0xCBD0, symBinAddr: 0x10000FDEC, symSize: 0x18 }
  - { offsetInCU: 0x8B542, offset: 0x8B542, size: 0x8, addend: 0x0, symName: __ZN5Eigen8internal31generic_dense_assignment_kernelINS0_9evaluatorINS_5BlockINS3_INS_3RefINS_6MatrixIdLin1ELin1ELi0ELin1ELin1EEELi0ENS_11OuterStrideILin1EEEEELin1ELin1ELb0EEELin1ELi1ELb1EEEEENS2_INS_13CwiseBinaryOpINS0_17scalar_product_opIddEEKNS_14CwiseNullaryOpINS0_18scalar_constant_opIdEEKNS5_IdLin1ELi1ELi0ELin1ELi1EEEEEKNS3_INS3_IS9_Lin1ELi1ELb1EEELin1ELi1ELb0EEEEEEENS0_13sub_assign_opIddEELi0EE11assignCoeffEl, symObjAddr: 0xCBE8, symBinAddr: 0x10000FE04, symSize: 0x64 }
  - { offsetInCU: 0x8B577, offset: 0x8B577, size: 0x8, addend: 0x0, symName: __ZNK5Eigen8internal13sub_assign_opIddE11assignCoeffERdRKd, symObjAddr: 0xCC4C, symBinAddr: 0x10000FE68, symSize: 0x30 }
  - { offsetInCU: 0x8B5B9, offset: 0x8B5B9, size: 0x8, addend: 0x0, symName: __ZN5Eigen8internal17mapbase_evaluatorINS_5BlockINS2_INS_3RefINS_6MatrixIdLin1ELin1ELi0ELin1ELin1EEELi0ENS_11OuterStrideILin1EEEEELin1ELin1ELb0EEELin1ELi1ELb1EEENS4_IdLin1ELi1ELi0ELin1ELi1EEEE8coeffRefEl, symObjAddr: 0xCC7C, symBinAddr: 0x10000FE98, symSize: 0x48 }
  - { offsetInCU: 0x8B5EE, offset: 0x8B5EE, size: 0x8, addend: 0x0, symName: __ZNK5Eigen8internal16binary_evaluatorINS_13CwiseBinaryOpINS0_17scalar_product_opIddEEKNS_14CwiseNullaryOpINS0_18scalar_constant_opIdEEKNS_6MatrixIdLin1ELi1ELi0ELin1ELi1EEEEEKNS_5BlockINSD_INS_3RefINS8_IdLin1ELin1ELi0ELin1ELin1EEELi0ENS_11OuterStrideILin1EEEEELin1ELi1ELb1EEELin1ELi1ELb0EEEEENS0_10IndexBasedESN_ddE5coeffEl, symObjAddr: 0xCCC4, symBinAddr: 0x10000FEE0, symSize: 0x6C }
  - { offsetInCU: 0x8B623, offset: 0x8B623, size: 0x8, addend: 0x0, symName: __ZNK5Eigen8internal16binary_evaluatorINS_13CwiseBinaryOpINS0_17scalar_product_opIddEEKNS_14CwiseNullaryOpINS0_18scalar_constant_opIdEEKNS_6MatrixIdLin1ELi1ELi0ELin1ELi1EEEEEKNS_5BlockINSD_INS_3RefINS8_IdLin1ELin1ELi0ELin1ELin1EEELi0ENS_11OuterStrideILin1EEEEELin1ELi1ELb1EEELin1ELi1ELb0EEEEENS0_10IndexBasedESN_ddE4Data4funcEv, symObjAddr: 0xCD30, symBinAddr: 0x10000FF4C, symSize: 0x14 }
  - { offsetInCU: 0x8B649, offset: 0x8B649, size: 0x8, addend: 0x0, symName: __ZNK5Eigen8internal17scalar_product_opIddEclERKdS4_, symObjAddr: 0xCD44, symBinAddr: 0x10000FF60, symSize: 0x2C }
  - { offsetInCU: 0x8B695, offset: 0x8B695, size: 0x8, addend: 0x0, symName: __ZNK5Eigen8internal9evaluatorINS_14CwiseNullaryOpINS0_18scalar_constant_opIdEEKNS_6MatrixIdLin1ELi1ELi0ELin1ELi1EEEEEE5coeffIlEEdT_, symObjAddr: 0xCD70, symBinAddr: 0x10000FF8C, symSize: 0x38 }
  - { offsetInCU: 0x8B6D3, offset: 0x8B6D3, size: 0x8, addend: 0x0, symName: __ZNK5Eigen8internal17mapbase_evaluatorINS_5BlockINS2_INS_3RefINS_6MatrixIdLin1ELin1ELi0ELin1ELin1EEELi0ENS_11OuterStrideILin1EEEEELin1ELi1ELb1EEELin1ELi1ELb0EEENS4_IdLin1ELi1ELi0ELin1ELi1EEEE5coeffEl, symObjAddr: 0xCDA8, symBinAddr: 0x10000FFC4, symSize: 0x48 }
  - { offsetInCU: 0x8B708, offset: 0x8B708, size: 0x8, addend: 0x0, symName: __ZNK5Eigen8internal13sub_assign_opIddE12assignPacketILi16E19__simd128_float64_tEEvPdRKT0_, symObjAddr: 0xCDF0, symBinAddr: 0x10001000C, symSize: 0x6C }
  - { offsetInCU: 0x8B79F, offset: 0x8B79F, size: 0x8, addend: 0x0, symName: __ZNK5Eigen8internal16binary_evaluatorINS_13CwiseBinaryOpINS0_17scalar_product_opIddEEKNS_14CwiseNullaryOpINS0_18scalar_constant_opIdEEKNS_6MatrixIdLin1ELi1ELi0ELin1ELi1EEEEEKNS_5BlockINSD_INS_3RefINS8_IdLin1ELin1ELi0ELin1ELin1EEELi0ENS_11OuterStrideILin1EEEEELin1ELi1ELb1EEELin1ELi1ELb0EEEEENS0_10IndexBasedESN_ddE6packetILi0E19__simd128_float64_tEET0_l, symObjAddr: 0xCE5C, symBinAddr: 0x100010078, symSize: 0x70 }
  - { offsetInCU: 0x8B7E7, offset: 0x8B7E7, size: 0x8, addend: 0x0, symName: __ZNK5Eigen8internal17scalar_product_opIddE8packetOpI19__simd128_float64_tEET_RKS5_S7_, symObjAddr: 0xCF0C, symBinAddr: 0x100010128, symSize: 0x30 }
  - { offsetInCU: 0x8B832, offset: 0x8B832, size: 0x8, addend: 0x0, symName: __ZNK5Eigen8internal9evaluatorINS_14CwiseNullaryOpINS0_18scalar_constant_opIdEEKNS_6MatrixIdLin1ELi1ELi0ELin1ELi1EEEEEE6packetILi0E19__simd128_float64_tlEET0_T1_, symObjAddr: 0xCF3C, symBinAddr: 0x100010158, symSize: 0x38 }
  - { offsetInCU: 0x8B883, offset: 0x8B883, size: 0x8, addend: 0x0, symName: __ZNK5Eigen8internal17mapbase_evaluatorINS_5BlockINS2_INS_3RefINS_6MatrixIdLin1ELin1ELi0ELin1ELin1EEELi0ENS_11OuterStrideILin1EEEEELin1ELi1ELb1EEELin1ELi1ELb0EEENS4_IdLin1ELi1ELi0ELin1ELi1EEEE6packetILi0E19__simd128_float64_tEET0_l, symObjAddr: 0xCF74, symBinAddr: 0x100010190, symSize: 0x54 }
  - { offsetInCU: 0x8B8E9, offset: 0x8B8E9, size: 0x8, addend: 0x0, symName: __ZN5Eigen8internal9evaluatorINS_5BlockINS2_INS_3RefINS_6MatrixIdLin1ELin1ELi0ELin1ELin1EEELi0ENS_11OuterStrideILin1EEEEELin1ELin1ELb0EEELin1ELi1ELb1EEEED2Ev, symObjAddr: 0xD008, symBinAddr: 0x100010224, symSize: 0x2C }
  - { offsetInCU: 0x8B916, offset: 0x8B916, size: 0x8, addend: 0x0, symName: __ZN5Eigen8internal15block_evaluatorINS_5BlockINS_3RefINS_6MatrixIdLin1ELin1ELi0ELin1ELin1EEELi0ENS_11OuterStrideILin1EEEEELin1ELin1ELb0EEELin1ELi1ELb1ELb1EED2Ev, symObjAddr: 0xD034, symBinAddr: 0x100010250, symSize: 0x2C }
  - { offsetInCU: 0x8B943, offset: 0x8B943, size: 0x8, addend: 0x0, symName: __ZN5Eigen8internal9evaluatorINS_13CwiseBinaryOpINS0_17scalar_product_opIddEEKNS_14CwiseNullaryOpINS0_18scalar_constant_opIdEEKNS_6MatrixIdLin1ELi1ELi0ELin1ELi1EEEEEKNS_5BlockINSD_INS_3RefINS8_IdLin1ELin1ELi0ELin1ELin1EEELi0ENS_11OuterStrideILin1EEEEELin1ELi1ELb1EEELin1ELi1ELb0EEEEEED2Ev, symObjAddr: 0xD060, symBinAddr: 0x10001027C, symSize: 0x2C }
  - { offsetInCU: 0x8B970, offset: 0x8B970, size: 0x8, addend: 0x0, symName: __ZN5Eigen8internal16binary_evaluatorINS_13CwiseBinaryOpINS0_17scalar_product_opIddEEKNS_14CwiseNullaryOpINS0_18scalar_constant_opIdEEKNS_6MatrixIdLin1ELi1ELi0ELin1ELi1EEEEEKNS_5BlockINSD_INS_3RefINS8_IdLin1ELin1ELi0ELin1ELin1EEELi0ENS_11OuterStrideILin1EEEEELin1ELi1ELb1EEELin1ELi1ELb0EEEEENS0_10IndexBasedESN_ddED2Ev, symObjAddr: 0xD08C, symBinAddr: 0x1000102A8, symSize: 0x34 }
  - { offsetInCU: 0x8B99C, offset: 0x8B99C, size: 0x8, addend: 0x0, symName: __ZN5Eigen8internal16binary_evaluatorINS_13CwiseBinaryOpINS0_17scalar_product_opIddEEKNS_14CwiseNullaryOpINS0_18scalar_constant_opIdEEKNS_6MatrixIdLin1ELi1ELi0ELin1ELi1EEEEEKNS_5BlockINSD_INS_3RefINS8_IdLin1ELin1ELi0ELin1ELin1EEELi0ENS_11OuterStrideILin1EEEEELin1ELi1ELb1EEELin1ELi1ELb0EEEEENS0_10IndexBasedESN_ddE4DataD1Ev, symObjAddr: 0xD0C0, symBinAddr: 0x1000102DC, symSize: 0x2C }
  - { offsetInCU: 0x8B9C9, offset: 0x8B9C9, size: 0x8, addend: 0x0, symName: __ZN5Eigen8internal16binary_evaluatorINS_13CwiseBinaryOpINS0_17scalar_product_opIddEEKNS_14CwiseNullaryOpINS0_18scalar_constant_opIdEEKNS_6MatrixIdLin1ELi1ELi0ELin1ELi1EEEEEKNS_5BlockINSD_INS_3RefINS8_IdLin1ELin1ELi0ELin1ELin1EEELi0ENS_11OuterStrideILin1EEEEELin1ELi1ELb1EEELin1ELi1ELb0EEEEENS0_10IndexBasedESN_ddE4DataD2Ev, symObjAddr: 0xD0EC, symBinAddr: 0x100010308, symSize: 0x3C }
  - { offsetInCU: 0x8B9F6, offset: 0x8B9F6, size: 0x8, addend: 0x0, symName: __ZN5Eigen5BlockINS0_INS_3RefINS_6MatrixIdLin1ELin1ELi0ELin1ELin1EEELi0ENS_11OuterStrideILin1EEEEELin1ELin1ELb0EEELin1ELi1ELb1EEC1ERS7_l, symObjAddr: 0xD128, symBinAddr: 0x100010344, symSize: 0x3C }
  - { offsetInCU: 0x8BA3C, offset: 0x8BA3C, size: 0x8, addend: 0x0, symName: __ZN5Eigen5BlockINS0_INS_3RefINS_6MatrixIdLin1ELin1ELi0ELin1ELin1EEELi0ENS_11OuterStrideILin1EEEEELin1ELin1ELb0EEELin1ELi1ELb1EEC2ERS7_l, symObjAddr: 0xD164, symBinAddr: 0x100010380, symSize: 0xAC }
  - { offsetInCU: 0x8BA82, offset: 0x8BA82, size: 0x8, addend: 0x0, symName: __ZN5Eigen9BlockImplINS_5BlockINS_3RefINS_6MatrixIdLin1ELin1ELi0ELin1ELin1EEELi0ENS_11OuterStrideILin1EEEEELin1ELin1ELb0EEELin1ELi1ELb1ENS_5DenseEEC2ERS8_l, symObjAddr: 0xD210, symBinAddr: 0x10001042C, symSize: 0x3C }
  - { offsetInCU: 0x8BAC8, offset: 0x8BAC8, size: 0x8, addend: 0x0, symName: __ZN5Eigen8internal15BlockImpl_denseINS_5BlockINS_3RefINS_6MatrixIdLin1ELin1ELi0ELin1ELin1EEELi0ENS_11OuterStrideILin1EEEEELin1ELin1ELb0EEELin1ELi1ELb1ELb1EEC2ERS9_l, symObjAddr: 0xD24C, symBinAddr: 0x100010468, symSize: 0xB8 }
  - { offsetInCU: 0x8BB10, offset: 0x8BB10, size: 0x8, addend: 0x0, symName: __ZN5Eigen7MapBaseINS_5BlockINS_3RefINS_6MatrixIdLin1ELin1ELi0ELin1ELin1EEELi0ENS_11OuterStrideILin1EEEEELin1ELin1ELb0EEELi1EE4dataEv, symObjAddr: 0xD304, symBinAddr: 0x100010520, symSize: 0x18 }
  - { offsetInCU: 0x8BB36, offset: 0x8BB36, size: 0x8, addend: 0x0, symName: __ZN5Eigen7MapBaseINS_5BlockINS1_INS_3RefINS_6MatrixIdLin1ELin1ELi0ELin1ELin1EEELi0ENS_11OuterStrideILin1EEEEELin1ELin1ELb0EEELin1ELi1ELb1EEELi1EEC2EPdll, symObjAddr: 0xD31C, symBinAddr: 0x100010538, symSize: 0x44 }
  - { offsetInCU: 0x8BB8D, offset: 0x8BB8D, size: 0x8, addend: 0x0, symName: __ZN5Eigen8internal15BlockImpl_denseINS_5BlockINS_3RefINS_6MatrixIdLin1ELin1ELi0ELin1ELin1EEELi0ENS_11OuterStrideILin1EEEEELin1ELin1ELb0EEELin1ELi1ELb1ELb1EE4initEv, symObjAddr: 0xD360, symBinAddr: 0x10001057C, symSize: 0x34 }
  - { offsetInCU: 0x8BBB3, offset: 0x8BBB3, size: 0x8, addend: 0x0, symName: __ZN5Eigen7MapBaseINS_5BlockINS1_INS_3RefINS_6MatrixIdLin1ELin1ELi0ELin1ELin1EEELi0ENS_11OuterStrideILin1EEEEELin1ELin1ELb0EEELin1ELi1ELb1EEELi0EEC2EPdll, symObjAddr: 0xD394, symBinAddr: 0x1000105B0, symSize: 0x11C }
  - { offsetInCU: 0x8BC07, offset: 0x8BC07, size: 0x8, addend: 0x0, symName: __ZN5Eigen10MatrixBaseINS_5BlockINS1_INS_3RefINS_6MatrixIdLin1ELin1ELi0ELin1ELin1EEELi0ENS_11OuterStrideILin1EEEEELin1ELin1ELb0EEELin1ELi1ELb1EEEEC2Ev, symObjAddr: 0xD4B0, symBinAddr: 0x1000106CC, symSize: 0x2C }
  - { offsetInCU: 0x8BC31, offset: 0x8BC31, size: 0x8, addend: 0x0, symName: __ZNK5Eigen7MapBaseINS_5BlockINS1_INS_3RefINS_6MatrixIdLin1ELin1ELi0ELin1ELin1EEELi0ENS_11OuterStrideILin1EEEEELin1ELin1ELb0EEELin1ELi1ELb1EEELi0EE11checkSanityIS9_EEvNS_8internal9enable_ifIXeqsr8internal6traitsIT_EE9AlignmentLi0EEPvE4typeE, symObjAddr: 0xD4DC, symBinAddr: 0x1000106F8, symSize: 0x14 }
  - { offsetInCU: 0x8BC6B, offset: 0x8BC6B, size: 0x8, addend: 0x0, symName: __ZN5Eigen9DenseBaseINS_5BlockINS1_INS_3RefINS_6MatrixIdLin1ELin1ELi0ELin1ELin1EEELi0ENS_11OuterStrideILin1EEEEELin1ELin1ELb0EEELin1ELi1ELb1EEEEC2Ev, symObjAddr: 0xD4F0, symBinAddr: 0x10001070C, symSize: 0x14 }
  - { offsetInCU: 0x8BC95, offset: 0x8BC95, size: 0x8, addend: 0x0, symName: __ZN5Eigen14CwiseNullaryOpINS_8internal18scalar_constant_opIdEEKNS_6MatrixIdLin1ELi1ELi0ELin1ELi1EEEEC1EllRKS3_, symObjAddr: 0xD504, symBinAddr: 0x100010720, symSize: 0x44 }
  - { offsetInCU: 0x8BCE9, offset: 0x8BCE9, size: 0x8, addend: 0x0, symName: __ZN5Eigen8internal17scalar_product_opIddEC1Ev, symObjAddr: 0xD548, symBinAddr: 0x100010764, symSize: 0x2C }
  - { offsetInCU: 0x8BD13, offset: 0x8BD13, size: 0x8, addend: 0x0, symName: __ZN5Eigen13CwiseBinaryOpINS_8internal17scalar_product_opIddEEKNS_14CwiseNullaryOpINS1_18scalar_constant_opIdEEKNS_6MatrixIdLin1ELi1ELi0ELin1ELi1EEEEEKNS_5BlockINSC_INS_3RefINS7_IdLin1ELin1ELi0ELin1ELin1EEELi0ENS_11OuterStrideILin1EEEEELin1ELi1ELb1EEELin1ELi1ELb0EEEEC1ERSB_RSK_RKS3_, symObjAddr: 0xD574, symBinAddr: 0x100010790, symSize: 0x44 }
  - { offsetInCU: 0x8BD67, offset: 0x8BD67, size: 0x8, addend: 0x0, symName: __ZN5Eigen14CwiseNullaryOpINS_8internal18scalar_constant_opIdEEKNS_6MatrixIdLin1ELi1ELi0ELin1ELi1EEEEC2EllRKS3_, symObjAddr: 0xD5B8, symBinAddr: 0x1000107D4, symSize: 0xE8 }
  - { offsetInCU: 0x8BDBB, offset: 0x8BDBB, size: 0x8, addend: 0x0, symName: __ZN5Eigen10MatrixBaseINS_14CwiseNullaryOpINS_8internal18scalar_constant_opIdEEKNS_6MatrixIdLin1ELi1ELi0ELin1ELi1EEEEEEC2Ev, symObjAddr: 0xD6A0, symBinAddr: 0x1000108BC, symSize: 0x2C }
  - { offsetInCU: 0x8BDE5, offset: 0x8BDE5, size: 0x8, addend: 0x0, symName: __ZN5Eigen9DenseBaseINS_14CwiseNullaryOpINS_8internal18scalar_constant_opIdEEKNS_6MatrixIdLin1ELi1ELi0ELin1ELi1EEEEEEC2Ev, symObjAddr: 0xD6CC, symBinAddr: 0x1000108E8, symSize: 0x14 }
  - { offsetInCU: 0x8BE0F, offset: 0x8BE0F, size: 0x8, addend: 0x0, symName: __ZN5Eigen8internal17scalar_product_opIddEC2Ev, symObjAddr: 0xD6E0, symBinAddr: 0x1000108FC, symSize: 0x14 }
  - { offsetInCU: 0x8BE39, offset: 0x8BE39, size: 0x8, addend: 0x0, symName: __ZN5Eigen13CwiseBinaryOpINS_8internal17scalar_product_opIddEEKNS_14CwiseNullaryOpINS1_18scalar_constant_opIdEEKNS_6MatrixIdLin1ELi1ELi0ELin1ELi1EEEEEKNS_5BlockINSC_INS_3RefINS7_IdLin1ELin1ELi0ELin1ELin1EEELi0ENS_11OuterStrideILin1EEEEELin1ELi1ELb1EEELin1ELi1ELb0EEEEC2ERSB_RSK_RKS3_, symObjAddr: 0xD6F4, symBinAddr: 0x100010910, symSize: 0x100 }
  - { offsetInCU: 0x8BE92, offset: 0x8BE92, size: 0x8, addend: 0x0, symName: __ZN5Eigen17CwiseBinaryOpImplINS_8internal17scalar_product_opIddEEKNS_14CwiseNullaryOpINS1_18scalar_constant_opIdEEKNS_6MatrixIdLin1ELi1ELi0ELin1ELi1EEEEEKNS_5BlockINSC_INS_3RefINS7_IdLin1ELin1ELi0ELin1ELin1EEELi0ENS_11OuterStrideILin1EEEEELin1ELi1ELb1EEELin1ELi1ELb0EEENS_5DenseEEC2Ev, symObjAddr: 0xD7F4, symBinAddr: 0x100010A10, symSize: 0x2C }
  - { offsetInCU: 0x8BEBE, offset: 0x8BEBE, size: 0x8, addend: 0x0, symName: __ZN5Eigen14CwiseNullaryOpINS_8internal18scalar_constant_opIdEEKNS_6MatrixIdLin1ELi1ELi0ELin1ELi1EEEEC1ERKS7_, symObjAddr: 0xD820, symBinAddr: 0x100010A3C, symSize: 0x34 }
  - { offsetInCU: 0x8BEF3, offset: 0x8BEF3, size: 0x8, addend: 0x0, symName: __ZNK5Eigen14CwiseNullaryOpINS_8internal18scalar_constant_opIdEEKNS_6MatrixIdLin1ELi1ELi0ELin1ELi1EEEE4rowsEv, symObjAddr: 0xD854, symBinAddr: 0x100010A70, symSize: 0x24 }
  - { offsetInCU: 0x8BF19, offset: 0x8BF19, size: 0x8, addend: 0x0, symName: __ZN5Eigen10MatrixBaseINS_13CwiseBinaryOpINS_8internal17scalar_product_opIddEEKNS_14CwiseNullaryOpINS2_18scalar_constant_opIdEEKNS_6MatrixIdLin1ELi1ELi0ELin1ELi1EEEEEKNS_5BlockINSD_INS_3RefINS8_IdLin1ELin1ELi0ELin1ELin1EEELi0ENS_11OuterStrideILin1EEEEELin1ELi1ELb1EEELin1ELi1ELb0EEEEEEC2Ev, symObjAddr: 0xD878, symBinAddr: 0x100010A94, symSize: 0x2C }
  - { offsetInCU: 0x8BF43, offset: 0x8BF43, size: 0x8, addend: 0x0, symName: __ZN5Eigen9DenseBaseINS_13CwiseBinaryOpINS_8internal17scalar_product_opIddEEKNS_14CwiseNullaryOpINS2_18scalar_constant_opIdEEKNS_6MatrixIdLin1ELi1ELi0ELin1ELi1EEEEEKNS_5BlockINSD_INS_3RefINS8_IdLin1ELin1ELi0ELin1ELin1EEELi0ENS_11OuterStrideILin1EEEEELin1ELi1ELb1EEELin1ELi1ELb0EEEEEEC2Ev, symObjAddr: 0xD8A4, symBinAddr: 0x100010AC0, symSize: 0x14 }
  - { offsetInCU: 0x8BF6D, offset: 0x8BF6D, size: 0x8, addend: 0x0, symName: __ZN5Eigen14CwiseNullaryOpINS_8internal18scalar_constant_opIdEEKNS_6MatrixIdLin1ELi1ELi0ELin1ELi1EEEEC2ERKS7_, symObjAddr: 0xD8B8, symBinAddr: 0x100010AD4, symSize: 0x50 }
  - { offsetInCU: 0x8BFA2, offset: 0x8BFA2, size: 0x8, addend: 0x0, symName: __ZNK5Eigen8internal17mapbase_evaluatorINS_5BlockINS2_INS_3RefINS_6MatrixIdLin1ELin1ELi0ELin1ELin1EEELi0ENS_11OuterStrideILin1EEEEELi1ELin1ELb0EEELi1ELin1ELb0EEENS4_IdLi1ELin1ELi1ELi1ELin1EEEE9colStrideEv, symObjAddr: 0xD908, symBinAddr: 0x100010B24, symSize: 0x28 }
  - { offsetInCU: 0x8BFC8, offset: 0x8BFC8, size: 0x8, addend: 0x0, symName: __ZNK5Eigen8internal17mapbase_evaluatorINS_5BlockINS2_INS_3RefINS_6MatrixIdLin1ELin1ELi0ELin1ELin1EEELi0ENS_11OuterStrideILin1EEEEELi1ELin1ELb0EEELi1ELin1ELb0EEENS4_IdLi1ELin1ELi1ELi1ELin1EEEE9rowStrideEv, symObjAddr: 0xD930, symBinAddr: 0x100010B4C, symSize: 0x20 }
  - { offsetInCU: 0x8BFEE, offset: 0x8BFEE, size: 0x8, addend: 0x0, symName: __ZN5Eigen8internal9evaluatorINS_5BlockINS2_INS_3RefINS_6MatrixIdLin1ELin1ELi0ELin1ELin1EEELi0ENS_11OuterStrideILin1EEEEELi1ELin1ELb0EEELi1ELin1ELb0EEEED2Ev, symObjAddr: 0xD950, symBinAddr: 0x100010B6C, symSize: 0x2C }
  - { offsetInCU: 0x8C01B, offset: 0x8C01B, size: 0x8, addend: 0x0, symName: __ZN5Eigen8internal15block_evaluatorINS_5BlockINS_3RefINS_6MatrixIdLin1ELin1ELi0ELin1ELin1EEELi0ENS_11OuterStrideILin1EEEEELi1ELin1ELb0EEELi1ELin1ELb0ELb1EED2Ev, symObjAddr: 0xD97C, symBinAddr: 0x100010B98, symSize: 0x2C }
  - { offsetInCU: 0x8C048, offset: 0x8C048, size: 0x8, addend: 0x0, symName: __ZN5Eigen8internal13sub_assign_opIddEC2Ev, symObjAddr: 0xD9A8, symBinAddr: 0x100010BC4, symSize: 0x14 }
  - { offsetInCU: 0x8C072, offset: 0x8C072, size: 0x8, addend: 0x0, symName: __ZN5Eigen3RefINS_6MatrixIdLin1ELin1ELi0ELin1ELin1EEELi0ENS_11OuterStrideILin1EEEEC2INS_5BlockIS5_Lin1ELin1ELb0EEEEERKNS_9DenseBaseIT_EEPNS_8internal9enable_ifIXcvbsr6Traits5matchISA_EE18MatchAtCompileTimeESA_E4typeE, symObjAddr: 0xDA10, symBinAddr: 0x100010C2C, symSize: 0x90 }
  - { offsetInCU: 0x8C0DC, offset: 0x8C0DC, size: 0x8, addend: 0x0, symName: __ZN5Eigen7RefBaseINS_3RefINS_6MatrixIdLin1ELin1ELi0ELin1ELin1EEELi0ENS_11OuterStrideILin1EEEEEE9constructINS_5BlockIS6_Lin1ELin1ELb0EEEEEbRT_, symObjAddr: 0xDAA0, symBinAddr: 0x100010CBC, symSize: 0x1E0 }
  - { offsetInCU: 0x8C1EE, offset: 0x8C1EE, size: 0x8, addend: 0x0, symName: __ZNK5Eigen9EigenBaseINS_5BlockINS_3RefINS_6MatrixIdLin1ELin1ELi0ELin1ELin1EEELi0ENS_11OuterStrideILin1EEEEELin1ELin1ELb0EEEE18const_cast_derivedEv, symObjAddr: 0xDC80, symBinAddr: 0x100010E9C, symSize: 0x14 }
  - { offsetInCU: 0x8C214, offset: 0x8C214, size: 0x8, addend: 0x0, symName: __ZN5Eigen5BlockINS_3RefINS_6MatrixIdLin1ELin1ELi0ELin1ELin1EEELi0ENS_11OuterStrideILin1EEEEELi1ELin1ELb0EEC1ERS6_l, symObjAddr: 0xDC94, symBinAddr: 0x100010EB0, symSize: 0x3C }
  - { offsetInCU: 0x8C25A, offset: 0x8C25A, size: 0x8, addend: 0x0, symName: __ZN5Eigen5BlockINS_3RefINS_6MatrixIdLin1ELin1ELi0ELin1ELin1EEELi0ENS_11OuterStrideILin1EEEEELi1ELin1ELb0EEC2ERS6_l, symObjAddr: 0xDCD0, symBinAddr: 0x100010EEC, symSize: 0xCC }
  - { offsetInCU: 0x8C2A0, offset: 0x8C2A0, size: 0x8, addend: 0x0, symName: __ZN5Eigen9BlockImplINS_3RefINS_6MatrixIdLin1ELin1ELi0ELin1ELin1EEELi0ENS_11OuterStrideILin1EEEEELi1ELin1ELb0ENS_5DenseEEC2ERS6_l, symObjAddr: 0xDD9C, symBinAddr: 0x100010FB8, symSize: 0x3C }
  - { offsetInCU: 0x8C2E6, offset: 0x8C2E6, size: 0x8, addend: 0x0, symName: __ZN5Eigen8internal15BlockImpl_denseINS_3RefINS_6MatrixIdLin1ELin1ELi0ELin1ELin1EEELi0ENS_11OuterStrideILin1EEEEELi1ELin1ELb0ELb1EEC2ERS7_l, symObjAddr: 0xDDD8, symBinAddr: 0x100010FF4, symSize: 0xAC }
  - { offsetInCU: 0x8C32E, offset: 0x8C32E, size: 0x8, addend: 0x0, symName: __ZN5Eigen7MapBaseINS_5BlockINS_3RefINS_6MatrixIdLin1ELin1ELi0ELin1ELin1EEELi0ENS_11OuterStrideILin1EEEEELi1ELin1ELb0EEELi1EEC2EPdll, symObjAddr: 0xDE84, symBinAddr: 0x1000110A0, symSize: 0x44 }
  - { offsetInCU: 0x8C385, offset: 0x8C385, size: 0x8, addend: 0x0, symName: __ZN5Eigen8internal15BlockImpl_denseINS_3RefINS_6MatrixIdLin1ELin1ELi0ELin1ELin1EEELi0ENS_11OuterStrideILin1EEEEELi1ELin1ELb0ELb1EE4initEv, symObjAddr: 0xDEC8, symBinAddr: 0x1000110E4, symSize: 0x34 }
  - { offsetInCU: 0x8C3AB, offset: 0x8C3AB, size: 0x8, addend: 0x0, symName: __ZN5Eigen7MapBaseINS_5BlockINS_3RefINS_6MatrixIdLin1ELin1ELi0ELin1ELin1EEELi0ENS_11OuterStrideILin1EEEEELi1ELin1ELb0EEELi0EEC2EPdll, symObjAddr: 0xDEFC, symBinAddr: 0x100011118, symSize: 0x130 }
  - { offsetInCU: 0x8C3FF, offset: 0x8C3FF, size: 0x8, addend: 0x0, symName: __ZN5Eigen10MatrixBaseINS_5BlockINS_3RefINS_6MatrixIdLin1ELin1ELi0ELin1ELin1EEELi0ENS_11OuterStrideILin1EEEEELi1ELin1ELb0EEEEC2Ev, symObjAddr: 0xE02C, symBinAddr: 0x100011248, symSize: 0x2C }
  - { offsetInCU: 0x8C429, offset: 0x8C429, size: 0x8, addend: 0x0, symName: __ZNK5Eigen7MapBaseINS_5BlockINS_3RefINS_6MatrixIdLin1ELin1ELi0ELin1ELin1EEELi0ENS_11OuterStrideILin1EEEEELi1ELin1ELb0EEELi0EE11checkSanityIS8_EEvNS_8internal9enable_ifIXeqsr8internal6traitsIT_EE9AlignmentLi0EEPvE4typeE, symObjAddr: 0xE058, symBinAddr: 0x100011274, symSize: 0x14 }
  - { offsetInCU: 0x8C463, offset: 0x8C463, size: 0x8, addend: 0x0, symName: __ZN5Eigen9DenseBaseINS_5BlockINS_3RefINS_6MatrixIdLin1ELin1ELi0ELin1ELin1EEELi0ENS_11OuterStrideILin1EEEEELi1ELin1ELb0EEEEC2Ev, symObjAddr: 0xE06C, symBinAddr: 0x100011288, symSize: 0x14 }
  - { offsetInCU: 0x8C48D, offset: 0x8C48D, size: 0x8, addend: 0x0, symName: __ZNK5Eigen9EigenBaseINS_5BlockINS_3RefINS_6MatrixIdLin1ELin1ELi0ELin1ELin1EEELi0ENS_11OuterStrideILin1EEEEELi1ELin1ELb0EEEE18const_cast_derivedEv, symObjAddr: 0xE0B8, symBinAddr: 0x1000112D4, symSize: 0x14 }
  - { offsetInCU: 0x8C4C7, offset: 0x8C4C7, size: 0x8, addend: 0x0, symName: __ZN5Eigen8internal14swap_assign_opIdEC1Ev, symObjAddr: 0xE0CC, symBinAddr: 0x1000112E8, symSize: 0x2C }
  - { offsetInCU: 0x8C4F1, offset: 0x8C4F1, size: 0x8, addend: 0x0, symName: __ZN5Eigen8internal10AssignmentINS_5BlockINS_3RefINS_6MatrixIdLin1ELin1ELi0ELin1ELin1EEELi0ENS_11OuterStrideILin1EEEEELi1ELin1ELb0EEES9_NS0_14swap_assign_opIdEENS0_11Dense2DenseEvE3runERS9_RKS9_RKSB_, symObjAddr: 0xE134, symBinAddr: 0x100011350, symSize: 0x40 }
  - { offsetInCU: 0x8C551, offset: 0x8C551, size: 0x8, addend: 0x0, symName: __ZN5Eigen8internal9evaluatorINS_5BlockINS_3RefINS_6MatrixIdLin1ELin1ELi0ELin1ELin1EEELi0ENS_11OuterStrideILin1EEEEELi1ELin1ELb0EEEEC1ERKS9_, symObjAddr: 0xE268, symBinAddr: 0x100011484, symSize: 0x34 }
  - { offsetInCU: 0x8C5DA, offset: 0x8C5DA, size: 0x8, addend: 0x0, symName: __ZN5Eigen8internal31generic_dense_assignment_kernelINS0_9evaluatorINS_5BlockINS_3RefINS_6MatrixIdLin1ELin1ELi0ELin1ELin1EEELi0ENS_11OuterStrideILin1EEEEELi1ELin1ELb0EEEEESB_NS0_14swap_assign_opIdEELi0EEC1ERSB_RKSB_RKSD_RSA_, symObjAddr: 0xE350, symBinAddr: 0x10001156C, symSize: 0x4C }
  - { offsetInCU: 0x8C641, offset: 0x8C641, size: 0x8, addend: 0x0, symName: __ZN5Eigen8internal21dense_assignment_loopINS0_31generic_dense_assignment_kernelINS0_9evaluatorINS_5BlockINS_3RefINS_6MatrixIdLin1ELin1ELi0ELin1ELin1EEELi0ENS_11OuterStrideILin1EEEEELi1ELin1ELb0EEEEESC_NS0_14swap_assign_opIdEELi0EEELi1ELi0EE3runERSF_, symObjAddr: 0xE39C, symBinAddr: 0x1000115B8, symSize: 0x68 }
  - { offsetInCU: 0x8C691, offset: 0x8C691, size: 0x8, addend: 0x0, symName: __ZN5Eigen8internal9evaluatorINS_5BlockINS_3RefINS_6MatrixIdLin1ELin1ELi0ELin1ELin1EEELi0ENS_11OuterStrideILin1EEEEELi1ELin1ELb0EEEED1Ev, symObjAddr: 0xE404, symBinAddr: 0x100011620, symSize: 0x2C }
  - { offsetInCU: 0x8C6BE, offset: 0x8C6BE, size: 0x8, addend: 0x0, symName: __ZN5Eigen8internal9evaluatorINS_5BlockINS_3RefINS_6MatrixIdLin1ELin1ELi0ELin1ELin1EEELi0ENS_11OuterStrideILin1EEEEELi1ELin1ELb0EEEEC2ERKS9_, symObjAddr: 0xE430, symBinAddr: 0x10001164C, symSize: 0x34 }
  - { offsetInCU: 0x8C6F7, offset: 0x8C6F7, size: 0x8, addend: 0x0, symName: __ZN5Eigen8internal15block_evaluatorINS_3RefINS_6MatrixIdLin1ELin1ELi0ELin1ELin1EEELi0ENS_11OuterStrideILin1EEEEELi1ELin1ELb0ELb1EEC2ERKNS_5BlockIS7_Li1ELin1ELb0EEE, symObjAddr: 0xE464, symBinAddr: 0x100011680, symSize: 0xDC }
  - { offsetInCU: 0x8C730, offset: 0x8C730, size: 0x8, addend: 0x0, symName: __ZN5Eigen8internal17mapbase_evaluatorINS_5BlockINS_3RefINS_6MatrixIdLin1ELin1ELi0ELin1ELin1EEELi0ENS_11OuterStrideILin1EEEEELi1ELin1ELb0EEENS4_IdLi1ELin1ELi1ELi1ELin1EEEEC2ERKS9_, symObjAddr: 0xE540, symBinAddr: 0x10001175C, symSize: 0xB0 }
  - { offsetInCU: 0x8C769, offset: 0x8C769, size: 0x8, addend: 0x0, symName: __ZNK5Eigen7MapBaseINS_5BlockINS_3RefINS_6MatrixIdLin1ELin1ELi0ELin1ELin1EEELi0ENS_11OuterStrideILin1EEEEELi1ELin1ELb0EEELi1EE4dataEv, symObjAddr: 0xE5F0, symBinAddr: 0x10001180C, symSize: 0x18 }
  - { offsetInCU: 0x8C78F, offset: 0x8C78F, size: 0x8, addend: 0x0, symName: __ZN5Eigen8internal17mapbase_evaluatorINS_5BlockINS_3RefINS_6MatrixIdLin1ELin1ELi0ELin1ELin1EEELi0ENS_11OuterStrideILin1EEEEELi1ELin1ELb0EEENS4_IdLi1ELin1ELi1ELi1ELin1EEEED2Ev, symObjAddr: 0xE608, symBinAddr: 0x100011824, symSize: 0x2C }
  - { offsetInCU: 0x8C7BC, offset: 0x8C7BC, size: 0x8, addend: 0x0, symName: __ZN5Eigen8internal14evaluator_baseINS_5BlockINS_3RefINS_6MatrixIdLin1ELin1ELi0ELin1ELin1EEELi0ENS_11OuterStrideILin1EEEEELi1ELin1ELb0EEEEC2Ev, symObjAddr: 0xE634, symBinAddr: 0x100011850, symSize: 0x14 }
  - { offsetInCU: 0x8C7E6, offset: 0x8C7E6, size: 0x8, addend: 0x0, symName: __ZN5Eigen8internal14evaluator_baseINS_5BlockINS_3RefINS_6MatrixIdLin1ELin1ELi0ELin1ELin1EEELi0ENS_11OuterStrideILin1EEEEELi1ELin1ELb0EEEED2Ev, symObjAddr: 0xE648, symBinAddr: 0x100011864, symSize: 0x14 }
  - { offsetInCU: 0x8C810, offset: 0x8C810, size: 0x8, addend: 0x0, symName: __ZN5Eigen8internal31generic_dense_assignment_kernelINS0_9evaluatorINS_5BlockINS_3RefINS_6MatrixIdLin1ELin1ELi0ELin1ELin1EEELi0ENS_11OuterStrideILin1EEEEELi1ELin1ELb0EEEEESB_NS0_14swap_assign_opIdEELi0EEC2ERSB_RKSB_RKSD_RSA_, symObjAddr: 0xE65C, symBinAddr: 0x100011878, symSize: 0x4C }
  - { offsetInCU: 0x8C872, offset: 0x8C872, size: 0x8, addend: 0x0, symName: __ZN5Eigen8internal31generic_dense_assignment_kernelINS0_9evaluatorINS_5BlockINS_3RefINS_6MatrixIdLin1ELin1ELi0ELin1ELin1EEELi0ENS_11OuterStrideILin1EEEEELi1ELin1ELb0EEEEESB_NS0_14swap_assign_opIdEELi1EEC2ERSB_RKSB_RKSD_RSA_, symObjAddr: 0xE6A8, symBinAddr: 0x1000118C4, symSize: 0x44 }
  - { offsetInCU: 0x8C8D8, offset: 0x8C8D8, size: 0x8, addend: 0x0, symName: __ZNK5Eigen8internal31generic_dense_assignment_kernelINS0_9evaluatorINS_5BlockINS_3RefINS_6MatrixIdLin1ELin1ELi0ELin1ELin1EEELi0ENS_11OuterStrideILin1EEEEELi1ELin1ELb0EEEEESB_NS0_14swap_assign_opIdEELi1EE4sizeEv, symObjAddr: 0xE6EC, symBinAddr: 0x100011908, symSize: 0x28 }
  - { offsetInCU: 0x8C8FE, offset: 0x8C8FE, size: 0x8, addend: 0x0, symName: __ZN5Eigen8internal31generic_dense_assignment_kernelINS0_9evaluatorINS_5BlockINS_3RefINS_6MatrixIdLin1ELin1ELi0ELin1ELin1EEELi0ENS_11OuterStrideILin1EEEEELi1ELin1ELb0EEEEESB_NS0_14swap_assign_opIdEELi1EE11assignCoeffEl, symObjAddr: 0xE714, symBinAddr: 0x100011930, symSize: 0x60 }
  - { offsetInCU: 0x8C933, offset: 0x8C933, size: 0x8, addend: 0x0, symName: __ZNK5Eigen8internal14swap_assign_opIdE11assignCoeffERdRKd, symObjAddr: 0xE774, symBinAddr: 0x100011990, symSize: 0x30 }
  - { offsetInCU: 0x8C975, offset: 0x8C975, size: 0x8, addend: 0x0, symName: __ZN5Eigen8internal17mapbase_evaluatorINS_5BlockINS_3RefINS_6MatrixIdLin1ELin1ELi0ELin1ELin1EEELi0ENS_11OuterStrideILin1EEEEELi1ELin1ELb0EEENS4_IdLi1ELin1ELi1ELi1ELin1EEEE8coeffRefEl, symObjAddr: 0xE7A4, symBinAddr: 0x1000119C0, symSize: 0x4C }
  - { offsetInCU: 0x8C9AA, offset: 0x8C9AA, size: 0x8, addend: 0x0, symName: __ZNK5Eigen8internal17mapbase_evaluatorINS_5BlockINS_3RefINS_6MatrixIdLin1ELin1ELi0ELin1ELin1EEELi0ENS_11OuterStrideILin1EEEEELi1ELin1ELb0EEENS4_IdLi1ELin1ELi1ELi1ELin1EEEE5coeffEl, symObjAddr: 0xE7F0, symBinAddr: 0x100011A0C, symSize: 0x4C }
  - { offsetInCU: 0x8C9DF, offset: 0x8C9DF, size: 0x8, addend: 0x0, symName: __ZN5Eigen8internal9evaluatorINS_5BlockINS_3RefINS_6MatrixIdLin1ELin1ELi0ELin1ELin1EEELi0ENS_11OuterStrideILin1EEEEELi1ELin1ELb0EEEED2Ev, symObjAddr: 0xE878, symBinAddr: 0x100011A94, symSize: 0x2C }
  - { offsetInCU: 0x8CA0C, offset: 0x8CA0C, size: 0x8, addend: 0x0, symName: __ZN5Eigen8internal15block_evaluatorINS_3RefINS_6MatrixIdLin1ELin1ELi0ELin1ELin1EEELi0ENS_11OuterStrideILin1EEEEELi1ELin1ELb0ELb1EED2Ev, symObjAddr: 0xE8A4, symBinAddr: 0x100011AC0, symSize: 0x2C }
  - { offsetInCU: 0x8CA39, offset: 0x8CA39, size: 0x8, addend: 0x0, symName: __ZN5Eigen8internal14swap_assign_opIdEC2Ev, symObjAddr: 0xE8D0, symBinAddr: 0x100011AEC, symSize: 0x14 }
  - { offsetInCU: 0x8CA63, offset: 0x8CA63, size: 0x8, addend: 0x0, symName: __ZN5Eigen14TriangularViewINS_3RefINS_6MatrixIdLin1ELin1ELi0ELin1ELin1EEELi0ENS_11OuterStrideILin1EEEEELj5EEC1ERS6_, symObjAddr: 0xE8E4, symBinAddr: 0x100011B00, symSize: 0x34 }
  - { offsetInCU: 0x8CA9B, offset: 0x8CA9B, size: 0x8, addend: 0x0, symName: __ZN5Eigen14TriangularViewINS_3RefINS_6MatrixIdLin1ELin1ELi0ELin1ELin1EEELi0ENS_11OuterStrideILin1EEEEELj5EEC2ERS6_, symObjAddr: 0xE918, symBinAddr: 0x100011B34, symSize: 0x38 }
  - { offsetInCU: 0x8CAD3, offset: 0x8CAD3, size: 0x8, addend: 0x0, symName: __ZN5Eigen18TriangularViewImplINS_3RefINS_6MatrixIdLin1ELin1ELi0ELin1ELin1EEELi0ENS_11OuterStrideILin1EEEEELj5ENS_5DenseEEC2Ev, symObjAddr: 0xE950, symBinAddr: 0x100011B6C, symSize: 0x2C }
  - { offsetInCU: 0x8CAFD, offset: 0x8CAFD, size: 0x8, addend: 0x0, symName: __ZN5Eigen14TriangularBaseINS_14TriangularViewINS_3RefINS_6MatrixIdLin1ELin1ELi0ELin1ELin1EEELi0ENS_11OuterStrideILin1EEEEELj5EEEEC2Ev, symObjAddr: 0xE97C, symBinAddr: 0x100011B98, symSize: 0x14 }
  - { offsetInCU: 0x8CB27, offset: 0x8CB27, size: 0x8, addend: 0x0, symName: __ZNK5Eigen18TriangularViewImplINS_3RefINS_6MatrixIdLin1ELin1ELi0ELin1ELin1EEELi0ENS_11OuterStrideILin1EEEEELj5ENS_5DenseEE12solveInPlaceILi1ES6_EEvRKNS_10MatrixBaseIT0_EE, symObjAddr: 0xE990, symBinAddr: 0x100011BAC, symSize: 0x138 }
  - { offsetInCU: 0x8CB98, offset: 0x8CB98, size: 0x8, addend: 0x0, symName: __ZNK5Eigen9EigenBaseINS_3RefINS_6MatrixIdLin1ELin1ELi0ELin1ELin1EEELi0ENS_11OuterStrideILin1EEEEEE18const_cast_derivedEv, symObjAddr: 0xEAC8, symBinAddr: 0x100011CE4, symSize: 0x14 }
  - { offsetInCU: 0x8CBBE, offset: 0x8CBBE, size: 0x8, addend: 0x0, symName: __ZNK5Eigen14TriangularBaseINS_14TriangularViewINS_3RefINS_6MatrixIdLin1ELin1ELi0ELin1ELin1EEELi0ENS_11OuterStrideILin1EEEEELj5EEEE7derivedEv, symObjAddr: 0xEADC, symBinAddr: 0x100011CF8, symSize: 0x14 }
  - { offsetInCU: 0x8CBE4, offset: 0x8CBE4, size: 0x8, addend: 0x0, symName: __ZNK5Eigen14TriangularViewINS_3RefINS_6MatrixIdLin1ELin1ELi0ELin1ELin1EEELi0ENS_11OuterStrideILin1EEEEELj5EE4colsEv, symObjAddr: 0xEAF0, symBinAddr: 0x100011D0C, symSize: 0x28 }
  - { offsetInCU: 0x8CC0A, offset: 0x8CC0A, size: 0x8, addend: 0x0, symName: __ZNK5Eigen14TriangularViewINS_3RefINS_6MatrixIdLin1ELin1ELi0ELin1ELin1EEELi0ENS_11OuterStrideILin1EEEEELj5EE4rowsEv, symObjAddr: 0xEB18, symBinAddr: 0x100011D34, symSize: 0x28 }
  - { offsetInCU: 0x8CC30, offset: 0x8CC30, size: 0x8, addend: 0x0, symName: __ZN5Eigen8internal26triangular_solver_selectorINS_3RefINS_6MatrixIdLin1ELin1ELi0ELin1ELin1EEELi0ENS_11OuterStrideILin1EEEEES7_Li1ELi5ELi0ELin1EE3runERKS7_RS7_, symObjAddr: 0xEB40, symBinAddr: 0x100011D5C, symSize: 0x124 }
  - { offsetInCU: 0x8CCA5, offset: 0x8CCA5, size: 0x8, addend: 0x0, symName: __ZNK5Eigen14TriangularViewINS_3RefINS_6MatrixIdLin1ELin1ELi0ELin1ELin1EEELi0ENS_11OuterStrideILin1EEEEELj5EE16nestedExpressionEv, symObjAddr: 0xEC64, symBinAddr: 0x100011E80, symSize: 0x18 }
  - { offsetInCU: 0x8CCCB, offset: 0x8CCCB, size: 0x8, addend: 0x0, symName: __ZN5Eigen8internal11blas_traitsINS_3RefINS_6MatrixIdLin1ELin1ELi0ELin1ELin1EEELi0ENS_11OuterStrideILin1EEEEEE7extractERKS7_, symObjAddr: 0xEC7C, symBinAddr: 0x100011E98, symSize: 0x14 }
  - { offsetInCU: 0x8CCF4, offset: 0x8CCF4, size: 0x8, addend: 0x0, symName: __ZN5Eigen8internal19gemm_blocking_spaceILi0EddLin1ELin1ELin1ELi4ELb0EEC1Ellllb, symObjAddr: 0xEC90, symBinAddr: 0x100011EAC, symSize: 0x60 }
  - { offsetInCU: 0x8D0D9, offset: 0x8D0D9, size: 0x8, addend: 0x0, symName: __ZNK5Eigen7MapBaseINS_3RefINS_6MatrixIdLin1ELin1ELi0ELin1ELin1EEELi0ENS_11OuterStrideILin1EEEEELi0EE8coeffRefEll, symObjAddr: 0xFF40, symBinAddr: 0x10001315C, symSize: 0x78 }
  - { offsetInCU: 0x8D11B, offset: 0x8D11B, size: 0x8, addend: 0x0, symName: __ZN5Eigen8internal19gemm_blocking_spaceILi0EddLin1ELin1ELin1ELi4ELb0EED1Ev, symObjAddr: 0xFFB8, symBinAddr: 0x1000131D4, symSize: 0x2C }
  - { offsetInCU: 0x8D145, offset: 0x8D145, size: 0x8, addend: 0x0, symName: __ZN5Eigen8internal19gemm_blocking_spaceILi0EddLin1ELin1ELin1ELi4ELb0EEC2Ellllb, symObjAddr: 0xFFE4, symBinAddr: 0x100013200, symSize: 0xDC }
  - { offsetInCU: 0x8D1D7, offset: 0x8D1D7, size: 0x8, addend: 0x0, symName: __ZN5Eigen8internal15level3_blockingIddEC2Ev, symObjAddr: 0x100C0, symBinAddr: 0x1000132DC, symSize: 0x28 }
  - { offsetInCU: 0x8D201, offset: 0x8D201, size: 0x8, addend: 0x0, symName: __ZN5Eigen8internal10CacheSizesC1Ev, symObjAddr: 0x10AF0, symBinAddr: 0x100013D0C, symSize: 0x2C }
  - { offsetInCU: 0x8D22B, offset: 0x8D22B, size: 0x8, addend: 0x0, symName: __ZN5Eigen8internal10CacheSizesC2Ev, symObjAddr: 0x10B1C, symBinAddr: 0x100013D38, symSize: 0x88 }
  - { offsetInCU: 0x8D28D, offset: 0x8D28D, size: 0x8, addend: 0x0, symName: __ZNK5Eigen8internal15level3_blockingIddE2kcEv, symObjAddr: 0x10C1C, symBinAddr: 0x100013E38, symSize: 0x18 }
  - { offsetInCU: 0x8D2B3, offset: 0x8D2B3, size: 0x8, addend: 0x0, symName: __ZNK5Eigen8internal15level3_blockingIddE2mcEv, symObjAddr: 0x10C34, symBinAddr: 0x100013E50, symSize: 0x18 }
  - { offsetInCU: 0x8D2D9, offset: 0x8D2D9, size: 0x8, addend: 0x0, symName: __ZN5Eigen8internal15level3_blockingIddE6blockAEv, symObjAddr: 0x10C4C, symBinAddr: 0x100013E68, symSize: 0x18 }
  - { offsetInCU: 0x8D313, offset: 0x8D313, size: 0x8, addend: 0x0, symName: __ZN5Eigen8internal28aligned_stack_memory_handlerIdEC1EPdmb, symObjAddr: 0x10C64, symBinAddr: 0x100013E80, symSize: 0x50 }
  - { offsetInCU: 0x8D36A, offset: 0x8D36A, size: 0x8, addend: 0x0, symName: __ZN5Eigen8internal15level3_blockingIddE6blockBEv, symObjAddr: 0x10CB4, symBinAddr: 0x100013ED0, symSize: 0x18 }
  - { offsetInCU: 0x8D39A, offset: 0x8D39A, size: 0x8, addend: 0x0, symName: __ZNK5Eigen8internal7conj_ifILb0EEclIdEERKT_S6_, symObjAddr: 0x10CCC, symBinAddr: 0x100013EE8, symSize: 0x18 }
  - { offsetInCU: 0x8D3D7, offset: 0x8D3D7, size: 0x8, addend: 0x0, symName: __ZN5Eigen8internal13gemm_pack_rhsIdlNS0_16blas_data_mapperIdlLi0ELi0ELi1EEELi4ELi0ELb0ELb1EEclEPdRKS3_llll, symObjAddr: 0x10CE4, symBinAddr: 0x100013F00, symSize: 0x77C }
  - { offsetInCU: 0x8DAC5, offset: 0x8DAC5, size: 0x8, addend: 0x0, symName: __ZN5Eigen8internal28aligned_stack_memory_handlerIdED1Ev, symObjAddr: 0x1836C, symBinAddr: 0x10001B588, symSize: 0x2C }
  - { offsetInCU: 0x8DAEF, offset: 0x8DAEF, size: 0x8, addend: 0x0, symName: __ZN5Eigen8internal28aligned_stack_memory_handlerIdEC2EPdmb, symObjAddr: 0x18398, symBinAddr: 0x10001B5B4, symSize: 0x5C }
  - { offsetInCU: 0x8DB46, offset: 0x8DB46, size: 0x8, addend: 0x0, symName: __ZN5Eigen8internal11noncopyableC2Ev, symObjAddr: 0x183F4, symBinAddr: 0x10001B610, symSize: 0x14 }
  - { offsetInCU: 0x8DB70, offset: 0x8DB70, size: 0x8, addend: 0x0, symName: __ZNK5Eigen8internal7conj_ifILb0EE5pconjI19__simd128_float64_tEERKT_S7_, symObjAddr: 0x18408, symBinAddr: 0x10001B624, symSize: 0x18 }
  - { offsetInCU: 0x8DBAD, offset: 0x8DBAD, size: 0x8, addend: 0x0, symName: __ZN5Eigen8internal11gebp_traitsIddLb0ELb0ELi0ELi0EE7initAccER19__simd128_float64_t, symObjAddr: 0x18438, symBinAddr: 0x10001B654, symSize: 0x38 }
  - { offsetInCU: 0x8DBF1, offset: 0x8DBF1, size: 0x8, addend: 0x0, symName: __ZNK5Eigen8internal11gebp_traitsIddLb0ELb0ELi0ELi0EE7loadLhsI19__simd128_float64_tEEvPKdRT_, symObjAddr: 0x18470, symBinAddr: 0x10001B68C, symSize: 0x34 }
  - { offsetInCU: 0x8DC70, offset: 0x8DC70, size: 0x8, addend: 0x0, symName: __ZNK5Eigen8internal11gebp_traitsIddLb0ELb0ELi4ELi0EE7loadRhsEPKdRNS2_11RhsPacketx4E, symObjAddr: 0x184A4, symBinAddr: 0x10001B6C0, symSize: 0x58 }
  - { offsetInCU: 0x8DCED, offset: 0x8DCED, size: 0x8, addend: 0x0, symName: __ZNK5Eigen8internal11gebp_traitsIddLb0ELb0ELi4ELi0EE4maddERK19__simd128_float64_tRKNS2_11RhsPacketx4ERS3_RdRKNS0_8FixedIntILi0EEE, symObjAddr: 0x184FC, symBinAddr: 0x10001B718, symSize: 0x44 }
  - { offsetInCU: 0x8DD53, offset: 0x8DD53, size: 0x8, addend: 0x0, symName: __ZN5Eigen8internal8FixedIntILi0EEC1EPFS2_vE, symObjAddr: 0x18560, symBinAddr: 0x10001B77C, symSize: 0x34 }
  - { offsetInCU: 0x8DD88, offset: 0x8DD88, size: 0x8, addend: 0x0, symName: __ZNK5Eigen8internal11gebp_traitsIddLb0ELb0ELi4ELi0EE9updateRhsEPKdRNS2_11RhsPacketx4E, symObjAddr: 0x18594, symBinAddr: 0x10001B7B0, symSize: 0x18 }
  - { offsetInCU: 0x8DDC4, offset: 0x8DDC4, size: 0x8, addend: 0x0, symName: __ZNK5Eigen8internal11gebp_traitsIddLb0ELb0ELi4ELi0EE4maddERK19__simd128_float64_tRKNS2_11RhsPacketx4ERS3_RdRKNS0_8FixedIntILi1EEE, symObjAddr: 0x185AC, symBinAddr: 0x10001B7C8, symSize: 0x44 }
  - { offsetInCU: 0x8DE2A, offset: 0x8DE2A, size: 0x8, addend: 0x0, symName: __ZN5Eigen8internal8FixedIntILi1EEC1EPFS2_vE, symObjAddr: 0x185F0, symBinAddr: 0x10001B80C, symSize: 0x34 }
  - { offsetInCU: 0x8DE5F, offset: 0x8DE5F, size: 0x8, addend: 0x0, symName: __ZNK5Eigen8internal11gebp_traitsIddLb0ELb0ELi4ELi0EE4maddERK19__simd128_float64_tRKNS2_11RhsPacketx4ERS3_RdRKNS0_8FixedIntILi2EEE, symObjAddr: 0x18624, symBinAddr: 0x10001B840, symSize: 0x44 }
  - { offsetInCU: 0x8DEC5, offset: 0x8DEC5, size: 0x8, addend: 0x0, symName: __ZN5Eigen8internal8FixedIntILi2EEC1EPFS2_vE, symObjAddr: 0x18688, symBinAddr: 0x10001B8A4, symSize: 0x34 }
  - { offsetInCU: 0x8DEFA, offset: 0x8DEFA, size: 0x8, addend: 0x0, symName: __ZNK5Eigen8internal11gebp_traitsIddLb0ELb0ELi4ELi0EE4maddERK19__simd128_float64_tRKNS2_11RhsPacketx4ERS3_RdRKNS0_8FixedIntILi3EEE, symObjAddr: 0x186BC, symBinAddr: 0x10001B8D8, symSize: 0x44 }
  - { offsetInCU: 0x8DF60, offset: 0x8DF60, size: 0x8, addend: 0x0, symName: __ZN5Eigen8internal8FixedIntILi3EEC1EPFS2_vE, symObjAddr: 0x18720, symBinAddr: 0x10001B93C, symSize: 0x34 }
  - { offsetInCU: 0x8DF95, offset: 0x8DF95, size: 0x8, addend: 0x0, symName: __ZNK5Eigen8internal11gebp_traitsIddLb0ELb0ELi0ELi0EE3accERK19__simd128_float64_tS5_RS3_, symObjAddr: 0x18754, symBinAddr: 0x10001B970, symSize: 0x40 }
  - { offsetInCU: 0x8DFE8, offset: 0x8DFE8, size: 0x8, addend: 0x0, symName: __ZNK5Eigen8internal11gebp_traitsIddLb0ELb0ELi4ELi0EE7loadRhsEPKdRd, symObjAddr: 0x18794, symBinAddr: 0x10001B9B0, symSize: 0x28 }
  - { offsetInCU: 0x8E02A, offset: 0x8E02A, size: 0x8, addend: 0x0, symName: __ZNK5Eigen8internal11gebp_traitsIddLb0ELb0ELi4ELi0EE4maddERK19__simd128_float64_tRKdRS3_RdRKNS0_8FixedIntILi0EEE, symObjAddr: 0x187BC, symBinAddr: 0x10001B9D8, symSize: 0xA4 }
  - { offsetInCU: 0x8E09F, offset: 0x8E09F, size: 0x8, addend: 0x0, symName: __ZN5Eigen8internal22lhs_process_one_packetILi4ELl2ELl1Eddd19__simd128_float64_tS2_dS2_NS0_11gebp_traitsIddLb0ELb0ELi4ELi0EEENS0_16BlasLinearMapperIdlLi0ELi1EEENS0_16blas_data_mapperIdlLi0ELi0ELi1EEEEclERKS8_PKdSD_dllllllilllll, symObjAddr: 0x18860, symBinAddr: 0x10001BA7C, symSize: 0x11AC }
  - { offsetInCU: 0x8ED17, offset: 0x8ED17, size: 0x8, addend: 0x0, symName: __ZNK5Eigen8internal11conj_helperIddLb0ELb0EE5pmaddERKdS4_S4_, symObjAddr: 0x19A0C, symBinAddr: 0x10001CC28, symSize: 0x54 }
  - { offsetInCU: 0x8ED67, offset: 0x8ED67, size: 0x8, addend: 0x0, symName: __ZNK5Eigen8internal11gebp_traitsIddLb0ELb0ELi4ELi0EE11madd_helperILi0EEEvRK19__simd128_float64_tRKNS2_11RhsPacketx4ERS4_, symObjAddr: 0x19A60, symBinAddr: 0x10001CC7C, symSize: 0x68 }
  - { offsetInCU: 0x8EE0C, offset: 0x8EE0C, size: 0x8, addend: 0x0, symName: __ZN5Eigen8internal8FixedIntILi0EEC1Ev, symObjAddr: 0x19AC8, symBinAddr: 0x10001CCE4, symSize: 0x2C }
  - { offsetInCU: 0x8EE36, offset: 0x8EE36, size: 0x8, addend: 0x0, symName: __ZN5Eigen8internal8FixedIntILi0EEC2Ev, symObjAddr: 0x19AF4, symBinAddr: 0x10001CD10, symSize: 0x14 }
  - { offsetInCU: 0x8EE60, offset: 0x8EE60, size: 0x8, addend: 0x0, symName: __ZN5Eigen8internal8FixedIntILi0EEC2EPFS2_vE, symObjAddr: 0x19B08, symBinAddr: 0x10001CD24, symSize: 0x18 }
  - { offsetInCU: 0x8EE95, offset: 0x8EE95, size: 0x8, addend: 0x0, symName: __ZNK5Eigen8internal11gebp_traitsIddLb0ELb0ELi4ELi0EE11madd_helperILi1EEEvRK19__simd128_float64_tRKNS2_11RhsPacketx4ERS4_, symObjAddr: 0x19B20, symBinAddr: 0x10001CD3C, symSize: 0x68 }
  - { offsetInCU: 0x8EF3A, offset: 0x8EF3A, size: 0x8, addend: 0x0, symName: __ZN5Eigen8internal8FixedIntILi1EEC2EPFS2_vE, symObjAddr: 0x19B88, symBinAddr: 0x10001CDA4, symSize: 0x18 }
  - { offsetInCU: 0x8EF6F, offset: 0x8EF6F, size: 0x8, addend: 0x0, symName: __ZNK5Eigen8internal11gebp_traitsIddLb0ELb0ELi4ELi0EE11madd_helperILi2EEEvRK19__simd128_float64_tRKNS2_11RhsPacketx4ERS4_, symObjAddr: 0x19BA0, symBinAddr: 0x10001CDBC, symSize: 0x68 }
  - { offsetInCU: 0x8F014, offset: 0x8F014, size: 0x8, addend: 0x0, symName: __ZN5Eigen8internal8FixedIntILi2EEC1Ev, symObjAddr: 0x19C08, symBinAddr: 0x10001CE24, symSize: 0x2C }
  - { offsetInCU: 0x8F03E, offset: 0x8F03E, size: 0x8, addend: 0x0, symName: __ZN5Eigen8internal8FixedIntILi2EEC2Ev, symObjAddr: 0x19C34, symBinAddr: 0x10001CE50, symSize: 0x14 }
  - { offsetInCU: 0x8F068, offset: 0x8F068, size: 0x8, addend: 0x0, symName: __ZN5Eigen8internal8FixedIntILi2EEC2EPFS2_vE, symObjAddr: 0x19C48, symBinAddr: 0x10001CE64, symSize: 0x18 }
  - { offsetInCU: 0x8F09D, offset: 0x8F09D, size: 0x8, addend: 0x0, symName: __ZNK5Eigen8internal11gebp_traitsIddLb0ELb0ELi4ELi0EE11madd_helperILi3EEEvRK19__simd128_float64_tRKNS2_11RhsPacketx4ERS4_, symObjAddr: 0x19C60, symBinAddr: 0x10001CE7C, symSize: 0x68 }
  - { offsetInCU: 0x8F142, offset: 0x8F142, size: 0x8, addend: 0x0, symName: __ZN5Eigen8internal8FixedIntILi3EEC1Ev, symObjAddr: 0x19CC8, symBinAddr: 0x10001CEE4, symSize: 0x2C }
  - { offsetInCU: 0x8F16C, offset: 0x8F16C, size: 0x8, addend: 0x0, symName: __ZN5Eigen8internal8FixedIntILi3EEC2Ev, symObjAddr: 0x19CF4, symBinAddr: 0x10001CF10, symSize: 0x14 }
  - { offsetInCU: 0x8F196, offset: 0x8F196, size: 0x8, addend: 0x0, symName: __ZN5Eigen8internal8FixedIntILi3EEC2EPFS2_vE, symObjAddr: 0x19D08, symBinAddr: 0x10001CF24, symSize: 0x18 }
  - { offsetInCU: 0x8F1CB, offset: 0x8F1CB, size: 0x8, addend: 0x0, symName: __ZN5Eigen8internal22lhs_process_one_packetILi4ELl2ELl1Eddd19__simd128_float64_tS2_dS2_NS0_11gebp_traitsIddLb0ELb0ELi4ELi0EEENS0_16BlasLinearMapperIdlLi0ELi1EEENS0_16blas_data_mapperIdlLi0ELi0ELi1EEEE17peeled_kc_onestepElPKdSB_S4_PS2_PNS4_11RhsPacketx4EPdSC_SC_SC_SC_, symObjAddr: 0x19DA0, symBinAddr: 0x10001CFBC, symSize: 0x1EC }
  - { offsetInCU: 0x8F29C, offset: 0x8F29C, size: 0x8, addend: 0x0, symName: __ZNK5Eigen8internal11gebp_traitsIddLb0ELb0ELi0ELi0EE16loadLhsUnalignedI19__simd128_float64_tEEvPKdRT_, symObjAddr: 0x19F8C, symBinAddr: 0x10001D1A8, symSize: 0x34 }
  - { offsetInCU: 0x8F2E9, offset: 0x8F2E9, size: 0x8, addend: 0x0, symName: __ZNK5Eigen8internal7conj_ifILb0EE5pconjIdEERKT_S6_, symObjAddr: 0x1A000, symBinAddr: 0x10001D21C, symSize: 0x18 }
  - { offsetInCU: 0x8F326, offset: 0x8F326, size: 0x8, addend: 0x0, symName: __ZN5Eigen8internal28aligned_stack_memory_handlerIdED2Ev, symObjAddr: 0x1A068, symBinAddr: 0x10001D284, symSize: 0x5C }
  - { offsetInCU: 0x8F350, offset: 0x8F350, size: 0x8, addend: 0x0, symName: __ZN5Eigen8internal11noncopyableD2Ev, symObjAddr: 0x1A0C4, symBinAddr: 0x10001D2E0, symSize: 0x14 }
  - { offsetInCU: 0x8F37A, offset: 0x8F37A, size: 0x8, addend: 0x0, symName: __ZN5Eigen8internal19gemm_blocking_spaceILi0EddLin1ELin1ELin1ELi4ELb0EED2Ev, symObjAddr: 0x1A0D8, symBinAddr: 0x10001D2F4, symSize: 0x50 }
  - { offsetInCU: 0x8F3A4, offset: 0x8F3A4, size: 0x8, addend: 0x0, symName: __ZN5Eigen7ProductINS_3RefINS_6MatrixIdLin1ELin1ELi0ELin1ELin1EEELi0ENS_11OuterStrideILin1EEEEES6_Li0EEC1ERKS6_S9_, symObjAddr: 0x1A1B0, symBinAddr: 0x10001D3CC, symSize: 0x3C }
  - { offsetInCU: 0x8F3EA, offset: 0x8F3EA, size: 0x8, addend: 0x0, symName: __ZN5Eigen7ProductINS_3RefINS_6MatrixIdLin1ELin1ELi0ELin1ELin1EEELi0ENS_11OuterStrideILin1EEEEES6_Li0EEC2ERKS6_S9_, symObjAddr: 0x1A1EC, symBinAddr: 0x10001D408, symSize: 0xC0 }
  - { offsetInCU: 0x8F435, offset: 0x8F435, size: 0x8, addend: 0x0, symName: __ZN5Eigen11ProductImplINS_3RefINS_6MatrixIdLin1ELin1ELi0ELin1ELin1EEELi0ENS_11OuterStrideILin1EEEEES6_Li0ENS_5DenseEEC2Ev, symObjAddr: 0x1A2AC, symBinAddr: 0x10001D4C8, symSize: 0x2C }
  - { offsetInCU: 0x8F466, offset: 0x8F466, size: 0x8, addend: 0x0, symName: __ZN5Eigen8internal18dense_product_baseINS_3RefINS_6MatrixIdLin1ELin1ELi0ELin1ELin1EEELi0ENS_11OuterStrideILin1EEEEES7_Li0ELi8EEC2Ev, symObjAddr: 0x1A2D8, symBinAddr: 0x10001D4F4, symSize: 0x2C }
  - { offsetInCU: 0x8F492, offset: 0x8F492, size: 0x8, addend: 0x0, symName: __ZN5Eigen10MatrixBaseINS_7ProductINS_3RefINS_6MatrixIdLin1ELin1ELi0ELin1ELin1EEELi0ENS_11OuterStrideILin1EEEEES7_Li0EEEEC2Ev, symObjAddr: 0x1A304, symBinAddr: 0x10001D520, symSize: 0x2C }
  - { offsetInCU: 0x8F4BC, offset: 0x8F4BC, size: 0x8, addend: 0x0, symName: __ZN5Eigen9DenseBaseINS_7ProductINS_3RefINS_6MatrixIdLin1ELin1ELi0ELin1ELin1EEELi0ENS_11OuterStrideILin1EEEEES7_Li0EEEEC2Ev, symObjAddr: 0x1A330, symBinAddr: 0x10001D54C, symSize: 0x14 }
  - { offsetInCU: 0x8F4E6, offset: 0x8F4E6, size: 0x8, addend: 0x0, symName: __ZN5Eigen7NoAliasINS_3RefINS_6MatrixIdLin1ELin1ELi0ELin1ELin1EEELi0ENS_11OuterStrideILin1EEEEENS_10MatrixBaseEEC1ERS6_, symObjAddr: 0x1A344, symBinAddr: 0x10001D560, symSize: 0x34 }
  - { offsetInCU: 0x8F51E, offset: 0x8F51E, size: 0x8, addend: 0x0, symName: __ZN5Eigen7NoAliasINS_3RefINS_6MatrixIdLin1ELin1ELi0ELin1ELin1EEELi0ENS_11OuterStrideILin1EEEEENS_10MatrixBaseEEC2ERS6_, symObjAddr: 0x1A378, symBinAddr: 0x10001D594, symSize: 0x20 }
  - { offsetInCU: 0x8F556, offset: 0x8F556, size: 0x8, addend: 0x0, symName: __ZNK5Eigen9EigenBaseINS_7ProductINS_3RefINS_6MatrixIdLin1ELin1ELi0ELin1ELin1EEELi0ENS_11OuterStrideILin1EEEEES7_Li0EEEE7derivedEv, symObjAddr: 0x1A3D4, symBinAddr: 0x10001D5F0, symSize: 0x14 }
  - { offsetInCU: 0x8F586, offset: 0x8F586, size: 0x8, addend: 0x0, symName: __ZN5Eigen8internal10AssignmentINS_3RefINS_6MatrixIdLin1ELin1ELi0ELin1ELin1EEELi0ENS_11OuterStrideILin1EEEEENS_7ProductIS7_S7_Li0EEENS0_13sub_assign_opIddEENS0_11Dense2DenseEvE3runERS7_RKS9_RKSB_, symObjAddr: 0x1A3E8, symBinAddr: 0x10001D604, symSize: 0xE0 }
  - { offsetInCU: 0x8F5C2, offset: 0x8F5C2, size: 0x8, addend: 0x0, symName: __ZNK5Eigen7ProductINS_3RefINS_6MatrixIdLin1ELin1ELi0ELin1ELin1EEELi0ENS_11OuterStrideILin1EEEEES6_Li0EE4rowsEv, symObjAddr: 0x1A4C8, symBinAddr: 0x10001D6E4, symSize: 0x28 }
  - { offsetInCU: 0x8F5E8, offset: 0x8F5E8, size: 0x8, addend: 0x0, symName: __ZNK5Eigen7ProductINS_3RefINS_6MatrixIdLin1ELin1ELi0ELin1ELin1EEELi0ENS_11OuterStrideILin1EEEEES6_Li0EE4colsEv, symObjAddr: 0x1A4F0, symBinAddr: 0x10001D70C, symSize: 0x28 }
  - { offsetInCU: 0x8F60E, offset: 0x8F60E, size: 0x8, addend: 0x0, symName: __ZN5Eigen8internal20generic_product_implINS_3RefINS_6MatrixIdLin1ELin1ELi0ELin1ELin1EEELi0ENS_11OuterStrideILin1EEEEES7_NS_10DenseShapeES8_Li8EE5subToIS7_EEvRT_RKS7_SE_, symObjAddr: 0x1A518, symBinAddr: 0x10001D734, symSize: 0xDC }
  - { offsetInCU: 0x8F659, offset: 0x8F659, size: 0x8, addend: 0x0, symName: __ZNK5Eigen7ProductINS_3RefINS_6MatrixIdLin1ELin1ELi0ELin1ELin1EEELi0ENS_11OuterStrideILin1EEEEES6_Li0EE3lhsEv, symObjAddr: 0x1A5F4, symBinAddr: 0x10001D810, symSize: 0x18 }
  - { offsetInCU: 0x8F67F, offset: 0x8F67F, size: 0x8, addend: 0x0, symName: __ZNK5Eigen7ProductINS_3RefINS_6MatrixIdLin1ELin1ELi0ELin1ELin1EEELi0ENS_11OuterStrideILin1EEEEES6_Li0EE3rhsEv, symObjAddr: 0x1A60C, symBinAddr: 0x10001D828, symSize: 0x18 }
  - { offsetInCU: 0x8F6C5, offset: 0x8F6C5, size: 0x8, addend: 0x0, symName: __ZN5Eigen8internal20generic_product_implINS_3RefINS_6MatrixIdLin1ELin1ELi0ELin1ELin1EEELi0ENS_11OuterStrideILin1EEEEES7_NS_10DenseShapeES8_Li3EE12eval_dynamicIS7_NS0_13sub_assign_opIddEEEEvRT_RKS7_SG_RKT0_, symObjAddr: 0x1A624, symBinAddr: 0x10001D840, symSize: 0xB0 }
  - { offsetInCU: 0x8F7B9, offset: 0x8F7B9, size: 0x8, addend: 0x0, symName: __ZN5Eigen8internal20generic_product_implINS_3RefINS_6MatrixIdLin1ELin1ELi0ELin1ELin1EEELi0ENS_11OuterStrideILin1EEEEES7_NS_10DenseShapeES8_Li8EE13scaleAndAddToIS7_EEvRT_RKS7_SE_RKd, symObjAddr: 0x1A6D4, symBinAddr: 0x10001D8F0, symSize: 0x394 }
  - { offsetInCU: 0x8F8FB, offset: 0x8F8FB, size: 0x8, addend: 0x0, symName: __ZN5Eigen8internal20generic_product_implINS_3RefINS_6MatrixIdLin1ELin1ELi0ELin1ELin1EEELi0ENS_11OuterStrideILin1EEEEES7_NS_10DenseShapeES8_Li3EE17eval_dynamic_implIS7_S7_S7_NS0_13sub_assign_opIddEEdEEvRT_RKT0_RKT1_RKT2_RKT3_NS0_10false_typeE, symObjAddr: 0x1AA68, symBinAddr: 0x10001DC84, symSize: 0x68 }
  - { offsetInCU: 0x8F993, offset: 0x8F993, size: 0x8, addend: 0x0, symName: __ZNK5Eigen9DenseBaseINS_3RefINS_6MatrixIdLin1ELin1ELi0ELin1ELin1EEELi0ENS_11OuterStrideILin1EEEEEE11conjugateIfILb0EEENS_8internal11conditionalIXT_ERKS6_SC_E4typeEv, symObjAddr: 0x1AAD0, symBinAddr: 0x10001DCEC, symSize: 0x24 }
  - { offsetInCU: 0x8F9C3, offset: 0x8F9C3, size: 0x8, addend: 0x0, symName: __ZN5Eigen8internal11blas_traitsINS_3RefINS_6MatrixIdLin1ELin1ELi0ELin1ELin1EEELi0ENS_11OuterStrideILin1EEEEEE19extractScalarFactorERKS7_, symObjAddr: 0x1AAF4, symBinAddr: 0x10001DD10, symSize: 0x14 }
  - { offsetInCU: 0x8F9E3, offset: 0x8F9E3, size: 0x8, addend: 0x0, symName: __ZNK5Eigen10MatrixBaseINS_3RefINS_6MatrixIdLin1ELin1ELi0ELin1ELin1EEELi0ENS_11OuterStrideILin1EEEEEE11lazyProductIS6_EEKNS_7ProductIS6_T_Li1EEERKNS0_ISA_EE, symObjAddr: 0x1ABF0, symBinAddr: 0x10001DE0C, symSize: 0x4C }
  - { offsetInCU: 0x8FA23, offset: 0x8FA23, size: 0x8, addend: 0x0, symName: __ZN5Eigen8internal9evaluatorINS_7ProductINS_3RefINS_6MatrixIdLin1ELin1ELi0ELin1ELin1EEELi0ENS_11OuterStrideILin1EEEEES8_Li1EEEEC1ERKS9_, symObjAddr: 0x1AC3C, symBinAddr: 0x10001DE58, symSize: 0x34 }
  - { offsetInCU: 0x8FA5B, offset: 0x8FA5B, size: 0x8, addend: 0x0, symName: __ZN5Eigen8internal9evaluatorINS_3RefINS_6MatrixIdLin1ELin1ELi0ELin1ELin1EEELi0ENS_11OuterStrideILin1EEEEEEC1ERKS7_, symObjAddr: 0x1AD24, symBinAddr: 0x10001DF40, symSize: 0x34 }
  - { offsetInCU: 0x8FA94, offset: 0x8FA94, size: 0x8, addend: 0x0, symName: __ZN5Eigen8internal41restricted_packet_dense_assignment_kernelINS0_9evaluatorINS_3RefINS_6MatrixIdLin1ELin1ELi0ELin1ELin1EEELi0ENS_11OuterStrideILin1EEEEEEENS2_INS_7ProductIS8_S8_Li1EEEEENS0_13sub_assign_opIddEEEC1ERS9_RKSC_RKSE_RS8_, symObjAddr: 0x1AD58, symBinAddr: 0x10001DF74, symSize: 0x4C }
  - { offsetInCU: 0x8FAFA, offset: 0x8FAFA, size: 0x8, addend: 0x0, symName: __ZN5Eigen8internal9evaluatorINS_3RefINS_6MatrixIdLin1ELin1ELi0ELin1ELin1EEELi0ENS_11OuterStrideILin1EEEEEED1Ev, symObjAddr: 0x1AFB8, symBinAddr: 0x10001E1D4, symSize: 0x2C }
  - { offsetInCU: 0x8FB27, offset: 0x8FB27, size: 0x8, addend: 0x0, symName: __ZN5Eigen8internal9evaluatorINS_7ProductINS_3RefINS_6MatrixIdLin1ELin1ELi0ELin1ELin1EEELi0ENS_11OuterStrideILin1EEEEES8_Li1EEEED1Ev, symObjAddr: 0x1AFE4, symBinAddr: 0x10001E200, symSize: 0x2C }
  - { offsetInCU: 0x8FB53, offset: 0x8FB53, size: 0x8, addend: 0x0, symName: __ZN5Eigen8internal9evaluatorINS_7ProductINS_3RefINS_6MatrixIdLin1ELin1ELi0ELin1ELin1EEELi0ENS_11OuterStrideILin1EEEEES8_Li1EEEEC2ERKS9_, symObjAddr: 0x1B010, symBinAddr: 0x10001E22C, symSize: 0x34 }
  - { offsetInCU: 0x8FB8B, offset: 0x8FB8B, size: 0x8, addend: 0x0, symName: __ZN5Eigen8internal17product_evaluatorINS_7ProductINS_3RefINS_6MatrixIdLin1ELin1ELi0ELin1ELin1EEELi0ENS_11OuterStrideILin1EEEEES8_Li1EEELi8ENS_10DenseShapeESA_ddEC2ERKS9_, symObjAddr: 0x1B044, symBinAddr: 0x10001E260, symSize: 0x110 }
  - { offsetInCU: 0x8FBC4, offset: 0x8FBC4, size: 0x8, addend: 0x0, symName: __ZN5Eigen8internal14evaluator_baseINS_7ProductINS_3RefINS_6MatrixIdLin1ELin1ELi0ELin1ELin1EEELi0ENS_11OuterStrideILin1EEEEES8_Li1EEEEC2Ev, symObjAddr: 0x1B154, symBinAddr: 0x10001E370, symSize: 0x14 }
  - { offsetInCU: 0x8FBEE, offset: 0x8FBEE, size: 0x8, addend: 0x0, symName: __ZNK5Eigen7ProductINS_3RefINS_6MatrixIdLin1ELin1ELi0ELin1ELin1EEELi0ENS_11OuterStrideILin1EEEEES6_Li1EE3lhsEv, symObjAddr: 0x1B168, symBinAddr: 0x10001E384, symSize: 0x18 }
  - { offsetInCU: 0x8FC14, offset: 0x8FC14, size: 0x8, addend: 0x0, symName: __ZNK5Eigen7ProductINS_3RefINS_6MatrixIdLin1ELin1ELi0ELin1ELin1EEELi0ENS_11OuterStrideILin1EEEEES6_Li1EE3rhsEv, symObjAddr: 0x1B180, symBinAddr: 0x10001E39C, symSize: 0x18 }
  - { offsetInCU: 0x8FC3A, offset: 0x8FC3A, size: 0x8, addend: 0x0, symName: __ZN5Eigen8internal14evaluator_baseINS_7ProductINS_3RefINS_6MatrixIdLin1ELin1ELi0ELin1ELin1EEELi0ENS_11OuterStrideILin1EEEEES8_Li1EEEED2Ev, symObjAddr: 0x1B198, symBinAddr: 0x10001E3B4, symSize: 0x14 }
  - { offsetInCU: 0x8FC64, offset: 0x8FC64, size: 0x8, addend: 0x0, symName: __ZNK5Eigen7ProductINS_3RefINS_6MatrixIdLin1ELin1ELi0ELin1ELin1EEELi0ENS_11OuterStrideILin1EEEEES6_Li1EE4rowsEv, symObjAddr: 0x1B1AC, symBinAddr: 0x10001E3C8, symSize: 0x28 }
  - { offsetInCU: 0x8FC8A, offset: 0x8FC8A, size: 0x8, addend: 0x0, symName: __ZNK5Eigen7ProductINS_3RefINS_6MatrixIdLin1ELin1ELi0ELin1ELin1EEELi0ENS_11OuterStrideILin1EEEEES6_Li1EE4colsEv, symObjAddr: 0x1B1D4, symBinAddr: 0x10001E3F0, symSize: 0x28 }
  - { offsetInCU: 0x8FCB0, offset: 0x8FCB0, size: 0x8, addend: 0x0, symName: __ZN5Eigen8internal9evaluatorINS_3RefINS_6MatrixIdLin1ELin1ELi0ELin1ELin1EEELi0ENS_11OuterStrideILin1EEEEEEC2ERKS7_, symObjAddr: 0x1B1FC, symBinAddr: 0x10001E418, symSize: 0x34 }
  - { offsetInCU: 0x8FCE9, offset: 0x8FCE9, size: 0x8, addend: 0x0, symName: __ZN5Eigen8internal17mapbase_evaluatorINS_3RefINS_6MatrixIdLin1ELin1ELi0ELin1ELin1EEELi0ENS_11OuterStrideILin1EEEEES4_EC2ERKS7_, symObjAddr: 0x1B230, symBinAddr: 0x10001E44C, symSize: 0xB0 }
  - { offsetInCU: 0x8FD22, offset: 0x8FD22, size: 0x8, addend: 0x0, symName: __ZN5Eigen8internal14evaluator_baseINS_3RefINS_6MatrixIdLin1ELin1ELi0ELin1ELin1EEELi0ENS_11OuterStrideILin1EEEEEEC2Ev, symObjAddr: 0x1B2E0, symBinAddr: 0x10001E4FC, symSize: 0x14 }
  - { offsetInCU: 0x8FD4C, offset: 0x8FD4C, size: 0x8, addend: 0x0, symName: __ZNK5Eigen7MapBaseINS_3RefINS_6MatrixIdLin1ELin1ELi0ELin1ELin1EEELi0ENS_11OuterStrideILin1EEEEELi1EE4dataEv, symObjAddr: 0x1B2F4, symBinAddr: 0x10001E510, symSize: 0x18 }
  - { offsetInCU: 0x8FD72, offset: 0x8FD72, size: 0x8, addend: 0x0, symName: __ZN5Eigen8internal14evaluator_baseINS_3RefINS_6MatrixIdLin1ELin1ELi0ELin1ELin1EEELi0ENS_11OuterStrideILin1EEEEEED2Ev, symObjAddr: 0x1B30C, symBinAddr: 0x10001E528, symSize: 0x14 }
  - { offsetInCU: 0x8FD9C, offset: 0x8FD9C, size: 0x8, addend: 0x0, symName: __ZN5Eigen8internal41restricted_packet_dense_assignment_kernelINS0_9evaluatorINS_3RefINS_6MatrixIdLin1ELin1ELi0ELin1ELin1EEELi0ENS_11OuterStrideILin1EEEEEEENS2_INS_7ProductIS8_S8_Li1EEEEENS0_13sub_assign_opIddEEEC2ERS9_RKSC_RKSE_RS8_, symObjAddr: 0x1B320, symBinAddr: 0x10001E53C, symSize: 0x4C }
  - { offsetInCU: 0x8FE02, offset: 0x8FE02, size: 0x8, addend: 0x0, symName: __ZN5Eigen8internal31generic_dense_assignment_kernelINS0_9evaluatorINS_3RefINS_6MatrixIdLin1ELin1ELi0ELin1ELin1EEELi0ENS_11OuterStrideILin1EEEEEEENS2_INS_7ProductIS8_S8_Li1EEEEENS0_13sub_assign_opIddEELi1EEC2ERS9_RKSC_RKSE_RS8_, symObjAddr: 0x1B36C, symBinAddr: 0x10001E588, symSize: 0x44 }
  - { offsetInCU: 0x8FE68, offset: 0x8FE68, size: 0x8, addend: 0x0, symName: __ZNK5Eigen8internal31generic_dense_assignment_kernelINS0_9evaluatorINS_3RefINS_6MatrixIdLin1ELin1ELi0ELin1ELin1EEELi0ENS_11OuterStrideILin1EEEEEEENS2_INS_7ProductIS8_S8_Li1EEEEENS0_13sub_assign_opIddEELi1EE10dstDataPtrEv, symObjAddr: 0x1B3B0, symBinAddr: 0x10001E5CC, symSize: 0x28 }
  - { offsetInCU: 0x8FE8E, offset: 0x8FE8E, size: 0x8, addend: 0x0, symName: __ZN5Eigen8internal21dense_assignment_loopINS0_41restricted_packet_dense_assignment_kernelINS0_9evaluatorINS_3RefINS_6MatrixIdLin1ELin1ELi0ELin1ELin1EEELi0ENS_11OuterStrideILin1EEEEEEENS3_INS_7ProductIS9_S9_Li1EEEEENS0_13sub_assign_opIddEEEELi0ELi0EE3runERSG_, symObjAddr: 0x1B3D8, symBinAddr: 0x10001E5F4, symSize: 0xAC }
  - { offsetInCU: 0x8FEEC, offset: 0x8FEEC, size: 0x8, addend: 0x0, symName: __ZNK5Eigen8internal31generic_dense_assignment_kernelINS0_9evaluatorINS_3RefINS_6MatrixIdLin1ELin1ELi0ELin1ELin1EEELi0ENS_11OuterStrideILin1EEEEEEENS2_INS_7ProductIS8_S8_Li1EEEEENS0_13sub_assign_opIddEELi1EE9innerSizeEv, symObjAddr: 0x1B484, symBinAddr: 0x10001E6A0, symSize: 0x38 }
  - { offsetInCU: 0x8FF12, offset: 0x8FF12, size: 0x8, addend: 0x0, symName: __ZNK5Eigen8internal31generic_dense_assignment_kernelINS0_9evaluatorINS_3RefINS_6MatrixIdLin1ELin1ELi0ELin1ELin1EEELi0ENS_11OuterStrideILin1EEEEEEENS2_INS_7ProductIS8_S8_Li1EEEEENS0_13sub_assign_opIddEELi1EE9outerSizeEv, symObjAddr: 0x1B4BC, symBinAddr: 0x10001E6D8, symSize: 0x38 }
  - { offsetInCU: 0x8FF38, offset: 0x8FF38, size: 0x8, addend: 0x0, symName: __ZNK5Eigen8internal31generic_dense_assignment_kernelINS0_9evaluatorINS_3RefINS_6MatrixIdLin1ELin1ELi0ELin1ELin1EEELi0ENS_11OuterStrideILin1EEEEEEENS2_INS_7ProductIS8_S8_Li1EEEEENS0_13sub_assign_opIddEELi1EE11outerStrideEv, symObjAddr: 0x1B4F4, symBinAddr: 0x10001E710, symSize: 0x28 }
  - { offsetInCU: 0x8FF5E, offset: 0x8FF5E, size: 0x8, addend: 0x0, symName: __ZN5Eigen8internal31generic_dense_assignment_kernelINS0_9evaluatorINS_3RefINS_6MatrixIdLin1ELin1ELi0ELin1ELin1EEELi0ENS_11OuterStrideILin1EEEEEEENS2_INS_7ProductIS8_S8_Li1EEEEENS0_13sub_assign_opIddEELi1EE23assignCoeffByOuterInnerEll, symObjAddr: 0x1B51C, symBinAddr: 0x10001E738, symSize: 0x60 }
  - { offsetInCU: 0x8FFC0, offset: 0x8FFC0, size: 0x8, addend: 0x0, symName: __ZN5Eigen8internal31generic_dense_assignment_kernelINS0_9evaluatorINS_3RefINS_6MatrixIdLin1ELin1ELi0ELin1ELin1EEELi0ENS_11OuterStrideILin1EEEEEEENS2_INS_7ProductIS8_S8_Li1EEEEENS0_13sub_assign_opIddEELi1EE24assignPacketByOuterInnerILi16ELi0E19__simd128_float64_tEEvll, symObjAddr: 0x1B57C, symBinAddr: 0x10001E798, symSize: 0x60 }
  - { offsetInCU: 0x9003F, offset: 0x9003F, size: 0x8, addend: 0x0, symName: __ZNK5Eigen9DenseBaseINS_3RefINS_6MatrixIdLin1ELin1ELi0ELin1ELin1EEELi0ENS_11OuterStrideILin1EEEEEE9innerSizeEv, symObjAddr: 0x1B5DC, symBinAddr: 0x10001E7F8, symSize: 0x24 }
  - { offsetInCU: 0x90065, offset: 0x90065, size: 0x8, addend: 0x0, symName: __ZNK5Eigen9DenseBaseINS_3RefINS_6MatrixIdLin1ELin1ELi0ELin1ELin1EEELi0ENS_11OuterStrideILin1EEEEEE9outerSizeEv, symObjAddr: 0x1B600, symBinAddr: 0x10001E81C, symSize: 0x24 }
  - { offsetInCU: 0x9008B, offset: 0x9008B, size: 0x8, addend: 0x0, symName: __ZN5Eigen8internal31generic_dense_assignment_kernelINS0_9evaluatorINS_3RefINS_6MatrixIdLin1ELin1ELi0ELin1ELin1EEELi0ENS_11OuterStrideILin1EEEEEEENS2_INS_7ProductIS8_S8_Li1EEEEENS0_13sub_assign_opIddEELi1EE20rowIndexByOuterInnerEll, symObjAddr: 0x1B624, symBinAddr: 0x10001E840, symSize: 0x18 }
  - { offsetInCU: 0x900BE, offset: 0x900BE, size: 0x8, addend: 0x0, symName: __ZN5Eigen8internal31generic_dense_assignment_kernelINS0_9evaluatorINS_3RefINS_6MatrixIdLin1ELin1ELi0ELin1ELin1EEELi0ENS_11OuterStrideILin1EEEEEEENS2_INS_7ProductIS8_S8_Li1EEEEENS0_13sub_assign_opIddEELi1EE20colIndexByOuterInnerEll, symObjAddr: 0x1B63C, symBinAddr: 0x10001E858, symSize: 0x18 }
  - { offsetInCU: 0x900F1, offset: 0x900F1, size: 0x8, addend: 0x0, symName: __ZN5Eigen8internal31generic_dense_assignment_kernelINS0_9evaluatorINS_3RefINS_6MatrixIdLin1ELin1ELi0ELin1ELin1EEELi0ENS_11OuterStrideILin1EEEEEEENS2_INS_7ProductIS8_S8_Li1EEEEENS0_13sub_assign_opIddEELi1EE11assignCoeffEll, symObjAddr: 0x1B654, symBinAddr: 0x10001E870, symSize: 0x70 }
  - { offsetInCU: 0x90135, offset: 0x90135, size: 0x8, addend: 0x0, symName: __ZN5Eigen8internal17mapbase_evaluatorINS_3RefINS_6MatrixIdLin1ELin1ELi0ELin1ELin1EEELi0ENS_11OuterStrideILin1EEEEES4_E8coeffRefEll, symObjAddr: 0x1B6C4, symBinAddr: 0x10001E8E0, symSize: 0x78 }
  - { offsetInCU: 0x90179, offset: 0x90179, size: 0x8, addend: 0x0, symName: __ZNK5Eigen8internal17product_evaluatorINS_7ProductINS_3RefINS_6MatrixIdLin1ELin1ELi0ELin1ELin1EEELi0ENS_11OuterStrideILin1EEEEES8_Li1EEELi8ENS_10DenseShapeESA_ddE5coeffEll, symObjAddr: 0x1B73C, symBinAddr: 0x10001E958, symSize: 0x8C }
  - { offsetInCU: 0x901BD, offset: 0x901BD, size: 0x8, addend: 0x0, symName: __ZNK5Eigen8internal17mapbase_evaluatorINS_3RefINS_6MatrixIdLin1ELin1ELi0ELin1ELin1EEELi0ENS_11OuterStrideILin1EEEEES4_E9colStrideEv, symObjAddr: 0x1B7C8, symBinAddr: 0x10001E9E4, symSize: 0x28 }
  - { offsetInCU: 0x901E3, offset: 0x901E3, size: 0x8, addend: 0x0, symName: __ZNK5Eigen8internal17mapbase_evaluatorINS_3RefINS_6MatrixIdLin1ELin1ELi0ELin1ELin1EEELi0ENS_11OuterStrideILin1EEEEES4_E9rowStrideEv, symObjAddr: 0x1B7F0, symBinAddr: 0x10001EA0C, symSize: 0x20 }
  - { offsetInCU: 0x90209, offset: 0x90209, size: 0x8, addend: 0x0, symName: __ZNK5Eigen9DenseBaseINS_3RefINS_6MatrixIdLin1ELin1ELi0ELin1ELin1EEELi0ENS_11OuterStrideILin1EEEEEE3rowEl, symObjAddr: 0x1B810, symBinAddr: 0x10001EA2C, symSize: 0x3C }
  - { offsetInCU: 0x9023E, offset: 0x9023E, size: 0x8, addend: 0x0, symName: __ZNK5Eigen9DenseBaseINS_5BlockIKNS_3RefINS_6MatrixIdLin1ELin1ELi0ELin1ELin1EEELi0ENS_11OuterStrideILin1EEEEELi1ELin1ELb0EEEE9transposeEv, symObjAddr: 0x1B84C, symBinAddr: 0x10001EA68, symSize: 0x34 }
  - { offsetInCU: 0x90266, offset: 0x90266, size: 0x8, addend: 0x0, symName: __ZNK5Eigen10MatrixBaseINS_9TransposeIKNS_5BlockIKNS_3RefINS_6MatrixIdLin1ELin1ELi0ELin1ELin1EEELi0ENS_11OuterStrideILin1EEEEELi1ELin1ELb0EEEEEE12cwiseProductINS2_IS9_Lin1ELi1ELb1EEEEEKNS_13CwiseBinaryOpINS_8internal17scalar_product_opIdNSH_6traitsIT_E6ScalarEEEKSC_KSK_EERKNS0_ISK_EE, symObjAddr: 0x1B880, symBinAddr: 0x10001EA9C, symSize: 0x60 }
  - { offsetInCU: 0x902A3, offset: 0x902A3, size: 0x8, addend: 0x0, symName: __ZNK5Eigen9DenseBaseINS_3RefINS_6MatrixIdLin1ELin1ELi0ELin1ELin1EEELi0ENS_11OuterStrideILin1EEEEEE3colEl, symObjAddr: 0x1B8E0, symBinAddr: 0x10001EAFC, symSize: 0x3C }
  - { offsetInCU: 0x902D8, offset: 0x902D8, size: 0x8, addend: 0x0, symName: __ZNK5Eigen9DenseBaseINS_13CwiseBinaryOpINS_8internal17scalar_product_opIddEEKNS_9TransposeIKNS_5BlockIKNS_3RefINS_6MatrixIdLin1ELin1ELi0ELin1ELin1EEELi0ENS_11OuterStrideILin1EEEEELi1ELin1ELb0EEEEEKNS6_ISD_Lin1ELi1ELb1EEEEEE3sumEv, symObjAddr: 0x1B91C, symBinAddr: 0x10001EB38, symSize: 0x74 }
  - { offsetInCU: 0x90301, offset: 0x90301, size: 0x8, addend: 0x0, symName: __ZN5Eigen5BlockIKNS_3RefINS_6MatrixIdLin1ELin1ELi0ELin1ELin1EEELi0ENS_11OuterStrideILin1EEEEELi1ELin1ELb0EEC1ERS7_l, symObjAddr: 0x1B990, symBinAddr: 0x10001EBAC, symSize: 0x3C }
  - { offsetInCU: 0x90347, offset: 0x90347, size: 0x8, addend: 0x0, symName: __ZN5Eigen5BlockIKNS_3RefINS_6MatrixIdLin1ELin1ELi0ELin1ELin1EEELi0ENS_11OuterStrideILin1EEEEELi1ELin1ELb0EEC2ERS7_l, symObjAddr: 0x1B9CC, symBinAddr: 0x10001EBE8, symSize: 0xCC }
  - { offsetInCU: 0x9038D, offset: 0x9038D, size: 0x8, addend: 0x0, symName: __ZN5Eigen9BlockImplIKNS_3RefINS_6MatrixIdLin1ELin1ELi0ELin1ELin1EEELi0ENS_11OuterStrideILin1EEEEELi1ELin1ELb0ENS_5DenseEEC2ERS7_l, symObjAddr: 0x1BA98, symBinAddr: 0x10001ECB4, symSize: 0x3C }
  - { offsetInCU: 0x903D3, offset: 0x903D3, size: 0x8, addend: 0x0, symName: __ZN5Eigen8internal15BlockImpl_denseIKNS_3RefINS_6MatrixIdLin1ELin1ELi0ELin1ELin1EEELi0ENS_11OuterStrideILin1EEEEELi1ELin1ELb0ELb1EEC2ERS8_l, symObjAddr: 0x1BAD4, symBinAddr: 0x10001ECF0, symSize: 0xAC }
  - { offsetInCU: 0x9041B, offset: 0x9041B, size: 0x8, addend: 0x0, symName: __ZN5Eigen7MapBaseINS_5BlockIKNS_3RefINS_6MatrixIdLin1ELin1ELi0ELin1ELin1EEELi0ENS_11OuterStrideILin1EEEEELi1ELin1ELb0EEELi0EEC2EPKdll, symObjAddr: 0x1BB80, symBinAddr: 0x10001ED9C, symSize: 0x130 }
  - { offsetInCU: 0x9046F, offset: 0x9046F, size: 0x8, addend: 0x0, symName: __ZN5Eigen8internal15BlockImpl_denseIKNS_3RefINS_6MatrixIdLin1ELin1ELi0ELin1ELin1EEELi0ENS_11OuterStrideILin1EEEEELi1ELin1ELb0ELb1EE4initEv, symObjAddr: 0x1BCB0, symBinAddr: 0x10001EECC, symSize: 0x34 }
  - { offsetInCU: 0x90495, offset: 0x90495, size: 0x8, addend: 0x0, symName: __ZN5Eigen10MatrixBaseINS_5BlockIKNS_3RefINS_6MatrixIdLin1ELin1ELi0ELin1ELin1EEELi0ENS_11OuterStrideILin1EEEEELi1ELin1ELb0EEEEC2Ev, symObjAddr: 0x1BCE4, symBinAddr: 0x10001EF00, symSize: 0x2C }
  - { offsetInCU: 0x904BF, offset: 0x904BF, size: 0x8, addend: 0x0, symName: __ZNK5Eigen7MapBaseINS_5BlockIKNS_3RefINS_6MatrixIdLin1ELin1ELi0ELin1ELin1EEELi0ENS_11OuterStrideILin1EEEEELi1ELin1ELb0EEELi0EE11checkSanityIS9_EEvNS_8internal9enable_ifIXeqsr8internal6traitsIT_EE9AlignmentLi0EEPvE4typeE, symObjAddr: 0x1BD10, symBinAddr: 0x10001EF2C, symSize: 0x14 }
  - { offsetInCU: 0x904F9, offset: 0x904F9, size: 0x8, addend: 0x0, symName: __ZN5Eigen9DenseBaseINS_5BlockIKNS_3RefINS_6MatrixIdLin1ELin1ELi0ELin1ELin1EEELi0ENS_11OuterStrideILin1EEEEELi1ELin1ELb0EEEEC2Ev, symObjAddr: 0x1BD24, symBinAddr: 0x10001EF40, symSize: 0x14 }
  - { offsetInCU: 0x90523, offset: 0x90523, size: 0x8, addend: 0x0, symName: __ZNK5Eigen9EigenBaseINS_5BlockIKNS_3RefINS_6MatrixIdLin1ELin1ELi0ELin1ELin1EEELi0ENS_11OuterStrideILin1EEEEELi1ELin1ELb0EEEE7derivedEv, symObjAddr: 0x1BD38, symBinAddr: 0x10001EF54, symSize: 0x14 }
  - { offsetInCU: 0x90549, offset: 0x90549, size: 0x8, addend: 0x0, symName: __ZN5Eigen9TransposeIKNS_5BlockIKNS_3RefINS_6MatrixIdLin1ELin1ELi0ELin1ELin1EEELi0ENS_11OuterStrideILin1EEEEELi1ELin1ELb0EEEEC1ERSA_, symObjAddr: 0x1BD4C, symBinAddr: 0x10001EF68, symSize: 0x34 }
  - { offsetInCU: 0x90581, offset: 0x90581, size: 0x8, addend: 0x0, symName: __ZN5Eigen9TransposeIKNS_5BlockIKNS_3RefINS_6MatrixIdLin1ELin1ELi0ELin1ELin1EEELi0ENS_11OuterStrideILin1EEEEELi1ELin1ELb0EEEEC2ERSA_, symObjAddr: 0x1BD80, symBinAddr: 0x10001EF9C, symSize: 0x40 }
  - { offsetInCU: 0x905B9, offset: 0x905B9, size: 0x8, addend: 0x0, symName: __ZN5Eigen13TransposeImplIKNS_5BlockIKNS_3RefINS_6MatrixIdLin1ELin1ELi0ELin1ELin1EEELi0ENS_11OuterStrideILin1EEEEELi1ELin1ELb0EEENS_5DenseEEC2Ev, symObjAddr: 0x1BDC0, symBinAddr: 0x10001EFDC, symSize: 0x2C }
  - { offsetInCU: 0x905E3, offset: 0x905E3, size: 0x8, addend: 0x0, symName: __ZN5Eigen10MatrixBaseINS_9TransposeIKNS_5BlockIKNS_3RefINS_6MatrixIdLin1ELin1ELi0ELin1ELin1EEELi0ENS_11OuterStrideILin1EEEEELi1ELin1ELb0EEEEEEC2Ev, symObjAddr: 0x1BDEC, symBinAddr: 0x10001F008, symSize: 0x2C }
  - { offsetInCU: 0x9060D, offset: 0x9060D, size: 0x8, addend: 0x0, symName: __ZN5Eigen9DenseBaseINS_9TransposeIKNS_5BlockIKNS_3RefINS_6MatrixIdLin1ELin1ELi0ELin1ELin1EEELi0ENS_11OuterStrideILin1EEEEELi1ELin1ELb0EEEEEEC2Ev, symObjAddr: 0x1BE18, symBinAddr: 0x10001F034, symSize: 0x14 }
  - { offsetInCU: 0x90637, offset: 0x90637, size: 0x8, addend: 0x0, symName: __ZNK5Eigen9EigenBaseINS_9TransposeIKNS_5BlockIKNS_3RefINS_6MatrixIdLin1ELin1ELi0ELin1ELin1EEELi0ENS_11OuterStrideILin1EEEEELi1ELin1ELb0EEEEEE7derivedEv, symObjAddr: 0x1BE2C, symBinAddr: 0x10001F048, symSize: 0x14 }
  - { offsetInCU: 0x9065D, offset: 0x9065D, size: 0x8, addend: 0x0, symName: __ZNK5Eigen9EigenBaseINS_5BlockIKNS_3RefINS_6MatrixIdLin1ELin1ELi0ELin1ELin1EEELi0ENS_11OuterStrideILin1EEEEELin1ELi1ELb1EEEE7derivedEv, symObjAddr: 0x1BE40, symBinAddr: 0x10001F05C, symSize: 0x14 }
  - { offsetInCU: 0x90683, offset: 0x90683, size: 0x8, addend: 0x0, symName: __ZN5Eigen13CwiseBinaryOpINS_8internal17scalar_product_opIddEEKNS_9TransposeIKNS_5BlockIKNS_3RefINS_6MatrixIdLin1ELin1ELi0ELin1ELin1EEELi0ENS_11OuterStrideILin1EEEEELi1ELin1ELb0EEEEEKNS5_ISC_Lin1ELi1ELb1EEEEC1ERSG_RSI_RKS3_, symObjAddr: 0x1BE54, symBinAddr: 0x10001F070, symSize: 0x44 }
  - { offsetInCU: 0x906D7, offset: 0x906D7, size: 0x8, addend: 0x0, symName: __ZN5Eigen13CwiseBinaryOpINS_8internal17scalar_product_opIddEEKNS_9TransposeIKNS_5BlockIKNS_3RefINS_6MatrixIdLin1ELin1ELi0ELin1ELin1EEELi0ENS_11OuterStrideILin1EEEEELi1ELin1ELb0EEEEEKNS5_ISC_Lin1ELi1ELb1EEEEC2ERSG_RSI_RKS3_, symObjAddr: 0x1BE98, symBinAddr: 0x10001F0B4, symSize: 0x104 }
  - { offsetInCU: 0x90730, offset: 0x90730, size: 0x8, addend: 0x0, symName: __ZN5Eigen17CwiseBinaryOpImplINS_8internal17scalar_product_opIddEEKNS_9TransposeIKNS_5BlockIKNS_3RefINS_6MatrixIdLin1ELin1ELi0ELin1ELin1EEELi0ENS_11OuterStrideILin1EEEEELi1ELin1ELb0EEEEEKNS5_ISC_Lin1ELi1ELb1EEENS_5DenseEEC2Ev, symObjAddr: 0x1BF9C, symBinAddr: 0x10001F1B8, symSize: 0x2C }
  - { offsetInCU: 0x9075C, offset: 0x9075C, size: 0x8, addend: 0x0, symName: __ZNK5Eigen9TransposeIKNS_5BlockIKNS_3RefINS_6MatrixIdLin1ELin1ELi0ELin1ELin1EEELi0ENS_11OuterStrideILin1EEEEELi1ELin1ELb0EEEE4rowsEv, symObjAddr: 0x1BFC8, symBinAddr: 0x10001F1E4, symSize: 0x24 }
  - { offsetInCU: 0x90782, offset: 0x90782, size: 0x8, addend: 0x0, symName: __ZNK5Eigen7MapBaseINS_5BlockIKNS_3RefINS_6MatrixIdLin1ELin1ELi0ELin1ELin1EEELi0ENS_11OuterStrideILin1EEEEELin1ELi1ELb1EEELi0EE4rowsEv, symObjAddr: 0x1BFEC, symBinAddr: 0x10001F208, symSize: 0x28 }
  - { offsetInCU: 0x907A8, offset: 0x907A8, size: 0x8, addend: 0x0, symName: __ZNK5Eigen9TransposeIKNS_5BlockIKNS_3RefINS_6MatrixIdLin1ELin1ELi0ELin1ELin1EEELi0ENS_11OuterStrideILin1EEEEELi1ELin1ELb0EEEE4colsEv, symObjAddr: 0x1C014, symBinAddr: 0x10001F230, symSize: 0x24 }
  - { offsetInCU: 0x907CE, offset: 0x907CE, size: 0x8, addend: 0x0, symName: __ZNK5Eigen7MapBaseINS_5BlockIKNS_3RefINS_6MatrixIdLin1ELin1ELi0ELin1ELin1EEELi0ENS_11OuterStrideILin1EEEEELin1ELi1ELb1EEELi0EE4colsEv, symObjAddr: 0x1C038, symBinAddr: 0x10001F254, symSize: 0x20 }
  - { offsetInCU: 0x907F4, offset: 0x907F4, size: 0x8, addend: 0x0, symName: __ZN5Eigen10MatrixBaseINS_13CwiseBinaryOpINS_8internal17scalar_product_opIddEEKNS_9TransposeIKNS_5BlockIKNS_3RefINS_6MatrixIdLin1ELin1ELi0ELin1ELin1EEELi0ENS_11OuterStrideILin1EEEEELi1ELin1ELb0EEEEEKNS6_ISD_Lin1ELi1ELb1EEEEEEC2Ev, symObjAddr: 0x1C058, symBinAddr: 0x10001F274, symSize: 0x2C }
  - { offsetInCU: 0x9081E, offset: 0x9081E, size: 0x8, addend: 0x0, symName: __ZN5Eigen9DenseBaseINS_13CwiseBinaryOpINS_8internal17scalar_product_opIddEEKNS_9TransposeIKNS_5BlockIKNS_3RefINS_6MatrixIdLin1ELin1ELi0ELin1ELin1EEELi0ENS_11OuterStrideILin1EEEEELi1ELin1ELb0EEEEEKNS6_ISD_Lin1ELi1ELb1EEEEEEC2Ev, symObjAddr: 0x1C084, symBinAddr: 0x10001F2A0, symSize: 0x14 }
  - { offsetInCU: 0x90848, offset: 0x90848, size: 0x8, addend: 0x0, symName: __ZNK5Eigen7MapBaseINS_5BlockIKNS_3RefINS_6MatrixIdLin1ELin1ELi0ELin1ELin1EEELi0ENS_11OuterStrideILin1EEEEELi1ELin1ELb0EEELi0EE4colsEv, symObjAddr: 0x1C098, symBinAddr: 0x10001F2B4, symSize: 0x28 }
  - { offsetInCU: 0x9086E, offset: 0x9086E, size: 0x8, addend: 0x0, symName: __ZNK5Eigen7MapBaseINS_5BlockIKNS_3RefINS_6MatrixIdLin1ELin1ELi0ELin1ELin1EEELi0ENS_11OuterStrideILin1EEEEELi1ELin1ELb0EEELi0EE4rowsEv, symObjAddr: 0x1C0C0, symBinAddr: 0x10001F2DC, symSize: 0x20 }
  - { offsetInCU: 0x90894, offset: 0x90894, size: 0x8, addend: 0x0, symName: __ZN5Eigen5BlockIKNS_3RefINS_6MatrixIdLin1ELin1ELi0ELin1ELin1EEELi0ENS_11OuterStrideILin1EEEEELin1ELi1ELb1EEC1ERS7_l, symObjAddr: 0x1C0E0, symBinAddr: 0x10001F2FC, symSize: 0x3C }
  - { offsetInCU: 0x908DA, offset: 0x908DA, size: 0x8, addend: 0x0, symName: __ZN5Eigen5BlockIKNS_3RefINS_6MatrixIdLin1ELin1ELi0ELin1ELin1EEELi0ENS_11OuterStrideILin1EEEEELin1ELi1ELb1EEC2ERS7_l, symObjAddr: 0x1C11C, symBinAddr: 0x10001F338, symSize: 0xAC }
  - { offsetInCU: 0x90920, offset: 0x90920, size: 0x8, addend: 0x0, symName: __ZN5Eigen9BlockImplIKNS_3RefINS_6MatrixIdLin1ELin1ELi0ELin1ELin1EEELi0ENS_11OuterStrideILin1EEEEELin1ELi1ELb1ENS_5DenseEEC2ERS7_l, symObjAddr: 0x1C1C8, symBinAddr: 0x10001F3E4, symSize: 0x3C }
  - { offsetInCU: 0x90966, offset: 0x90966, size: 0x8, addend: 0x0, symName: __ZN5Eigen8internal15BlockImpl_denseIKNS_3RefINS_6MatrixIdLin1ELin1ELi0ELin1ELin1EEELi0ENS_11OuterStrideILin1EEEEELin1ELi1ELb1ELb1EEC2ERS8_l, symObjAddr: 0x1C204, symBinAddr: 0x10001F420, symSize: 0xAC }
  - { offsetInCU: 0x909AE, offset: 0x909AE, size: 0x8, addend: 0x0, symName: __ZN5Eigen7MapBaseINS_5BlockIKNS_3RefINS_6MatrixIdLin1ELin1ELi0ELin1ELin1EEELi0ENS_11OuterStrideILin1EEEEELin1ELi1ELb1EEELi0EEC2EPKdll, symObjAddr: 0x1C2B0, symBinAddr: 0x10001F4CC, symSize: 0x11C }
  - { offsetInCU: 0x90A02, offset: 0x90A02, size: 0x8, addend: 0x0, symName: __ZN5Eigen8internal15BlockImpl_denseIKNS_3RefINS_6MatrixIdLin1ELin1ELi0ELin1ELin1EEELi0ENS_11OuterStrideILin1EEEEELin1ELi1ELb1ELb1EE4initEv, symObjAddr: 0x1C3CC, symBinAddr: 0x10001F5E8, symSize: 0x34 }
  - { offsetInCU: 0x90A28, offset: 0x90A28, size: 0x8, addend: 0x0, symName: __ZN5Eigen10MatrixBaseINS_5BlockIKNS_3RefINS_6MatrixIdLin1ELin1ELi0ELin1ELin1EEELi0ENS_11OuterStrideILin1EEEEELin1ELi1ELb1EEEEC2Ev, symObjAddr: 0x1C400, symBinAddr: 0x10001F61C, symSize: 0x2C }
  - { offsetInCU: 0x90A52, offset: 0x90A52, size: 0x8, addend: 0x0, symName: __ZNK5Eigen7MapBaseINS_5BlockIKNS_3RefINS_6MatrixIdLin1ELin1ELi0ELin1ELin1EEELi0ENS_11OuterStrideILin1EEEEELin1ELi1ELb1EEELi0EE11checkSanityIS9_EEvNS_8internal9enable_ifIXeqsr8internal6traitsIT_EE9AlignmentLi0EEPvE4typeE, symObjAddr: 0x1C42C, symBinAddr: 0x10001F648, symSize: 0x14 }
  - { offsetInCU: 0x90A8C, offset: 0x90A8C, size: 0x8, addend: 0x0, symName: __ZN5Eigen9DenseBaseINS_5BlockIKNS_3RefINS_6MatrixIdLin1ELin1ELi0ELin1ELin1EEELi0ENS_11OuterStrideILin1EEEEELin1ELi1ELb1EEEEC2Ev, symObjAddr: 0x1C440, symBinAddr: 0x10001F65C, symSize: 0x14 }
  - { offsetInCU: 0x90AB6, offset: 0x90AB6, size: 0x8, addend: 0x0, symName: __ZNK5Eigen9EigenBaseINS_13CwiseBinaryOpINS_8internal17scalar_product_opIddEEKNS_9TransposeIKNS_5BlockIKNS_3RefINS_6MatrixIdLin1ELin1ELi0ELin1ELin1EEELi0ENS_11OuterStrideILin1EEEEELi1ELin1ELb0EEEEEKNS6_ISD_Lin1ELi1ELb1EEEEEE4sizeEv, symObjAddr: 0x1C454, symBinAddr: 0x10001F670, symSize: 0x44 }
  - { offsetInCU: 0x90ADC, offset: 0x90ADC, size: 0x8, addend: 0x0, symName: __ZNK5Eigen9EigenBaseINS_13CwiseBinaryOpINS_8internal17scalar_product_opIddEEKNS_9TransposeIKNS_5BlockIKNS_3RefINS_6MatrixIdLin1ELin1ELi0ELin1ELin1EEELi0ENS_11OuterStrideILin1EEEEELi1ELin1ELb0EEEEEKNS6_ISD_Lin1ELi1ELb1EEEEEE7derivedEv, symObjAddr: 0x1C498, symBinAddr: 0x10001F6B4, symSize: 0x14 }
  - { offsetInCU: 0x90B02, offset: 0x90B02, size: 0x8, addend: 0x0, symName: __ZNK5Eigen9DenseBaseINS_13CwiseBinaryOpINS_8internal17scalar_product_opIddEEKNS_9TransposeIKNS_5BlockIKNS_3RefINS_6MatrixIdLin1ELin1ELi0ELin1ELin1EEELi0ENS_11OuterStrideILin1EEEEELi1ELin1ELb0EEEEEKNS6_ISD_Lin1ELi1ELb1EEEEEE5reduxINS2_13scalar_sum_opIddEEEEdRKT_, symObjAddr: 0x1C4AC, symBinAddr: 0x10001F6C8, symSize: 0x10C }
  - { offsetInCU: 0x90B5E, offset: 0x90B5E, size: 0x8, addend: 0x0, symName: __ZNK5Eigen9EigenBaseINS_13CwiseBinaryOpINS_8internal17scalar_product_opIddEEKNS_9TransposeIKNS_5BlockIKNS_3RefINS_6MatrixIdLin1ELin1ELi0ELin1ELin1EEELi0ENS_11OuterStrideILin1EEEEELi1ELin1ELb0EEEEEKNS6_ISD_Lin1ELi1ELb1EEEEEE4rowsEv, symObjAddr: 0x1C5B8, symBinAddr: 0x10001F7D4, symSize: 0x38 }
  - { offsetInCU: 0x90B84, offset: 0x90B84, size: 0x8, addend: 0x0, symName: __ZNK5Eigen9EigenBaseINS_13CwiseBinaryOpINS_8internal17scalar_product_opIddEEKNS_9TransposeIKNS_5BlockIKNS_3RefINS_6MatrixIdLin1ELin1ELi0ELin1ELin1EEELi0ENS_11OuterStrideILin1EEEEELi1ELin1ELb0EEEEEKNS6_ISD_Lin1ELi1ELb1EEEEEE4colsEv, symObjAddr: 0x1C5F0, symBinAddr: 0x10001F80C, symSize: 0x38 }
  - { offsetInCU: 0x90BAA, offset: 0x90BAA, size: 0x8, addend: 0x0, symName: __ZNK5Eigen13CwiseBinaryOpINS_8internal17scalar_product_opIddEEKNS_9TransposeIKNS_5BlockIKNS_3RefINS_6MatrixIdLin1ELin1ELi0ELin1ELin1EEELi0ENS_11OuterStrideILin1EEEEELi1ELin1ELb0EEEEEKNS5_ISC_Lin1ELi1ELb1EEEE4rowsEv, symObjAddr: 0x1C628, symBinAddr: 0x10001F844, symSize: 0x28 }
  - { offsetInCU: 0x90BD0, offset: 0x90BD0, size: 0x8, addend: 0x0, symName: __ZNK5Eigen13CwiseBinaryOpINS_8internal17scalar_product_opIddEEKNS_9TransposeIKNS_5BlockIKNS_3RefINS_6MatrixIdLin1ELin1ELi0ELin1ELin1EEELi0ENS_11OuterStrideILin1EEEEELi1ELin1ELb0EEEEEKNS5_ISC_Lin1ELi1ELb1EEEE4colsEv, symObjAddr: 0x1C650, symBinAddr: 0x10001F86C, symSize: 0x24 }
  - { offsetInCU: 0x90CD7, offset: 0x90CD7, size: 0x8, addend: 0x0, symName: __ZN5Eigen8internal15redux_evaluatorINS_13CwiseBinaryOpINS0_17scalar_product_opIddEEKNS_9TransposeIKNS_5BlockIKNS_3RefINS_6MatrixIdLin1ELin1ELi0ELin1ELin1EEELi0ENS_11OuterStrideILin1EEEEELi1ELin1ELb0EEEEEKNS6_ISD_Lin1ELi1ELb1EEEEEEC1ERKSK_, symObjAddr: 0x1C674, symBinAddr: 0x10001F890, symSize: 0x34 }
  - { offsetInCU: 0x90D15, offset: 0x90D15, size: 0x8, addend: 0x0, symName: __ZN5Eigen8internal10redux_implINS0_13scalar_sum_opIddEENS0_15redux_evaluatorINS_13CwiseBinaryOpINS0_17scalar_product_opIddEEKNS_9TransposeIKNS_5BlockIKNS_3RefINS_6MatrixIdLin1ELin1ELi0ELin1ELin1EEELi0ENS_11OuterStrideILin1EEEEELi1ELin1ELb0EEEEEKNS9_ISG_Lin1ELi1ELb1EEEEEEELi0ELi0EE3runISN_EEdRKSO_RKS3_RKT_, symObjAddr: 0x1C6A8, symBinAddr: 0x10001F8C4, symSize: 0x1E0 }
  - { offsetInCU: 0x90DC0, offset: 0x90DC0, size: 0x8, addend: 0x0, symName: __ZN5Eigen8internal15redux_evaluatorINS_13CwiseBinaryOpINS0_17scalar_product_opIddEEKNS_9TransposeIKNS_5BlockIKNS_3RefINS_6MatrixIdLin1ELin1ELi0ELin1ELin1EEELi0ENS_11OuterStrideILin1EEEEELi1ELin1ELb0EEEEEKNS6_ISD_Lin1ELi1ELb1EEEEEED1Ev, symObjAddr: 0x1C888, symBinAddr: 0x10001FAA4, symSize: 0x2C }
  - { offsetInCU: 0x90DED, offset: 0x90DED, size: 0x8, addend: 0x0, symName: __ZN5Eigen8internal15redux_evaluatorINS_13CwiseBinaryOpINS0_17scalar_product_opIddEEKNS_9TransposeIKNS_5BlockIKNS_3RefINS_6MatrixIdLin1ELin1ELi0ELin1ELin1EEELi0ENS_11OuterStrideILin1EEEEELi1ELin1ELb0EEEEEKNS6_ISD_Lin1ELi1ELb1EEEEEEC2ERKSK_, symObjAddr: 0x1C8B4, symBinAddr: 0x10001FAD0, symSize: 0x34 }
  - { offsetInCU: 0x90E26, offset: 0x90E26, size: 0x8, addend: 0x0, symName: __ZN5Eigen8internal9evaluatorINS_13CwiseBinaryOpINS0_17scalar_product_opIddEEKNS_9TransposeIKNS_5BlockIKNS_3RefINS_6MatrixIdLin1ELin1ELi0ELin1ELin1EEELi0ENS_11OuterStrideILin1EEEEELi1ELin1ELb0EEEEEKNS6_ISD_Lin1ELi1ELb1EEEEEEC2ERKSK_, symObjAddr: 0x1C8E8, symBinAddr: 0x10001FB04, symSize: 0x34 }
  - { offsetInCU: 0x90E5F, offset: 0x90E5F, size: 0x8, addend: 0x0, symName: __ZN5Eigen8internal16binary_evaluatorINS_13CwiseBinaryOpINS0_17scalar_product_opIddEEKNS_9TransposeIKNS_5BlockIKNS_3RefINS_6MatrixIdLin1ELin1ELi0ELin1ELin1EEELi0ENS_11OuterStrideILin1EEEEELi1ELin1ELb0EEEEEKNS6_ISD_Lin1ELi1ELb1EEEEENS0_10IndexBasedESL_ddEC2ERKSK_, symObjAddr: 0x1C91C, symBinAddr: 0x10001FB38, symSize: 0x64 }
  - { offsetInCU: 0x90E98, offset: 0x90E98, size: 0x8, addend: 0x0, symName: __ZN5Eigen8internal14evaluator_baseINS_13CwiseBinaryOpINS0_17scalar_product_opIddEEKNS_9TransposeIKNS_5BlockIKNS_3RefINS_6MatrixIdLin1ELin1ELi0ELin1ELin1EEELi0ENS_11OuterStrideILin1EEEEELi1ELin1ELb0EEEEEKNS6_ISD_Lin1ELi1ELb1EEEEEEC2Ev, symObjAddr: 0x1C980, symBinAddr: 0x10001FB9C, symSize: 0x14 }
  - { offsetInCU: 0x90EC2, offset: 0x90EC2, size: 0x8, addend: 0x0, symName: __ZN5Eigen8internal16binary_evaluatorINS_13CwiseBinaryOpINS0_17scalar_product_opIddEEKNS_9TransposeIKNS_5BlockIKNS_3RefINS_6MatrixIdLin1ELin1ELi0ELin1ELin1EEELi0ENS_11OuterStrideILin1EEEEELi1ELin1ELb0EEEEEKNS6_ISD_Lin1ELi1ELb1EEEEENS0_10IndexBasedESL_ddE4DataC1ERKSK_, symObjAddr: 0x1C994, symBinAddr: 0x10001FBB0, symSize: 0x34 }
  - { offsetInCU: 0x90EFB, offset: 0x90EFB, size: 0x8, addend: 0x0, symName: __ZN5Eigen8internal14evaluator_baseINS_13CwiseBinaryOpINS0_17scalar_product_opIddEEKNS_9TransposeIKNS_5BlockIKNS_3RefINS_6MatrixIdLin1ELin1ELi0ELin1ELin1EEELi0ENS_11OuterStrideILin1EEEEELi1ELin1ELb0EEEEEKNS6_ISD_Lin1ELi1ELb1EEEEEED2Ev, symObjAddr: 0x1C9C8, symBinAddr: 0x10001FBE4, symSize: 0x14 }
  - { offsetInCU: 0x90F25, offset: 0x90F25, size: 0x8, addend: 0x0, symName: __ZN5Eigen8internal16binary_evaluatorINS_13CwiseBinaryOpINS0_17scalar_product_opIddEEKNS_9TransposeIKNS_5BlockIKNS_3RefINS_6MatrixIdLin1ELin1ELi0ELin1ELin1EEELi0ENS_11OuterStrideILin1EEEEELi1ELin1ELb0EEEEEKNS6_ISD_Lin1ELi1ELb1EEEEENS0_10IndexBasedESL_ddE4DataC2ERKSK_, symObjAddr: 0x1C9DC, symBinAddr: 0x10001FBF8, symSize: 0xA8 }
  - { offsetInCU: 0x90F5E, offset: 0x90F5E, size: 0x8, addend: 0x0, symName: __ZNK5Eigen13CwiseBinaryOpINS_8internal17scalar_product_opIddEEKNS_9TransposeIKNS_5BlockIKNS_3RefINS_6MatrixIdLin1ELin1ELi0ELin1ELin1EEELi0ENS_11OuterStrideILin1EEEEELi1ELin1ELb0EEEEEKNS5_ISC_Lin1ELi1ELb1EEEE7functorEv, symObjAddr: 0x1CA84, symBinAddr: 0x10001FCA0, symSize: 0x18 }
  - { offsetInCU: 0x90F84, offset: 0x90F84, size: 0x8, addend: 0x0, symName: __ZNK5Eigen13CwiseBinaryOpINS_8internal17scalar_product_opIddEEKNS_9TransposeIKNS_5BlockIKNS_3RefINS_6MatrixIdLin1ELin1ELi0ELin1ELin1EEELi0ENS_11OuterStrideILin1EEEEELi1ELin1ELb0EEEEEKNS5_ISC_Lin1ELi1ELb1EEEE3lhsEv, symObjAddr: 0x1CA9C, symBinAddr: 0x10001FCB8, symSize: 0x14 }
  - { offsetInCU: 0x90FAA, offset: 0x90FAA, size: 0x8, addend: 0x0, symName: __ZN5Eigen8internal9evaluatorIKNS_9TransposeIKNS_5BlockIKNS_3RefINS_6MatrixIdLin1ELin1ELi0ELin1ELin1EEELi0ENS_11OuterStrideILin1EEEEELi1ELin1ELb0EEEEEEC1ERSE_, symObjAddr: 0x1CAB0, symBinAddr: 0x10001FCCC, symSize: 0x34 }
  - { offsetInCU: 0x90FE2, offset: 0x90FE2, size: 0x8, addend: 0x0, symName: __ZNK5Eigen13CwiseBinaryOpINS_8internal17scalar_product_opIddEEKNS_9TransposeIKNS_5BlockIKNS_3RefINS_6MatrixIdLin1ELin1ELi0ELin1ELin1EEELi0ENS_11OuterStrideILin1EEEEELi1ELin1ELb0EEEEEKNS5_ISC_Lin1ELi1ELb1EEEE3rhsEv, symObjAddr: 0x1CAE4, symBinAddr: 0x10001FD00, symSize: 0x18 }
  - { offsetInCU: 0x91008, offset: 0x91008, size: 0x8, addend: 0x0, symName: __ZN5Eigen8internal9evaluatorIKNS_5BlockIKNS_3RefINS_6MatrixIdLin1ELin1ELi0ELin1ELin1EEELi0ENS_11OuterStrideILin1EEEEELin1ELi1ELb1EEEEC1ERSB_, symObjAddr: 0x1CAFC, symBinAddr: 0x10001FD18, symSize: 0x34 }
  - { offsetInCU: 0x91040, offset: 0x91040, size: 0x8, addend: 0x0, symName: __ZN5Eigen8internal9evaluatorIKNS_9TransposeIKNS_5BlockIKNS_3RefINS_6MatrixIdLin1ELin1ELi0ELin1ELin1EEELi0ENS_11OuterStrideILin1EEEEELi1ELin1ELb0EEEEEED1Ev, symObjAddr: 0x1CB30, symBinAddr: 0x10001FD4C, symSize: 0x2C }
  - { offsetInCU: 0x9106C, offset: 0x9106C, size: 0x8, addend: 0x0, symName: __ZN5Eigen8internal9evaluatorIKNS_9TransposeIKNS_5BlockIKNS_3RefINS_6MatrixIdLin1ELin1ELi0ELin1ELin1EEELi0ENS_11OuterStrideILin1EEEEELi1ELin1ELb0EEEEEEC2ERSE_, symObjAddr: 0x1CB5C, symBinAddr: 0x10001FD78, symSize: 0x34 }
  - { offsetInCU: 0x910A4, offset: 0x910A4, size: 0x8, addend: 0x0, symName: __ZN5Eigen8internal9evaluatorINS_9TransposeIKNS_5BlockIKNS_3RefINS_6MatrixIdLin1ELin1ELi0ELin1ELin1EEELi0ENS_11OuterStrideILin1EEEEELi1ELin1ELb0EEEEEEC2ERKSD_, symObjAddr: 0x1CB90, symBinAddr: 0x10001FDAC, symSize: 0x34 }
  - { offsetInCU: 0x910DC, offset: 0x910DC, size: 0x8, addend: 0x0, symName: __ZN5Eigen8internal15unary_evaluatorINS_9TransposeIKNS_5BlockIKNS_3RefINS_6MatrixIdLin1ELin1ELi0ELin1ELin1EEELi0ENS_11OuterStrideILin1EEEEELi1ELin1ELb0EEEEENS0_10IndexBasedEdEC2ERKSD_, symObjAddr: 0x1CBC4, symBinAddr: 0x10001FDE0, symSize: 0x74 }
  - { offsetInCU: 0x91115, offset: 0x91115, size: 0x8, addend: 0x0, symName: __ZN5Eigen8internal14evaluator_baseINS_9TransposeIKNS_5BlockIKNS_3RefINS_6MatrixIdLin1ELin1ELi0ELin1ELin1EEELi0ENS_11OuterStrideILin1EEEEELi1ELin1ELb0EEEEEEC2Ev, symObjAddr: 0x1CC38, symBinAddr: 0x10001FE54, symSize: 0x14 }
  - { offsetInCU: 0x9113F, offset: 0x9113F, size: 0x8, addend: 0x0, symName: __ZNK5Eigen9TransposeIKNS_5BlockIKNS_3RefINS_6MatrixIdLin1ELin1ELi0ELin1ELin1EEELi0ENS_11OuterStrideILin1EEEEELi1ELin1ELb0EEEE16nestedExpressionEv, symObjAddr: 0x1CC4C, symBinAddr: 0x10001FE68, symSize: 0x14 }
  - { offsetInCU: 0x91165, offset: 0x91165, size: 0x8, addend: 0x0, symName: __ZN5Eigen8internal9evaluatorIKNS_5BlockIKNS_3RefINS_6MatrixIdLin1ELin1ELi0ELin1ELin1EEELi0ENS_11OuterStrideILin1EEEEELi1ELin1ELb0EEEEC1ERSB_, symObjAddr: 0x1CC60, symBinAddr: 0x10001FE7C, symSize: 0x34 }
  - { offsetInCU: 0x9119D, offset: 0x9119D, size: 0x8, addend: 0x0, symName: __ZN5Eigen8internal14evaluator_baseINS_9TransposeIKNS_5BlockIKNS_3RefINS_6MatrixIdLin1ELin1ELi0ELin1ELin1EEELi0ENS_11OuterStrideILin1EEEEELi1ELin1ELb0EEEEEED2Ev, symObjAddr: 0x1CC94, symBinAddr: 0x10001FEB0, symSize: 0x14 }
  - { offsetInCU: 0x911C7, offset: 0x911C7, size: 0x8, addend: 0x0, symName: __ZN5Eigen8internal9evaluatorIKNS_5BlockIKNS_3RefINS_6MatrixIdLin1ELin1ELi0ELin1ELin1EEELi0ENS_11OuterStrideILin1EEEEELi1ELin1ELb0EEEEC2ERSB_, symObjAddr: 0x1CCA8, symBinAddr: 0x10001FEC4, symSize: 0x34 }
  - { offsetInCU: 0x911FF, offset: 0x911FF, size: 0x8, addend: 0x0, symName: __ZN5Eigen8internal9evaluatorINS_5BlockIKNS_3RefINS_6MatrixIdLin1ELin1ELi0ELin1ELin1EEELi0ENS_11OuterStrideILin1EEEEELi1ELin1ELb0EEEEC2ERKSA_, symObjAddr: 0x1CCDC, symBinAddr: 0x10001FEF8, symSize: 0x34 }
  - { offsetInCU: 0x91238, offset: 0x91238, size: 0x8, addend: 0x0, symName: __ZN5Eigen8internal15block_evaluatorIKNS_3RefINS_6MatrixIdLin1ELin1ELi0ELin1ELin1EEELi0ENS_11OuterStrideILin1EEEEELi1ELin1ELb0ELb1EEC2ERKNS_5BlockIS8_Li1ELin1ELb0EEE, symObjAddr: 0x1CD10, symBinAddr: 0x10001FF2C, symSize: 0xDC }
  - { offsetInCU: 0x91271, offset: 0x91271, size: 0x8, addend: 0x0, symName: __ZN5Eigen8internal17mapbase_evaluatorINS_5BlockIKNS_3RefINS_6MatrixIdLin1ELin1ELi0ELin1ELin1EEELi0ENS_11OuterStrideILin1EEEEELi1ELin1ELb0EEENS4_IdLi1ELin1ELi1ELi1ELin1EEEEC2ERKSA_, symObjAddr: 0x1CDEC, symBinAddr: 0x100020008, symSize: 0xB0 }
  - { offsetInCU: 0x912AA, offset: 0x912AA, size: 0x8, addend: 0x0, symName: __ZNK5Eigen7MapBaseINS_5BlockIKNS_3RefINS_6MatrixIdLin1ELin1ELi0ELin1ELin1EEELi0ENS_11OuterStrideILin1EEEEELi1ELin1ELb0EEELi0EE4dataEv, symObjAddr: 0x1CE9C, symBinAddr: 0x1000200B8, symSize: 0x18 }
  - { offsetInCU: 0x912D0, offset: 0x912D0, size: 0x8, addend: 0x0, symName: __ZN5Eigen8internal17mapbase_evaluatorINS_5BlockIKNS_3RefINS_6MatrixIdLin1ELin1ELi0ELin1ELin1EEELi0ENS_11OuterStrideILin1EEEEELi1ELin1ELb0EEENS4_IdLi1ELin1ELi1ELi1ELin1EEEED2Ev, symObjAddr: 0x1CEB4, symBinAddr: 0x1000200D0, symSize: 0x2C }
  - { offsetInCU: 0x912FD, offset: 0x912FD, size: 0x8, addend: 0x0, symName: __ZN5Eigen8internal14evaluator_baseINS_5BlockIKNS_3RefINS_6MatrixIdLin1ELin1ELi0ELin1ELin1EEELi0ENS_11OuterStrideILin1EEEEELi1ELin1ELb0EEEEC2Ev, symObjAddr: 0x1CEE0, symBinAddr: 0x1000200FC, symSize: 0x14 }
  - { offsetInCU: 0x91327, offset: 0x91327, size: 0x8, addend: 0x0, symName: __ZNK5Eigen8internal15BlockImpl_denseIKNS_3RefINS_6MatrixIdLin1ELin1ELi0ELin1ELin1EEELi0ENS_11OuterStrideILin1EEEEELi1ELin1ELb0ELb1EE11innerStrideEv, symObjAddr: 0x1CEF4, symBinAddr: 0x100020110, symSize: 0x28 }
  - { offsetInCU: 0x9134D, offset: 0x9134D, size: 0x8, addend: 0x0, symName: __ZNK5Eigen8internal15BlockImpl_denseIKNS_3RefINS_6MatrixIdLin1ELin1ELi0ELin1ELin1EEELi0ENS_11OuterStrideILin1EEEEELi1ELin1ELb0ELb1EE11outerStrideEv, symObjAddr: 0x1CF1C, symBinAddr: 0x100020138, symSize: 0x28 }
  - { offsetInCU: 0x91373, offset: 0x91373, size: 0x8, addend: 0x0, symName: __ZN5Eigen8internal14evaluator_baseINS_5BlockIKNS_3RefINS_6MatrixIdLin1ELin1ELi0ELin1ELin1EEELi0ENS_11OuterStrideILin1EEEEELi1ELin1ELb0EEEED2Ev, symObjAddr: 0x1CF44, symBinAddr: 0x100020160, symSize: 0x14 }
  - { offsetInCU: 0x9139D, offset: 0x9139D, size: 0x8, addend: 0x0, symName: __ZN5Eigen8internal9evaluatorIKNS_5BlockIKNS_3RefINS_6MatrixIdLin1ELin1ELi0ELin1ELin1EEELi0ENS_11OuterStrideILin1EEEEELin1ELi1ELb1EEEEC2ERSB_, symObjAddr: 0x1CF58, symBinAddr: 0x100020174, symSize: 0x34 }
  - { offsetInCU: 0x913D5, offset: 0x913D5, size: 0x8, addend: 0x0, symName: __ZN5Eigen8internal9evaluatorINS_5BlockIKNS_3RefINS_6MatrixIdLin1ELin1ELi0ELin1ELin1EEELi0ENS_11OuterStrideILin1EEEEELin1ELi1ELb1EEEEC2ERKSA_, symObjAddr: 0x1CF8C, symBinAddr: 0x1000201A8, symSize: 0x34 }
  - { offsetInCU: 0x9140E, offset: 0x9140E, size: 0x8, addend: 0x0, symName: __ZN5Eigen8internal15block_evaluatorIKNS_3RefINS_6MatrixIdLin1ELin1ELi0ELin1ELin1EEELi0ENS_11OuterStrideILin1EEEEELin1ELi1ELb1ELb1EEC2ERKNS_5BlockIS8_Lin1ELi1ELb1EEE, symObjAddr: 0x1CFC0, symBinAddr: 0x1000201DC, symSize: 0xDC }
  - { offsetInCU: 0x91447, offset: 0x91447, size: 0x8, addend: 0x0, symName: __ZN5Eigen8internal17mapbase_evaluatorINS_5BlockIKNS_3RefINS_6MatrixIdLin1ELin1ELi0ELin1ELin1EEELi0ENS_11OuterStrideILin1EEEEELin1ELi1ELb1EEENS4_IdLin1ELi1ELi0ELin1ELi1EEEEC2ERKSA_, symObjAddr: 0x1D09C, symBinAddr: 0x1000202B8, symSize: 0xB0 }
  - { offsetInCU: 0x91480, offset: 0x91480, size: 0x8, addend: 0x0, symName: __ZNK5Eigen7MapBaseINS_5BlockIKNS_3RefINS_6MatrixIdLin1ELin1ELi0ELin1ELin1EEELi0ENS_11OuterStrideILin1EEEEELin1ELi1ELb1EEELi0EE4dataEv, symObjAddr: 0x1D14C, symBinAddr: 0x100020368, symSize: 0x18 }
  - { offsetInCU: 0x914A6, offset: 0x914A6, size: 0x8, addend: 0x0, symName: __ZN5Eigen8internal17mapbase_evaluatorINS_5BlockIKNS_3RefINS_6MatrixIdLin1ELin1ELi0ELin1ELin1EEELi0ENS_11OuterStrideILin1EEEEELin1ELi1ELb1EEENS4_IdLin1ELi1ELi0ELin1ELi1EEEED2Ev, symObjAddr: 0x1D164, symBinAddr: 0x100020380, symSize: 0x2C }
  - { offsetInCU: 0x914D3, offset: 0x914D3, size: 0x8, addend: 0x0, symName: __ZN5Eigen8internal14evaluator_baseINS_5BlockIKNS_3RefINS_6MatrixIdLin1ELin1ELi0ELin1ELin1EEELi0ENS_11OuterStrideILin1EEEEELin1ELi1ELb1EEEEC2Ev, symObjAddr: 0x1D190, symBinAddr: 0x1000203AC, symSize: 0x14 }
  - { offsetInCU: 0x914FD, offset: 0x914FD, size: 0x8, addend: 0x0, symName: __ZNK5Eigen8internal15BlockImpl_denseIKNS_3RefINS_6MatrixIdLin1ELin1ELi0ELin1ELin1EEELi0ENS_11OuterStrideILin1EEEEELin1ELi1ELb1ELb1EE11innerStrideEv, symObjAddr: 0x1D1A4, symBinAddr: 0x1000203C0, symSize: 0x28 }
  - { offsetInCU: 0x91523, offset: 0x91523, size: 0x8, addend: 0x0, symName: __ZNK5Eigen8internal15BlockImpl_denseIKNS_3RefINS_6MatrixIdLin1ELin1ELi0ELin1ELin1EEELi0ENS_11OuterStrideILin1EEEEELin1ELi1ELb1ELb1EE11outerStrideEv, symObjAddr: 0x1D1CC, symBinAddr: 0x1000203E8, symSize: 0x28 }
  - { offsetInCU: 0x91549, offset: 0x91549, size: 0x8, addend: 0x0, symName: __ZN5Eigen8internal14evaluator_baseINS_5BlockIKNS_3RefINS_6MatrixIdLin1ELin1ELi0ELin1ELin1EEELi0ENS_11OuterStrideILin1EEEEELin1ELi1ELb1EEEED2Ev, symObjAddr: 0x1D1F4, symBinAddr: 0x100020410, symSize: 0x14 }
  - { offsetInCU: 0x91573, offset: 0x91573, size: 0x8, addend: 0x0, symName: __ZN5Eigen8internal9evaluatorIKNS_9TransposeIKNS_5BlockIKNS_3RefINS_6MatrixIdLin1ELin1ELi0ELin1ELin1EEELi0ENS_11OuterStrideILin1EEEEELi1ELin1ELb0EEEEEED2Ev, symObjAddr: 0x1D208, symBinAddr: 0x100020424, symSize: 0x2C }
  - { offsetInCU: 0x9159F, offset: 0x9159F, size: 0x8, addend: 0x0, symName: __ZN5Eigen8internal9evaluatorINS_9TransposeIKNS_5BlockIKNS_3RefINS_6MatrixIdLin1ELin1ELi0ELin1ELin1EEELi0ENS_11OuterStrideILin1EEEEELi1ELin1ELb0EEEEEED2Ev, symObjAddr: 0x1D234, symBinAddr: 0x100020450, symSize: 0x2C }
  - { offsetInCU: 0x915CB, offset: 0x915CB, size: 0x8, addend: 0x0, symName: __ZN5Eigen8internal15unary_evaluatorINS_9TransposeIKNS_5BlockIKNS_3RefINS_6MatrixIdLin1ELin1ELi0ELin1ELin1EEELi0ENS_11OuterStrideILin1EEEEELi1ELin1ELb0EEEEENS0_10IndexBasedEdED2Ev, symObjAddr: 0x1D260, symBinAddr: 0x10002047C, symSize: 0x34 }
  - { offsetInCU: 0x915F7, offset: 0x915F7, size: 0x8, addend: 0x0, symName: __ZN5Eigen8internal9evaluatorIKNS_5BlockIKNS_3RefINS_6MatrixIdLin1ELin1ELi0ELin1ELin1EEELi0ENS_11OuterStrideILin1EEEEELi1ELin1ELb0EEEED1Ev, symObjAddr: 0x1D294, symBinAddr: 0x1000204B0, symSize: 0x2C }
  - { offsetInCU: 0x91623, offset: 0x91623, size: 0x8, addend: 0x0, symName: __ZN5Eigen8internal9evaluatorIKNS_5BlockIKNS_3RefINS_6MatrixIdLin1ELin1ELi0ELin1ELin1EEELi0ENS_11OuterStrideILin1EEEEELi1ELin1ELb0EEEED2Ev, symObjAddr: 0x1D2C0, symBinAddr: 0x1000204DC, symSize: 0x2C }
  - { offsetInCU: 0x9164F, offset: 0x9164F, size: 0x8, addend: 0x0, symName: __ZN5Eigen8internal9evaluatorINS_5BlockIKNS_3RefINS_6MatrixIdLin1ELin1ELi0ELin1ELin1EEELi0ENS_11OuterStrideILin1EEEEELi1ELin1ELb0EEEED2Ev, symObjAddr: 0x1D2EC, symBinAddr: 0x100020508, symSize: 0x2C }
  - { offsetInCU: 0x9167C, offset: 0x9167C, size: 0x8, addend: 0x0, symName: __ZN5Eigen8internal15block_evaluatorIKNS_3RefINS_6MatrixIdLin1ELin1ELi0ELin1ELin1EEELi0ENS_11OuterStrideILin1EEEEELi1ELin1ELb0ELb1EED2Ev, symObjAddr: 0x1D318, symBinAddr: 0x100020534, symSize: 0x2C }
  - { offsetInCU: 0x916A9, offset: 0x916A9, size: 0x8, addend: 0x0, symName: __ZNK5Eigen8internal15redux_evaluatorINS_13CwiseBinaryOpINS0_17scalar_product_opIddEEKNS_9TransposeIKNS_5BlockIKNS_3RefINS_6MatrixIdLin1ELin1ELi0ELin1ELin1EEELi0ENS_11OuterStrideILin1EEEEELi1ELin1ELb0EEEEEKNS6_ISD_Lin1ELi1ELb1EEEEEE17coeffByOuterInnerEll, symObjAddr: 0x1D344, symBinAddr: 0x100020560, symSize: 0x34 }
  - { offsetInCU: 0x916ED, offset: 0x916ED, size: 0x8, addend: 0x0, symName: __ZNK5Eigen9DenseBaseINS_13CwiseBinaryOpINS_8internal17scalar_product_opIddEEKNS_9TransposeIKNS_5BlockIKNS_3RefINS_6MatrixIdLin1ELin1ELi0ELin1ELin1EEELi0ENS_11OuterStrideILin1EEEEELi1ELin1ELb0EEEEEKNS6_ISD_Lin1ELi1ELb1EEEEEE9innerSizeEv, symObjAddr: 0x1D378, symBinAddr: 0x100020594, symSize: 0x24 }
  - { offsetInCU: 0x91713, offset: 0x91713, size: 0x8, addend: 0x0, symName: __ZNK5Eigen9DenseBaseINS_13CwiseBinaryOpINS_8internal17scalar_product_opIddEEKNS_9TransposeIKNS_5BlockIKNS_3RefINS_6MatrixIdLin1ELin1ELi0ELin1ELin1EEELi0ENS_11OuterStrideILin1EEEEELi1ELin1ELb0EEEEEKNS6_ISD_Lin1ELi1ELb1EEEEEE9outerSizeEv, symObjAddr: 0x1D39C, symBinAddr: 0x1000205B8, symSize: 0x14 }
  - { offsetInCU: 0x91739, offset: 0x91739, size: 0x8, addend: 0x0, symName: __ZNK5Eigen8internal16binary_evaluatorINS_13CwiseBinaryOpINS0_17scalar_product_opIddEEKNS_9TransposeIKNS_5BlockIKNS_3RefINS_6MatrixIdLin1ELin1ELi0ELin1ELin1EEELi0ENS_11OuterStrideILin1EEEEELi1ELin1ELb0EEEEEKNS6_ISD_Lin1ELi1ELb1EEEEENS0_10IndexBasedESL_ddE5coeffEll, symObjAddr: 0x1D3B0, symBinAddr: 0x1000205CC, symSize: 0x7C }
  - { offsetInCU: 0x9177D, offset: 0x9177D, size: 0x8, addend: 0x0, symName: __ZNK5Eigen8internal16binary_evaluatorINS_13CwiseBinaryOpINS0_17scalar_product_opIddEEKNS_9TransposeIKNS_5BlockIKNS_3RefINS_6MatrixIdLin1ELin1ELi0ELin1ELin1EEELi0ENS_11OuterStrideILin1EEEEELi1ELin1ELb0EEEEEKNS6_ISD_Lin1ELi1ELb1EEEEENS0_10IndexBasedESL_ddE4Data4funcEv, symObjAddr: 0x1D42C, symBinAddr: 0x100020648, symSize: 0x14 }
  - { offsetInCU: 0x917A3, offset: 0x917A3, size: 0x8, addend: 0x0, symName: __ZNK5Eigen8internal15unary_evaluatorINS_9TransposeIKNS_5BlockIKNS_3RefINS_6MatrixIdLin1ELin1ELi0ELin1ELin1EEELi0ENS_11OuterStrideILin1EEEEELi1ELin1ELb0EEEEENS0_10IndexBasedEdE5coeffEll, symObjAddr: 0x1D440, symBinAddr: 0x10002065C, symSize: 0x34 }
  - { offsetInCU: 0x917E7, offset: 0x917E7, size: 0x8, addend: 0x0, symName: __ZNK5Eigen8internal17mapbase_evaluatorINS_5BlockIKNS_3RefINS_6MatrixIdLin1ELin1ELi0ELin1ELin1EEELi0ENS_11OuterStrideILin1EEEEELin1ELi1ELb1EEENS4_IdLin1ELi1ELi0ELin1ELi1EEEE5coeffEll, symObjAddr: 0x1D474, symBinAddr: 0x100020690, symSize: 0x78 }
  - { offsetInCU: 0x9182B, offset: 0x9182B, size: 0x8, addend: 0x0, symName: __ZNK5Eigen8internal17mapbase_evaluatorINS_5BlockIKNS_3RefINS_6MatrixIdLin1ELin1ELi0ELin1ELin1EEELi0ENS_11OuterStrideILin1EEEEELi1ELin1ELb0EEENS4_IdLi1ELin1ELi1ELi1ELin1EEEE5coeffEll, symObjAddr: 0x1D4EC, symBinAddr: 0x100020708, symSize: 0x78 }
  - { offsetInCU: 0x9186F, offset: 0x9186F, size: 0x8, addend: 0x0, symName: __ZNK5Eigen8internal17mapbase_evaluatorINS_5BlockIKNS_3RefINS_6MatrixIdLin1ELin1ELi0ELin1ELin1EEELi0ENS_11OuterStrideILin1EEEEELi1ELin1ELb0EEENS4_IdLi1ELin1ELi1ELi1ELin1EEEE9colStrideEv, symObjAddr: 0x1D564, symBinAddr: 0x100020780, symSize: 0x28 }
  - { offsetInCU: 0x91895, offset: 0x91895, size: 0x8, addend: 0x0, symName: __ZNK5Eigen8internal17mapbase_evaluatorINS_5BlockIKNS_3RefINS_6MatrixIdLin1ELin1ELi0ELin1ELin1EEELi0ENS_11OuterStrideILin1EEEEELi1ELin1ELb0EEENS4_IdLi1ELin1ELi1ELi1ELin1EEEE9rowStrideEv, symObjAddr: 0x1D58C, symBinAddr: 0x1000207A8, symSize: 0x20 }
  - { offsetInCU: 0x918BB, offset: 0x918BB, size: 0x8, addend: 0x0, symName: __ZNK5Eigen8internal17mapbase_evaluatorINS_5BlockIKNS_3RefINS_6MatrixIdLin1ELin1ELi0ELin1ELin1EEELi0ENS_11OuterStrideILin1EEEEELin1ELi1ELb1EEENS4_IdLin1ELi1ELi0ELin1ELi1EEEE9colStrideEv, symObjAddr: 0x1D5AC, symBinAddr: 0x1000207C8, symSize: 0x28 }
  - { offsetInCU: 0x918E1, offset: 0x918E1, size: 0x8, addend: 0x0, symName: __ZNK5Eigen8internal17mapbase_evaluatorINS_5BlockIKNS_3RefINS_6MatrixIdLin1ELin1ELi0ELin1ELin1EEELi0ENS_11OuterStrideILin1EEEEELin1ELi1ELb1EEENS4_IdLin1ELi1ELi0ELin1ELi1EEEE9rowStrideEv, symObjAddr: 0x1D5D4, symBinAddr: 0x1000207F0, symSize: 0x20 }
  - { offsetInCU: 0x91907, offset: 0x91907, size: 0x8, addend: 0x0, symName: __ZN5Eigen8internal15redux_evaluatorINS_13CwiseBinaryOpINS0_17scalar_product_opIddEEKNS_9TransposeIKNS_5BlockIKNS_3RefINS_6MatrixIdLin1ELin1ELi0ELin1ELin1EEELi0ENS_11OuterStrideILin1EEEEELi1ELin1ELb0EEEEEKNS6_ISD_Lin1ELi1ELb1EEEEEED2Ev, symObjAddr: 0x1D5F4, symBinAddr: 0x100020810, symSize: 0x2C }
  - { offsetInCU: 0x91934, offset: 0x91934, size: 0x8, addend: 0x0, symName: __ZN5Eigen8internal9evaluatorINS_13CwiseBinaryOpINS0_17scalar_product_opIddEEKNS_9TransposeIKNS_5BlockIKNS_3RefINS_6MatrixIdLin1ELin1ELi0ELin1ELin1EEELi0ENS_11OuterStrideILin1EEEEELi1ELin1ELb0EEEEEKNS6_ISD_Lin1ELi1ELb1EEEEEED2Ev, symObjAddr: 0x1D620, symBinAddr: 0x10002083C, symSize: 0x2C }
  - { offsetInCU: 0x91961, offset: 0x91961, size: 0x8, addend: 0x0, symName: __ZN5Eigen8internal16binary_evaluatorINS_13CwiseBinaryOpINS0_17scalar_product_opIddEEKNS_9TransposeIKNS_5BlockIKNS_3RefINS_6MatrixIdLin1ELin1ELi0ELin1ELin1EEELi0ENS_11OuterStrideILin1EEEEELi1ELin1ELb0EEEEEKNS6_ISD_Lin1ELi1ELb1EEEEENS0_10IndexBasedESL_ddED2Ev, symObjAddr: 0x1D64C, symBinAddr: 0x100020868, symSize: 0x34 }
  - { offsetInCU: 0x9198D, offset: 0x9198D, size: 0x8, addend: 0x0, symName: __ZN5Eigen8internal16binary_evaluatorINS_13CwiseBinaryOpINS0_17scalar_product_opIddEEKNS_9TransposeIKNS_5BlockIKNS_3RefINS_6MatrixIdLin1ELin1ELi0ELin1ELin1EEELi0ENS_11OuterStrideILin1EEEEELi1ELin1ELb0EEEEEKNS6_ISD_Lin1ELi1ELb1EEEEENS0_10IndexBasedESL_ddE4DataD1Ev, symObjAddr: 0x1D680, symBinAddr: 0x10002089C, symSize: 0x2C }
  - { offsetInCU: 0x919BA, offset: 0x919BA, size: 0x8, addend: 0x0, symName: __ZN5Eigen8internal16binary_evaluatorINS_13CwiseBinaryOpINS0_17scalar_product_opIddEEKNS_9TransposeIKNS_5BlockIKNS_3RefINS_6MatrixIdLin1ELin1ELi0ELin1ELin1EEELi0ENS_11OuterStrideILin1EEEEELi1ELin1ELb0EEEEEKNS6_ISD_Lin1ELi1ELb1EEEEENS0_10IndexBasedESL_ddE4DataD2Ev, symObjAddr: 0x1D6AC, symBinAddr: 0x1000208C8, symSize: 0x3C }
  - { offsetInCU: 0x919E7, offset: 0x919E7, size: 0x8, addend: 0x0, symName: __ZN5Eigen8internal9evaluatorIKNS_5BlockIKNS_3RefINS_6MatrixIdLin1ELin1ELi0ELin1ELin1EEELi0ENS_11OuterStrideILin1EEEEELin1ELi1ELb1EEEED1Ev, symObjAddr: 0x1D6E8, symBinAddr: 0x100020904, symSize: 0x2C }
  - { offsetInCU: 0x91A13, offset: 0x91A13, size: 0x8, addend: 0x0, symName: __ZN5Eigen8internal9evaluatorIKNS_5BlockIKNS_3RefINS_6MatrixIdLin1ELin1ELi0ELin1ELin1EEELi0ENS_11OuterStrideILin1EEEEELin1ELi1ELb1EEEED2Ev, symObjAddr: 0x1D714, symBinAddr: 0x100020930, symSize: 0x2C }
  - { offsetInCU: 0x91A3F, offset: 0x91A3F, size: 0x8, addend: 0x0, symName: __ZN5Eigen8internal9evaluatorINS_5BlockIKNS_3RefINS_6MatrixIdLin1ELin1ELi0ELin1ELin1EEELi0ENS_11OuterStrideILin1EEEEELin1ELi1ELb1EEEED2Ev, symObjAddr: 0x1D740, symBinAddr: 0x10002095C, symSize: 0x2C }
  - { offsetInCU: 0x91A6C, offset: 0x91A6C, size: 0x8, addend: 0x0, symName: __ZN5Eigen8internal15block_evaluatorIKNS_3RefINS_6MatrixIdLin1ELin1ELi0ELin1ELin1EEELi0ENS_11OuterStrideILin1EEEEELin1ELi1ELb1ELb1EED2Ev, symObjAddr: 0x1D76C, symBinAddr: 0x100020988, symSize: 0x2C }
  - { offsetInCU: 0x91A99, offset: 0x91A99, size: 0x8, addend: 0x0, symName: __ZN5Eigen8internal31generic_dense_assignment_kernelINS0_9evaluatorINS_3RefINS_6MatrixIdLin1ELin1ELi0ELin1ELin1EEELi0ENS_11OuterStrideILin1EEEEEEENS2_INS_7ProductIS8_S8_Li1EEEEENS0_13sub_assign_opIddEELi1EE12assignPacketILi16ELi0E19__simd128_float64_tEEvll, symObjAddr: 0x1D798, symBinAddr: 0x1000209B4, symSize: 0x70 }
  - { offsetInCU: 0x91AFA, offset: 0x91AFA, size: 0x8, addend: 0x0, symName: __ZNK5Eigen8internal17product_evaluatorINS_7ProductINS_3RefINS_6MatrixIdLin1ELin1ELi0ELin1ELin1EEELi0ENS_11OuterStrideILin1EEEEES8_Li1EEELi8ENS_10DenseShapeESA_ddE6packetILi0E19__simd128_float64_tEEKT0_ll, symObjAddr: 0x1D808, symBinAddr: 0x100020A24, symSize: 0x48 }
  - { offsetInCU: 0x91B6A, offset: 0x91B6A, size: 0x8, addend: 0x0, symName: __ZN5Eigen8internal24etor_product_packet_implILi0ELin1ENS0_9evaluatorINS_3RefINS_6MatrixIdLin1ELin1ELi0ELin1ELin1EEELi0ENS_11OuterStrideILin1EEEEEEES9_19__simd128_float64_tLi0EE3runEllRKS9_SD_lRSA_, symObjAddr: 0x1D850, symBinAddr: 0x100020A6C, symSize: 0xC8 }
  - { offsetInCU: 0x91BF6, offset: 0x91BF6, size: 0x8, addend: 0x0, symName: __ZNK5Eigen8internal17mapbase_evaluatorINS_3RefINS_6MatrixIdLin1ELin1ELi0ELin1ELin1EEELi0ENS_11OuterStrideILin1EEEEES4_E6packetILi0E19__simd128_float64_tEET0_ll, symObjAddr: 0x1D918, symBinAddr: 0x100020B34, symSize: 0x8C }
  - { offsetInCU: 0x91C7A, offset: 0x91C7A, size: 0x8, addend: 0x0, symName: __ZNK5Eigen8internal17mapbase_evaluatorINS_3RefINS_6MatrixIdLin1ELin1ELi0ELin1ELin1EEELi0ENS_11OuterStrideILin1EEEEES4_E5coeffEll, symObjAddr: 0x1D9A4, symBinAddr: 0x100020BC0, symSize: 0x78 }
  - { offsetInCU: 0x91CBE, offset: 0x91CBE, size: 0x8, addend: 0x0, symName: __ZN5Eigen8internal9evaluatorINS_3RefINS_6MatrixIdLin1ELin1ELi0ELin1ELin1EEELi0ENS_11OuterStrideILin1EEEEEED2Ev, symObjAddr: 0x1DA1C, symBinAddr: 0x100020C38, symSize: 0x2C }
  - { offsetInCU: 0x91CEB, offset: 0x91CEB, size: 0x8, addend: 0x0, symName: __ZN5Eigen8internal17mapbase_evaluatorINS_3RefINS_6MatrixIdLin1ELin1ELi0ELin1ELin1EEELi0ENS_11OuterStrideILin1EEEEES4_ED2Ev, symObjAddr: 0x1DA48, symBinAddr: 0x100020C64, symSize: 0x2C }
  - { offsetInCU: 0x91D18, offset: 0x91D18, size: 0x8, addend: 0x0, symName: __ZN5Eigen8internal9evaluatorINS_7ProductINS_3RefINS_6MatrixIdLin1ELin1ELi0ELin1ELin1EEELi0ENS_11OuterStrideILin1EEEEES8_Li1EEEED2Ev, symObjAddr: 0x1DA74, symBinAddr: 0x100020C90, symSize: 0x2C }
  - { offsetInCU: 0x91D44, offset: 0x91D44, size: 0x8, addend: 0x0, symName: __ZN5Eigen8internal17product_evaluatorINS_7ProductINS_3RefINS_6MatrixIdLin1ELin1ELi0ELin1ELin1EEELi0ENS_11OuterStrideILin1EEEEES8_Li1EEELi8ENS_10DenseShapeESA_ddED2Ev, symObjAddr: 0x1DAA0, symBinAddr: 0x100020CBC, symSize: 0x44 }
  - { offsetInCU: 0x91D70, offset: 0x91D70, size: 0x8, addend: 0x0, symName: __ZN5Eigen7ProductINS_3RefINS_6MatrixIdLin1ELin1ELi0ELin1ELin1EEELi0ENS_11OuterStrideILin1EEEEES6_Li1EEC1ERKS6_S9_, symObjAddr: 0x1DAE4, symBinAddr: 0x100020D00, symSize: 0x3C }
  - { offsetInCU: 0x91DB6, offset: 0x91DB6, size: 0x8, addend: 0x0, symName: __ZN5Eigen7ProductINS_3RefINS_6MatrixIdLin1ELin1ELi0ELin1ELin1EEELi0ENS_11OuterStrideILin1EEEEES6_Li1EEC2ERKS6_S9_, symObjAddr: 0x1DB20, symBinAddr: 0x100020D3C, symSize: 0xC0 }
  - { offsetInCU: 0x91E01, offset: 0x91E01, size: 0x8, addend: 0x0, symName: __ZN5Eigen11ProductImplINS_3RefINS_6MatrixIdLin1ELin1ELi0ELin1ELin1EEELi0ENS_11OuterStrideILin1EEEEES6_Li1ENS_5DenseEEC2Ev, symObjAddr: 0x1DBE0, symBinAddr: 0x100020DFC, symSize: 0x2C }
  - { offsetInCU: 0x91E32, offset: 0x91E32, size: 0x8, addend: 0x0, symName: __ZN5Eigen8internal18dense_product_baseINS_3RefINS_6MatrixIdLin1ELin1ELi0ELin1ELin1EEELi0ENS_11OuterStrideILin1EEEEES7_Li1ELi8EEC2Ev, symObjAddr: 0x1DC0C, symBinAddr: 0x100020E28, symSize: 0x2C }
  - { offsetInCU: 0x91E5E, offset: 0x91E5E, size: 0x8, addend: 0x0, symName: __ZN5Eigen10MatrixBaseINS_7ProductINS_3RefINS_6MatrixIdLin1ELin1ELi0ELin1ELin1EEELi0ENS_11OuterStrideILin1EEEEES7_Li1EEEEC2Ev, symObjAddr: 0x1DC38, symBinAddr: 0x100020E54, symSize: 0x2C }
  - { offsetInCU: 0x91E88, offset: 0x91E88, size: 0x8, addend: 0x0, symName: __ZN5Eigen9DenseBaseINS_7ProductINS_3RefINS_6MatrixIdLin1ELin1ELi0ELin1ELin1EEELi0ENS_11OuterStrideILin1EEEEES7_Li1EEEEC2Ev, symObjAddr: 0x1DC64, symBinAddr: 0x100020E80, symSize: 0x14 }
  - { offsetInCU: 0x9206F, offset: 0x9206F, size: 0x8, addend: 0x0, symName: __ZN5Eigen8internal20generic_product_implINS_3RefINS_6MatrixIdLin1ELin1ELi0ELin1ELin1EEELi0ENS_11OuterStrideILin1EEEEEKNS_5BlockIKS7_Lin1ELi1ELb1EEENS_10DenseShapeESC_Li7EE13scaleAndAddToINS8_IS7_Lin1ELi1ELb1EEEEEvRT_RS9_RSB_RKd, symObjAddr: 0x1DC78, symBinAddr: 0x100020E94, symSize: 0x110 }
  - { offsetInCU: 0x922A6, offset: 0x922A6, size: 0x8, addend: 0x0, symName: __ZN5Eigen8internal20generic_product_implIKNS_5BlockIKNS_3RefINS_6MatrixIdLin1ELin1ELi0ELin1ELin1EEELi0ENS_11OuterStrideILin1EEEEELi1ELin1ELb0EEES8_NS_10DenseShapeESC_Li7EE13scaleAndAddToINS2_IS8_Li1ELin1ELb0EEEEEvRT_RSB_RS9_RKd, symObjAddr: 0x1DD88, symBinAddr: 0x100020FA4, symSize: 0x110 }
  - { offsetInCU: 0x92325, offset: 0x92325, size: 0x8, addend: 0x0, symName: __ZN5Eigen8internal19gemm_blocking_spaceILi0EddLin1ELin1ELin1ELi1ELb0EEC1Ellllb, symObjAddr: 0x1DE98, symBinAddr: 0x1000210B4, symSize: 0x60 }
  - { offsetInCU: 0x923B8, offset: 0x923B8, size: 0x8, addend: 0x0, symName: __ZN5Eigen8internal12gemm_functorIdlNS0_29general_matrix_matrix_productIldLi0ELb0EdLi0ELb0ELi0ELi1EEENS_3RefINS_6MatrixIdLin1ELin1ELi0ELin1ELin1EEELi0ENS_11OuterStrideILin1EEEEES9_S9_NS0_19gemm_blocking_spaceILi0EddLin1ELin1ELin1ELi1ELb0EEEEC1ERKS9_SE_RS9_RKdRSB_, symObjAddr: 0x1DF5C, symBinAddr: 0x100021178, symSize: 0x54 }
  - { offsetInCU: 0x92428, offset: 0x92428, size: 0x8, addend: 0x0, symName: __ZN5Eigen8internal19gemm_blocking_spaceILi0EddLin1ELin1ELin1ELi1ELb0EED1Ev, symObjAddr: 0x1DFB0, symBinAddr: 0x1000211CC, symSize: 0x2C }
  - { offsetInCU: 0x92452, offset: 0x92452, size: 0x8, addend: 0x0, symName: __ZNK5Eigen9DenseBaseINS_5BlockIKNS_3RefINS_6MatrixIdLin1ELin1ELi0ELin1ELin1EEELi0ENS_11OuterStrideILin1EEEEELi1ELin1ELb0EEEE9conjugateEv, symObjAddr: 0x1DFDC, symBinAddr: 0x1000211F8, symSize: 0x24 }
  - { offsetInCU: 0x92478, offset: 0x92478, size: 0x8, addend: 0x0, symName: __ZNK5Eigen10MatrixBaseINS_5BlockIKNS_3RefINS_6MatrixIdLin1ELin1ELi0ELin1ELin1EEELi0ENS_11OuterStrideILin1EEEEELi1ELin1ELb0EEEE3dotINS1_IKNS1_IS8_Lin1ELi1ELb1EEELin1ELi1ELb1EEEEENS_20ScalarBinaryOpTraitsIdNS_8internal6traitsIT_E6ScalarENSG_17scalar_product_opIdSK_EEE10ReturnTypeERKNS0_ISI_EE, symObjAddr: 0x1E000, symBinAddr: 0x10002121C, symSize: 0x80 }
  - { offsetInCU: 0x924B7, offset: 0x924B7, size: 0x8, addend: 0x0, symName: __ZNK5Eigen9DenseBaseINS_5BlockIKNS_3RefINS_6MatrixIdLin1ELin1ELi0ELin1ELin1EEELi0ENS_11OuterStrideILin1EEEEELin1ELi1ELb1EEEE3colEl, symObjAddr: 0x1E080, symBinAddr: 0x10002129C, symSize: 0x3C }
  - { offsetInCU: 0x924EC, offset: 0x924EC, size: 0x8, addend: 0x0, symName: __ZN5Eigen7MapBaseINS_5BlockINS_3RefINS_6MatrixIdLin1ELin1ELi0ELin1ELin1EEELi0ENS_11OuterStrideILin1EEEEELin1ELi1ELb1EEELi1EE8coeffRefEll, symObjAddr: 0x1E0BC, symBinAddr: 0x1000212D8, symSize: 0x78 }
  - { offsetInCU: 0x92612, offset: 0x92612, size: 0x8, addend: 0x0, symName: __ZN5Eigen8internal19gemv_dense_selectorILi2ELi0ELb1EE3runINS_3RefINS_6MatrixIdLin1ELin1ELi0ELin1ELin1EEELi0ENS_11OuterStrideILin1EEEEENS_5BlockIKS9_Lin1ELi1ELb1EEENSA_IS9_Lin1ELi1ELb1EEEEEvRKT_RKT0_RT1_RKNSK_6ScalarE, symObjAddr: 0x1E134, symBinAddr: 0x100021350, symSize: 0x260 }
  - { offsetInCU: 0x92879, offset: 0x92879, size: 0x8, addend: 0x0, symName: __ZNK5Eigen9EigenBaseINS_5BlockIKNS_3RefINS_6MatrixIdLin1ELin1ELi0ELin1ELin1EEELi0ENS_11OuterStrideILin1EEEEELi1ELin1ELb0EEEE4sizeEv, symObjAddr: 0x1E394, symBinAddr: 0x1000215B0, symSize: 0x44 }
  - { offsetInCU: 0x9289F, offset: 0x9289F, size: 0x8, addend: 0x0, symName: __ZNK5Eigen9EigenBaseINS_5BlockIKNS1_IKNS_3RefINS_6MatrixIdLin1ELin1ELi0ELin1ELin1EEELi0ENS_11OuterStrideILin1EEEEELin1ELi1ELb1EEELin1ELi1ELb1EEEE4sizeEv, symObjAddr: 0x1E3D8, symBinAddr: 0x1000215F4, symSize: 0x44 }
  - { offsetInCU: 0x928C5, offset: 0x928C5, size: 0x8, addend: 0x0, symName: __ZN5Eigen8internal11dot_nocheckINS_5BlockIKNS_3RefINS_6MatrixIdLin1ELin1ELi0ELin1ELin1EEELi0ENS_11OuterStrideILin1EEEEELi1ELin1ELb0EEENS2_IKNS2_IS9_Lin1ELi1ELb1EEELin1ELi1ELb1EEELb1EE3runERKNS_10MatrixBaseISA_EERKNSF_ISD_EE, symObjAddr: 0x1E41C, symBinAddr: 0x100021638, symSize: 0x78 }
  - { offsetInCU: 0x928F6, offset: 0x928F6, size: 0x8, addend: 0x0, symName: __ZNK5Eigen9EigenBaseINS_5BlockIKNS_3RefINS_6MatrixIdLin1ELin1ELi0ELin1ELin1EEELi0ENS_11OuterStrideILin1EEEEELi1ELin1ELb0EEEE4rowsEv, symObjAddr: 0x1E494, symBinAddr: 0x1000216B0, symSize: 0x28 }
  - { offsetInCU: 0x9291C, offset: 0x9291C, size: 0x8, addend: 0x0, symName: __ZNK5Eigen9EigenBaseINS_5BlockIKNS_3RefINS_6MatrixIdLin1ELin1ELi0ELin1ELin1EEELi0ENS_11OuterStrideILin1EEEEELi1ELin1ELb0EEEE4colsEv, symObjAddr: 0x1E4BC, symBinAddr: 0x1000216D8, symSize: 0x28 }
  - { offsetInCU: 0x92942, offset: 0x92942, size: 0x8, addend: 0x0, symName: __ZNK5Eigen9EigenBaseINS_5BlockIKNS1_IKNS_3RefINS_6MatrixIdLin1ELin1ELi0ELin1ELin1EEELi0ENS_11OuterStrideILin1EEEEELin1ELi1ELb1EEELin1ELi1ELb1EEEE4rowsEv, symObjAddr: 0x1E4E4, symBinAddr: 0x100021700, symSize: 0x38 }
  - { offsetInCU: 0x92968, offset: 0x92968, size: 0x8, addend: 0x0, symName: __ZNK5Eigen9EigenBaseINS_5BlockIKNS1_IKNS_3RefINS_6MatrixIdLin1ELin1ELi0ELin1ELin1EEELi0ENS_11OuterStrideILin1EEEEELin1ELi1ELb1EEELin1ELi1ELb1EEEE4colsEv, symObjAddr: 0x1E51C, symBinAddr: 0x100021738, symSize: 0x28 }
  - { offsetInCU: 0x9298E, offset: 0x9298E, size: 0x8, addend: 0x0, symName: __ZNK5Eigen9EigenBaseINS_5BlockIKNS1_IKNS_3RefINS_6MatrixIdLin1ELin1ELi0ELin1ELin1EEELi0ENS_11OuterStrideILin1EEEEELin1ELi1ELb1EEELin1ELi1ELb1EEEE7derivedEv, symObjAddr: 0x1E544, symBinAddr: 0x100021760, symSize: 0x14 }
  - { offsetInCU: 0x929B4, offset: 0x929B4, size: 0x8, addend: 0x0, symName: __ZNK5Eigen7MapBaseINS_5BlockIKNS1_IKNS_3RefINS_6MatrixIdLin1ELin1ELi0ELin1ELin1EEELi0ENS_11OuterStrideILin1EEEEELin1ELi1ELb1EEELin1ELi1ELb1EEELi0EE4rowsEv, symObjAddr: 0x1E558, symBinAddr: 0x100021774, symSize: 0x28 }
  - { offsetInCU: 0x929DA, offset: 0x929DA, size: 0x8, addend: 0x0, symName: __ZNK5Eigen7MapBaseINS_5BlockIKNS1_IKNS_3RefINS_6MatrixIdLin1ELin1ELi0ELin1ELin1EEELi0ENS_11OuterStrideILin1EEEEELin1ELi1ELb1EEELin1ELi1ELb1EEELi0EE4colsEv, symObjAddr: 0x1E580, symBinAddr: 0x10002179C, symSize: 0x20 }
  - { offsetInCU: 0x92A00, offset: 0x92A00, size: 0x8, addend: 0x0, symName: __ZNK5Eigen10MatrixBaseINS_9TransposeIKNS_5BlockIKNS_3RefINS_6MatrixIdLin1ELin1ELi0ELin1ELin1EEELi0ENS_11OuterStrideILin1EEEEELi1ELin1ELb0EEEEEE10binaryExprINS_8internal22scalar_conj_product_opIddEENS2_IKNS2_IS9_Lin1ELi1ELb1EEELin1ELi1ELb1EEEEEKNS_13CwiseBinaryOpIT_KSC_KT0_EERKNS0_ISO_EERKSM_, symObjAddr: 0x1E5A0, symBinAddr: 0x1000217BC, symSize: 0x54 }
  - { offsetInCU: 0x92A54, offset: 0x92A54, size: 0x8, addend: 0x0, symName: __ZN5Eigen8internal22scalar_conj_product_opIddEC1Ev, symObjAddr: 0x1E5F4, symBinAddr: 0x100021810, symSize: 0x2C }
  - { offsetInCU: 0x92A7E, offset: 0x92A7E, size: 0x8, addend: 0x0, symName: __ZNK5Eigen9DenseBaseINS_13CwiseBinaryOpINS_8internal22scalar_conj_product_opIddEEKNS_9TransposeIKNS_5BlockIKNS_3RefINS_6MatrixIdLin1ELin1ELi0ELin1ELin1EEELi0ENS_11OuterStrideILin1EEEEELi1ELin1ELb0EEEEEKNS6_IKNS6_ISD_Lin1ELi1ELb1EEELin1ELi1ELb1EEEEEE3sumEv, symObjAddr: 0x1E620, symBinAddr: 0x10002183C, symSize: 0x74 }
  - { offsetInCU: 0x92AA7, offset: 0x92AA7, size: 0x8, addend: 0x0, symName: __ZN5Eigen13CwiseBinaryOpINS_8internal22scalar_conj_product_opIddEEKNS_9TransposeIKNS_5BlockIKNS_3RefINS_6MatrixIdLin1ELin1ELi0ELin1ELin1EEELi0ENS_11OuterStrideILin1EEEEELi1ELin1ELb0EEEEEKNS5_IKNS5_ISC_Lin1ELi1ELb1EEELin1ELi1ELb1EEEEC1ERSG_RSK_RKS3_, symObjAddr: 0x1E694, symBinAddr: 0x1000218B0, symSize: 0x44 }
  - { offsetInCU: 0x92AFB, offset: 0x92AFB, size: 0x8, addend: 0x0, symName: __ZN5Eigen13CwiseBinaryOpINS_8internal22scalar_conj_product_opIddEEKNS_9TransposeIKNS_5BlockIKNS_3RefINS_6MatrixIdLin1ELin1ELi0ELin1ELin1EEELi0ENS_11OuterStrideILin1EEEEELi1ELin1ELb0EEEEEKNS5_IKNS5_ISC_Lin1ELi1ELb1EEELin1ELi1ELb1EEEEC2ERSG_RSK_RKS3_, symObjAddr: 0x1E6D8, symBinAddr: 0x1000218F4, symSize: 0x100 }
  - { offsetInCU: 0x92B54, offset: 0x92B54, size: 0x8, addend: 0x0, symName: __ZN5Eigen17CwiseBinaryOpImplINS_8internal22scalar_conj_product_opIddEEKNS_9TransposeIKNS_5BlockIKNS_3RefINS_6MatrixIdLin1ELin1ELi0ELin1ELin1EEELi0ENS_11OuterStrideILin1EEEEELi1ELin1ELb0EEEEEKNS5_IKNS5_ISC_Lin1ELi1ELb1EEELin1ELi1ELb1EEENS_5DenseEEC2Ev, symObjAddr: 0x1E7D8, symBinAddr: 0x1000219F4, symSize: 0x2C }
  - { offsetInCU: 0x92B80, offset: 0x92B80, size: 0x8, addend: 0x0, symName: __ZN5Eigen8internal22scalar_conj_product_opIddEC1ERKS2_, symObjAddr: 0x1E804, symBinAddr: 0x100021A20, symSize: 0x34 }
  - { offsetInCU: 0x92BB5, offset: 0x92BB5, size: 0x8, addend: 0x0, symName: __ZN5Eigen10MatrixBaseINS_13CwiseBinaryOpINS_8internal22scalar_conj_product_opIddEEKNS_9TransposeIKNS_5BlockIKNS_3RefINS_6MatrixIdLin1ELin1ELi0ELin1ELin1EEELi0ENS_11OuterStrideILin1EEEEELi1ELin1ELb0EEEEEKNS6_IKNS6_ISD_Lin1ELi1ELb1EEELin1ELi1ELb1EEEEEEC2Ev, symObjAddr: 0x1E838, symBinAddr: 0x100021A54, symSize: 0x2C }
  - { offsetInCU: 0x92BDF, offset: 0x92BDF, size: 0x8, addend: 0x0, symName: __ZN5Eigen9DenseBaseINS_13CwiseBinaryOpINS_8internal22scalar_conj_product_opIddEEKNS_9TransposeIKNS_5BlockIKNS_3RefINS_6MatrixIdLin1ELin1ELi0ELin1ELin1EEELi0ENS_11OuterStrideILin1EEEEELi1ELin1ELb0EEEEEKNS6_IKNS6_ISD_Lin1ELi1ELb1EEELin1ELi1ELb1EEEEEEC2Ev, symObjAddr: 0x1E864, symBinAddr: 0x100021A80, symSize: 0x14 }
  - { offsetInCU: 0x92C09, offset: 0x92C09, size: 0x8, addend: 0x0, symName: __ZN5Eigen8internal22scalar_conj_product_opIddEC2ERKS2_, symObjAddr: 0x1E878, symBinAddr: 0x100021A94, symSize: 0x18 }
  - { offsetInCU: 0x92C3E, offset: 0x92C3E, size: 0x8, addend: 0x0, symName: __ZN5Eigen8internal22scalar_conj_product_opIddEC2Ev, symObjAddr: 0x1E890, symBinAddr: 0x100021AAC, symSize: 0x14 }
  - { offsetInCU: 0x92C68, offset: 0x92C68, size: 0x8, addend: 0x0, symName: __ZNK5Eigen9EigenBaseINS_13CwiseBinaryOpINS_8internal22scalar_conj_product_opIddEEKNS_9TransposeIKNS_5BlockIKNS_3RefINS_6MatrixIdLin1ELin1ELi0ELin1ELin1EEELi0ENS_11OuterStrideILin1EEEEELi1ELin1ELb0EEEEEKNS6_IKNS6_ISD_Lin1ELi1ELb1EEELin1ELi1ELb1EEEEEE4sizeEv, symObjAddr: 0x1E8A4, symBinAddr: 0x100021AC0, symSize: 0x44 }
  - { offsetInCU: 0x92C8E, offset: 0x92C8E, size: 0x8, addend: 0x0, symName: __ZNK5Eigen9EigenBaseINS_13CwiseBinaryOpINS_8internal22scalar_conj_product_opIddEEKNS_9TransposeIKNS_5BlockIKNS_3RefINS_6MatrixIdLin1ELin1ELi0ELin1ELin1EEELi0ENS_11OuterStrideILin1EEEEELi1ELin1ELb0EEEEEKNS6_IKNS6_ISD_Lin1ELi1ELb1EEELin1ELi1ELb1EEEEEE7derivedEv, symObjAddr: 0x1E8E8, symBinAddr: 0x100021B04, symSize: 0x14 }
  - { offsetInCU: 0x92CB4, offset: 0x92CB4, size: 0x8, addend: 0x0, symName: __ZNK5Eigen9DenseBaseINS_13CwiseBinaryOpINS_8internal22scalar_conj_product_opIddEEKNS_9TransposeIKNS_5BlockIKNS_3RefINS_6MatrixIdLin1ELin1ELi0ELin1ELin1EEELi0ENS_11OuterStrideILin1EEEEELi1ELin1ELb0EEEEEKNS6_IKNS6_ISD_Lin1ELi1ELb1EEELin1ELi1ELb1EEEEEE5reduxINS2_13scalar_sum_opIddEEEEdRKT_, symObjAddr: 0x1E8FC, symBinAddr: 0x100021B18, symSize: 0x10C }
  - { offsetInCU: 0x92D10, offset: 0x92D10, size: 0x8, addend: 0x0, symName: __ZNK5Eigen9EigenBaseINS_13CwiseBinaryOpINS_8internal22scalar_conj_product_opIddEEKNS_9TransposeIKNS_5BlockIKNS_3RefINS_6MatrixIdLin1ELin1ELi0ELin1ELin1EEELi0ENS_11OuterStrideILin1EEEEELi1ELin1ELb0EEEEEKNS6_IKNS6_ISD_Lin1ELi1ELb1EEELin1ELi1ELb1EEEEEE4rowsEv, symObjAddr: 0x1EA08, symBinAddr: 0x100021C24, symSize: 0x38 }
  - { offsetInCU: 0x92D36, offset: 0x92D36, size: 0x8, addend: 0x0, symName: __ZNK5Eigen9EigenBaseINS_13CwiseBinaryOpINS_8internal22scalar_conj_product_opIddEEKNS_9TransposeIKNS_5BlockIKNS_3RefINS_6MatrixIdLin1ELin1ELi0ELin1ELin1EEELi0ENS_11OuterStrideILin1EEEEELi1ELin1ELb0EEEEEKNS6_IKNS6_ISD_Lin1ELi1ELb1EEELin1ELi1ELb1EEEEEE4colsEv, symObjAddr: 0x1EA40, symBinAddr: 0x100021C5C, symSize: 0x38 }
  - { offsetInCU: 0x92D5C, offset: 0x92D5C, size: 0x8, addend: 0x0, symName: __ZNK5Eigen13CwiseBinaryOpINS_8internal22scalar_conj_product_opIddEEKNS_9TransposeIKNS_5BlockIKNS_3RefINS_6MatrixIdLin1ELin1ELi0ELin1ELin1EEELi0ENS_11OuterStrideILin1EEEEELi1ELin1ELb0EEEEEKNS5_IKNS5_ISC_Lin1ELi1ELb1EEELin1ELi1ELb1EEEE4rowsEv, symObjAddr: 0x1EA78, symBinAddr: 0x100021C94, symSize: 0x28 }
  - { offsetInCU: 0x92D82, offset: 0x92D82, size: 0x8, addend: 0x0, symName: __ZNK5Eigen13CwiseBinaryOpINS_8internal22scalar_conj_product_opIddEEKNS_9TransposeIKNS_5BlockIKNS_3RefINS_6MatrixIdLin1ELin1ELi0ELin1ELin1EEELi0ENS_11OuterStrideILin1EEEEELi1ELin1ELb0EEEEEKNS5_IKNS5_ISC_Lin1ELi1ELb1EEELin1ELi1ELb1EEEE4colsEv, symObjAddr: 0x1EAA0, symBinAddr: 0x100021CBC, symSize: 0x24 }
  - { offsetInCU: 0x92E2A, offset: 0x92E2A, size: 0x8, addend: 0x0, symName: __ZN5Eigen8internal15redux_evaluatorINS_13CwiseBinaryOpINS0_22scalar_conj_product_opIddEEKNS_9TransposeIKNS_5BlockIKNS_3RefINS_6MatrixIdLin1ELin1ELi0ELin1ELin1EEELi0ENS_11OuterStrideILin1EEEEELi1ELin1ELb0EEEEEKNS6_IKNS6_ISD_Lin1ELi1ELb1EEELin1ELi1ELb1EEEEEEC1ERKSM_, symObjAddr: 0x1EAC4, symBinAddr: 0x100021CE0, symSize: 0x34 }
  - { offsetInCU: 0x92E68, offset: 0x92E68, size: 0x8, addend: 0x0, symName: __ZN5Eigen8internal10redux_implINS0_13scalar_sum_opIddEENS0_15redux_evaluatorINS_13CwiseBinaryOpINS0_22scalar_conj_product_opIddEEKNS_9TransposeIKNS_5BlockIKNS_3RefINS_6MatrixIdLin1ELin1ELi0ELin1ELin1EEELi0ENS_11OuterStrideILin1EEEEELi1ELin1ELb0EEEEEKNS9_IKNS9_ISG_Lin1ELi1ELb1EEELin1ELi1ELb1EEEEEEELi0ELi0EE3runISP_EEdRKSQ_RKS3_RKT_, symObjAddr: 0x1EAF8, symBinAddr: 0x100021D14, symSize: 0x1E0 }
  - { offsetInCU: 0x92F13, offset: 0x92F13, size: 0x8, addend: 0x0, symName: __ZN5Eigen8internal15redux_evaluatorINS_13CwiseBinaryOpINS0_22scalar_conj_product_opIddEEKNS_9TransposeIKNS_5BlockIKNS_3RefINS_6MatrixIdLin1ELin1ELi0ELin1ELin1EEELi0ENS_11OuterStrideILin1EEEEELi1ELin1ELb0EEEEEKNS6_IKNS6_ISD_Lin1ELi1ELb1EEELin1ELi1ELb1EEEEEED1Ev, symObjAddr: 0x1ECD8, symBinAddr: 0x100021EF4, symSize: 0x2C }
  - { offsetInCU: 0x92F40, offset: 0x92F40, size: 0x8, addend: 0x0, symName: __ZN5Eigen8internal15redux_evaluatorINS_13CwiseBinaryOpINS0_22scalar_conj_product_opIddEEKNS_9TransposeIKNS_5BlockIKNS_3RefINS_6MatrixIdLin1ELin1ELi0ELin1ELin1EEELi0ENS_11OuterStrideILin1EEEEELi1ELin1ELb0EEEEEKNS6_IKNS6_ISD_Lin1ELi1ELb1EEELin1ELi1ELb1EEEEEEC2ERKSM_, symObjAddr: 0x1ED04, symBinAddr: 0x100021F20, symSize: 0x34 }
  - { offsetInCU: 0x92F79, offset: 0x92F79, size: 0x8, addend: 0x0, symName: __ZN5Eigen8internal9evaluatorINS_13CwiseBinaryOpINS0_22scalar_conj_product_opIddEEKNS_9TransposeIKNS_5BlockIKNS_3RefINS_6MatrixIdLin1ELin1ELi0ELin1ELin1EEELi0ENS_11OuterStrideILin1EEEEELi1ELin1ELb0EEEEEKNS6_IKNS6_ISD_Lin1ELi1ELb1EEELin1ELi1ELb1EEEEEEC2ERKSM_, symObjAddr: 0x1ED38, symBinAddr: 0x100021F54, symSize: 0x34 }
  - { offsetInCU: 0x92FB2, offset: 0x92FB2, size: 0x8, addend: 0x0, symName: __ZN5Eigen8internal16binary_evaluatorINS_13CwiseBinaryOpINS0_22scalar_conj_product_opIddEEKNS_9TransposeIKNS_5BlockIKNS_3RefINS_6MatrixIdLin1ELin1ELi0ELin1ELin1EEELi0ENS_11OuterStrideILin1EEEEELi1ELin1ELb0EEEEEKNS6_IKNS6_ISD_Lin1ELi1ELb1EEELin1ELi1ELb1EEEEENS0_10IndexBasedESN_ddEC2ERKSM_, symObjAddr: 0x1ED6C, symBinAddr: 0x100021F88, symSize: 0x64 }
  - { offsetInCU: 0x92FEB, offset: 0x92FEB, size: 0x8, addend: 0x0, symName: __ZN5Eigen8internal14evaluator_baseINS_13CwiseBinaryOpINS0_22scalar_conj_product_opIddEEKNS_9TransposeIKNS_5BlockIKNS_3RefINS_6MatrixIdLin1ELin1ELi0ELin1ELin1EEELi0ENS_11OuterStrideILin1EEEEELi1ELin1ELb0EEEEEKNS6_IKNS6_ISD_Lin1ELi1ELb1EEELin1ELi1ELb1EEEEEEC2Ev, symObjAddr: 0x1EDD0, symBinAddr: 0x100021FEC, symSize: 0x14 }
  - { offsetInCU: 0x93015, offset: 0x93015, size: 0x8, addend: 0x0, symName: __ZN5Eigen8internal16binary_evaluatorINS_13CwiseBinaryOpINS0_22scalar_conj_product_opIddEEKNS_9TransposeIKNS_5BlockIKNS_3RefINS_6MatrixIdLin1ELin1ELi0ELin1ELin1EEELi0ENS_11OuterStrideILin1EEEEELi1ELin1ELb0EEEEEKNS6_IKNS6_ISD_Lin1ELi1ELb1EEELin1ELi1ELb1EEEEENS0_10IndexBasedESN_ddE4DataC1ERKSM_, symObjAddr: 0x1EDE4, symBinAddr: 0x100022000, symSize: 0x34 }
  - { offsetInCU: 0x9304E, offset: 0x9304E, size: 0x8, addend: 0x0, symName: __ZN5Eigen8internal14evaluator_baseINS_13CwiseBinaryOpINS0_22scalar_conj_product_opIddEEKNS_9TransposeIKNS_5BlockIKNS_3RefINS_6MatrixIdLin1ELin1ELi0ELin1ELin1EEELi0ENS_11OuterStrideILin1EEEEELi1ELin1ELb0EEEEEKNS6_IKNS6_ISD_Lin1ELi1ELb1EEELin1ELi1ELb1EEEEEED2Ev, symObjAddr: 0x1EE18, symBinAddr: 0x100022034, symSize: 0x14 }
  - { offsetInCU: 0x93078, offset: 0x93078, size: 0x8, addend: 0x0, symName: __ZN5Eigen8internal16binary_evaluatorINS_13CwiseBinaryOpINS0_22scalar_conj_product_opIddEEKNS_9TransposeIKNS_5BlockIKNS_3RefINS_6MatrixIdLin1ELin1ELi0ELin1ELin1EEELi0ENS_11OuterStrideILin1EEEEELi1ELin1ELb0EEEEEKNS6_IKNS6_ISD_Lin1ELi1ELb1EEELin1ELi1ELb1EEEEENS0_10IndexBasedESN_ddE4DataC2ERKSM_, symObjAddr: 0x1EE2C, symBinAddr: 0x100022048, symSize: 0xA8 }
  - { offsetInCU: 0x930B1, offset: 0x930B1, size: 0x8, addend: 0x0, symName: __ZNK5Eigen13CwiseBinaryOpINS_8internal22scalar_conj_product_opIddEEKNS_9TransposeIKNS_5BlockIKNS_3RefINS_6MatrixIdLin1ELin1ELi0ELin1ELin1EEELi0ENS_11OuterStrideILin1EEEEELi1ELin1ELb0EEEEEKNS5_IKNS5_ISC_Lin1ELi1ELb1EEELin1ELi1ELb1EEEE7functorEv, symObjAddr: 0x1EED4, symBinAddr: 0x1000220F0, symSize: 0x18 }
  - { offsetInCU: 0x930D7, offset: 0x930D7, size: 0x8, addend: 0x0, symName: __ZNK5Eigen13CwiseBinaryOpINS_8internal22scalar_conj_product_opIddEEKNS_9TransposeIKNS_5BlockIKNS_3RefINS_6MatrixIdLin1ELin1ELi0ELin1ELin1EEELi0ENS_11OuterStrideILin1EEEEELi1ELin1ELb0EEEEEKNS5_IKNS5_ISC_Lin1ELi1ELb1EEELin1ELi1ELb1EEEE3lhsEv, symObjAddr: 0x1EEEC, symBinAddr: 0x100022108, symSize: 0x14 }
  - { offsetInCU: 0x930FD, offset: 0x930FD, size: 0x8, addend: 0x0, symName: __ZNK5Eigen13CwiseBinaryOpINS_8internal22scalar_conj_product_opIddEEKNS_9TransposeIKNS_5BlockIKNS_3RefINS_6MatrixIdLin1ELin1ELi0ELin1ELin1EEELi0ENS_11OuterStrideILin1EEEEELi1ELin1ELb0EEEEEKNS5_IKNS5_ISC_Lin1ELi1ELb1EEELin1ELi1ELb1EEEE3rhsEv, symObjAddr: 0x1EF00, symBinAddr: 0x10002211C, symSize: 0x18 }
  - { offsetInCU: 0x93123, offset: 0x93123, size: 0x8, addend: 0x0, symName: __ZN5Eigen8internal9evaluatorIKNS_5BlockIKNS2_IKNS_3RefINS_6MatrixIdLin1ELin1ELi0ELin1ELin1EEELi0ENS_11OuterStrideILin1EEEEELin1ELi1ELb1EEELin1ELi1ELb1EEEEC1ERSD_, symObjAddr: 0x1EF18, symBinAddr: 0x100022134, symSize: 0x34 }
  - { offsetInCU: 0x9315B, offset: 0x9315B, size: 0x8, addend: 0x0, symName: __ZN5Eigen8internal9evaluatorIKNS_5BlockIKNS2_IKNS_3RefINS_6MatrixIdLin1ELin1ELi0ELin1ELin1EEELi0ENS_11OuterStrideILin1EEEEELin1ELi1ELb1EEELin1ELi1ELb1EEEEC2ERSD_, symObjAddr: 0x1EF4C, symBinAddr: 0x100022168, symSize: 0x34 }
  - { offsetInCU: 0x93193, offset: 0x93193, size: 0x8, addend: 0x0, symName: __ZN5Eigen8internal9evaluatorINS_5BlockIKNS2_IKNS_3RefINS_6MatrixIdLin1ELin1ELi0ELin1ELin1EEELi0ENS_11OuterStrideILin1EEEEELin1ELi1ELb1EEELin1ELi1ELb1EEEEC2ERKSC_, symObjAddr: 0x1EF80, symBinAddr: 0x10002219C, symSize: 0x34 }
  - { offsetInCU: 0x931CC, offset: 0x931CC, size: 0x8, addend: 0x0, symName: __ZN5Eigen8internal15block_evaluatorIKNS_5BlockIKNS_3RefINS_6MatrixIdLin1ELin1ELi0ELin1ELin1EEELi0ENS_11OuterStrideILin1EEEEELin1ELi1ELb1EEELin1ELi1ELb1ELb1EEC2ERKNS2_ISB_Lin1ELi1ELb1EEE, symObjAddr: 0x1EFB4, symBinAddr: 0x1000221D0, symSize: 0xDC }
  - { offsetInCU: 0x93205, offset: 0x93205, size: 0x8, addend: 0x0, symName: __ZN5Eigen8internal17mapbase_evaluatorINS_5BlockIKNS2_IKNS_3RefINS_6MatrixIdLin1ELin1ELi0ELin1ELin1EEELi0ENS_11OuterStrideILin1EEEEELin1ELi1ELb1EEELin1ELi1ELb1EEENS4_IdLin1ELi1ELi0ELin1ELi1EEEEC2ERKSC_, symObjAddr: 0x1F090, symBinAddr: 0x1000222AC, symSize: 0xB0 }
  - { offsetInCU: 0x9323E, offset: 0x9323E, size: 0x8, addend: 0x0, symName: __ZNK5Eigen7MapBaseINS_5BlockIKNS1_IKNS_3RefINS_6MatrixIdLin1ELin1ELi0ELin1ELin1EEELi0ENS_11OuterStrideILin1EEEEELin1ELi1ELb1EEELin1ELi1ELb1EEELi0EE4dataEv, symObjAddr: 0x1F140, symBinAddr: 0x10002235C, symSize: 0x18 }
  - { offsetInCU: 0x93264, offset: 0x93264, size: 0x8, addend: 0x0, symName: __ZN5Eigen8internal17mapbase_evaluatorINS_5BlockIKNS2_IKNS_3RefINS_6MatrixIdLin1ELin1ELi0ELin1ELin1EEELi0ENS_11OuterStrideILin1EEEEELin1ELi1ELb1EEELin1ELi1ELb1EEENS4_IdLin1ELi1ELi0ELin1ELi1EEEED2Ev, symObjAddr: 0x1F158, symBinAddr: 0x100022374, symSize: 0x2C }
  - { offsetInCU: 0x93291, offset: 0x93291, size: 0x8, addend: 0x0, symName: __ZN5Eigen8internal14evaluator_baseINS_5BlockIKNS2_IKNS_3RefINS_6MatrixIdLin1ELin1ELi0ELin1ELin1EEELi0ENS_11OuterStrideILin1EEEEELin1ELi1ELb1EEELin1ELi1ELb1EEEEC2Ev, symObjAddr: 0x1F184, symBinAddr: 0x1000223A0, symSize: 0x14 }
  - { offsetInCU: 0x932BB, offset: 0x932BB, size: 0x8, addend: 0x0, symName: __ZNK5Eigen8internal15BlockImpl_denseIKNS_5BlockIKNS_3RefINS_6MatrixIdLin1ELin1ELi0ELin1ELin1EEELi0ENS_11OuterStrideILin1EEEEELin1ELi1ELb1EEELin1ELi1ELb1ELb1EE11innerStrideEv, symObjAddr: 0x1F198, symBinAddr: 0x1000223B4, symSize: 0x28 }
  - { offsetInCU: 0x932E1, offset: 0x932E1, size: 0x8, addend: 0x0, symName: __ZNK5Eigen8internal15BlockImpl_denseIKNS_5BlockIKNS_3RefINS_6MatrixIdLin1ELin1ELi0ELin1ELin1EEELi0ENS_11OuterStrideILin1EEEEELin1ELi1ELb1EEELin1ELi1ELb1ELb1EE11outerStrideEv, symObjAddr: 0x1F1C0, symBinAddr: 0x1000223DC, symSize: 0x28 }
  - { offsetInCU: 0x93307, offset: 0x93307, size: 0x8, addend: 0x0, symName: __ZN5Eigen8internal14evaluator_baseINS_5BlockIKNS2_IKNS_3RefINS_6MatrixIdLin1ELin1ELi0ELin1ELin1EEELi0ENS_11OuterStrideILin1EEEEELin1ELi1ELb1EEELin1ELi1ELb1EEEED2Ev, symObjAddr: 0x1F1E8, symBinAddr: 0x100022404, symSize: 0x14 }
  - { offsetInCU: 0x93331, offset: 0x93331, size: 0x8, addend: 0x0, symName: __ZNK5Eigen8internal15redux_evaluatorINS_13CwiseBinaryOpINS0_22scalar_conj_product_opIddEEKNS_9TransposeIKNS_5BlockIKNS_3RefINS_6MatrixIdLin1ELin1ELi0ELin1ELin1EEELi0ENS_11OuterStrideILin1EEEEELi1ELin1ELb0EEEEEKNS6_IKNS6_ISD_Lin1ELi1ELb1EEELin1ELi1ELb1EEEEEE17coeffByOuterInnerEll, symObjAddr: 0x1F1FC, symBinAddr: 0x100022418, symSize: 0x34 }
  - { offsetInCU: 0x93375, offset: 0x93375, size: 0x8, addend: 0x0, symName: __ZNK5Eigen9DenseBaseINS_13CwiseBinaryOpINS_8internal22scalar_conj_product_opIddEEKNS_9TransposeIKNS_5BlockIKNS_3RefINS_6MatrixIdLin1ELin1ELi0ELin1ELin1EEELi0ENS_11OuterStrideILin1EEEEELi1ELin1ELb0EEEEEKNS6_IKNS6_ISD_Lin1ELi1ELb1EEELin1ELi1ELb1EEEEEE9innerSizeEv, symObjAddr: 0x1F230, symBinAddr: 0x10002244C, symSize: 0x24 }
  - { offsetInCU: 0x9339B, offset: 0x9339B, size: 0x8, addend: 0x0, symName: __ZNK5Eigen9DenseBaseINS_13CwiseBinaryOpINS_8internal22scalar_conj_product_opIddEEKNS_9TransposeIKNS_5BlockIKNS_3RefINS_6MatrixIdLin1ELin1ELi0ELin1ELin1EEELi0ENS_11OuterStrideILin1EEEEELi1ELin1ELb0EEEEEKNS6_IKNS6_ISD_Lin1ELi1ELb1EEELin1ELi1ELb1EEEEEE9outerSizeEv, symObjAddr: 0x1F254, symBinAddr: 0x100022470, symSize: 0x14 }
  - { offsetInCU: 0x933C1, offset: 0x933C1, size: 0x8, addend: 0x0, symName: __ZNK5Eigen8internal16binary_evaluatorINS_13CwiseBinaryOpINS0_22scalar_conj_product_opIddEEKNS_9TransposeIKNS_5BlockIKNS_3RefINS_6MatrixIdLin1ELin1ELi0ELin1ELin1EEELi0ENS_11OuterStrideILin1EEEEELi1ELin1ELb0EEEEEKNS6_IKNS6_ISD_Lin1ELi1ELb1EEELin1ELi1ELb1EEEEENS0_10IndexBasedESN_ddE5coeffEll, symObjAddr: 0x1F268, symBinAddr: 0x100022484, symSize: 0x7C }
  - { offsetInCU: 0x93405, offset: 0x93405, size: 0x8, addend: 0x0, symName: __ZNK5Eigen8internal16binary_evaluatorINS_13CwiseBinaryOpINS0_22scalar_conj_product_opIddEEKNS_9TransposeIKNS_5BlockIKNS_3RefINS_6MatrixIdLin1ELin1ELi0ELin1ELin1EEELi0ENS_11OuterStrideILin1EEEEELi1ELin1ELb0EEEEEKNS6_IKNS6_ISD_Lin1ELi1ELb1EEELin1ELi1ELb1EEEEENS0_10IndexBasedESN_ddE4Data4funcEv, symObjAddr: 0x1F2E4, symBinAddr: 0x100022500, symSize: 0x14 }
  - { offsetInCU: 0x9342B, offset: 0x9342B, size: 0x8, addend: 0x0, symName: __ZNK5Eigen8internal22scalar_conj_product_opIddEclERKdS4_, symObjAddr: 0x1F2F8, symBinAddr: 0x100022514, symSize: 0x34 }
  - { offsetInCU: 0x9346D, offset: 0x9346D, size: 0x8, addend: 0x0, symName: __ZNK5Eigen8internal17mapbase_evaluatorINS_5BlockIKNS2_IKNS_3RefINS_6MatrixIdLin1ELin1ELi0ELin1ELin1EEELi0ENS_11OuterStrideILin1EEEEELin1ELi1ELb1EEELin1ELi1ELb1EEENS4_IdLin1ELi1ELi0ELin1ELi1EEEE5coeffEll, symObjAddr: 0x1F32C, symBinAddr: 0x100022548, symSize: 0x78 }
  - { offsetInCU: 0x934B1, offset: 0x934B1, size: 0x8, addend: 0x0, symName: __ZNK5Eigen8internal11conj_helperIddLb0ELb0EE4pmulERKdS4_, symObjAddr: 0x1F3A4, symBinAddr: 0x1000225C0, symSize: 0x4C }
  - { offsetInCU: 0x934F3, offset: 0x934F3, size: 0x8, addend: 0x0, symName: __ZNK5Eigen8internal17mapbase_evaluatorINS_5BlockIKNS2_IKNS_3RefINS_6MatrixIdLin1ELin1ELi0ELin1ELin1EEELi0ENS_11OuterStrideILin1EEEEELin1ELi1ELb1EEELin1ELi1ELb1EEENS4_IdLin1ELi1ELi0ELin1ELi1EEEE9colStrideEv, symObjAddr: 0x1F3F0, symBinAddr: 0x10002260C, symSize: 0x28 }
  - { offsetInCU: 0x93519, offset: 0x93519, size: 0x8, addend: 0x0, symName: __ZNK5Eigen8internal17mapbase_evaluatorINS_5BlockIKNS2_IKNS_3RefINS_6MatrixIdLin1ELin1ELi0ELin1ELin1EEELi0ENS_11OuterStrideILin1EEEEELin1ELi1ELb1EEELin1ELi1ELb1EEENS4_IdLin1ELi1ELi0ELin1ELi1EEEE9rowStrideEv, symObjAddr: 0x1F418, symBinAddr: 0x100022634, symSize: 0x20 }
  - { offsetInCU: 0x9353F, offset: 0x9353F, size: 0x8, addend: 0x0, symName: __ZN5Eigen8internal15redux_evaluatorINS_13CwiseBinaryOpINS0_22scalar_conj_product_opIddEEKNS_9TransposeIKNS_5BlockIKNS_3RefINS_6MatrixIdLin1ELin1ELi0ELin1ELin1EEELi0ENS_11OuterStrideILin1EEEEELi1ELin1ELb0EEEEEKNS6_IKNS6_ISD_Lin1ELi1ELb1EEELin1ELi1ELb1EEEEEED2Ev, symObjAddr: 0x1F438, symBinAddr: 0x100022654, symSize: 0x2C }
  - { offsetInCU: 0x9356C, offset: 0x9356C, size: 0x8, addend: 0x0, symName: __ZN5Eigen8internal9evaluatorINS_13CwiseBinaryOpINS0_22scalar_conj_product_opIddEEKNS_9TransposeIKNS_5BlockIKNS_3RefINS_6MatrixIdLin1ELin1ELi0ELin1ELin1EEELi0ENS_11OuterStrideILin1EEEEELi1ELin1ELb0EEEEEKNS6_IKNS6_ISD_Lin1ELi1ELb1EEELin1ELi1ELb1EEEEEED2Ev, symObjAddr: 0x1F464, symBinAddr: 0x100022680, symSize: 0x2C }
  - { offsetInCU: 0x93599, offset: 0x93599, size: 0x8, addend: 0x0, symName: __ZN5Eigen8internal16binary_evaluatorINS_13CwiseBinaryOpINS0_22scalar_conj_product_opIddEEKNS_9TransposeIKNS_5BlockIKNS_3RefINS_6MatrixIdLin1ELin1ELi0ELin1ELin1EEELi0ENS_11OuterStrideILin1EEEEELi1ELin1ELb0EEEEEKNS6_IKNS6_ISD_Lin1ELi1ELb1EEELin1ELi1ELb1EEEEENS0_10IndexBasedESN_ddED2Ev, symObjAddr: 0x1F490, symBinAddr: 0x1000226AC, symSize: 0x34 }
  - { offsetInCU: 0x935C5, offset: 0x935C5, size: 0x8, addend: 0x0, symName: __ZN5Eigen8internal16binary_evaluatorINS_13CwiseBinaryOpINS0_22scalar_conj_product_opIddEEKNS_9TransposeIKNS_5BlockIKNS_3RefINS_6MatrixIdLin1ELin1ELi0ELin1ELin1EEELi0ENS_11OuterStrideILin1EEEEELi1ELin1ELb0EEEEEKNS6_IKNS6_ISD_Lin1ELi1ELb1EEELin1ELi1ELb1EEEEENS0_10IndexBasedESN_ddE4DataD1Ev, symObjAddr: 0x1F4C4, symBinAddr: 0x1000226E0, symSize: 0x2C }
  - { offsetInCU: 0x935F2, offset: 0x935F2, size: 0x8, addend: 0x0, symName: __ZN5Eigen8internal16binary_evaluatorINS_13CwiseBinaryOpINS0_22scalar_conj_product_opIddEEKNS_9TransposeIKNS_5BlockIKNS_3RefINS_6MatrixIdLin1ELin1ELi0ELin1ELin1EEELi0ENS_11OuterStrideILin1EEEEELi1ELin1ELb0EEEEEKNS6_IKNS6_ISD_Lin1ELi1ELb1EEELin1ELi1ELb1EEEEENS0_10IndexBasedESN_ddE4DataD2Ev, symObjAddr: 0x1F4F0, symBinAddr: 0x10002270C, symSize: 0x3C }
  - { offsetInCU: 0x9361F, offset: 0x9361F, size: 0x8, addend: 0x0, symName: __ZN5Eigen8internal9evaluatorIKNS_5BlockIKNS2_IKNS_3RefINS_6MatrixIdLin1ELin1ELi0ELin1ELin1EEELi0ENS_11OuterStrideILin1EEEEELin1ELi1ELb1EEELin1ELi1ELb1EEEED1Ev, symObjAddr: 0x1F52C, symBinAddr: 0x100022748, symSize: 0x2C }
  - { offsetInCU: 0x9364B, offset: 0x9364B, size: 0x8, addend: 0x0, symName: __ZN5Eigen8internal9evaluatorIKNS_5BlockIKNS2_IKNS_3RefINS_6MatrixIdLin1ELin1ELi0ELin1ELin1EEELi0ENS_11OuterStrideILin1EEEEELin1ELi1ELb1EEELin1ELi1ELb1EEEED2Ev, symObjAddr: 0x1F558, symBinAddr: 0x100022774, symSize: 0x2C }
  - { offsetInCU: 0x93677, offset: 0x93677, size: 0x8, addend: 0x0, symName: __ZN5Eigen8internal9evaluatorINS_5BlockIKNS2_IKNS_3RefINS_6MatrixIdLin1ELin1ELi0ELin1ELin1EEELi0ENS_11OuterStrideILin1EEEEELin1ELi1ELb1EEELin1ELi1ELb1EEEED2Ev, symObjAddr: 0x1F584, symBinAddr: 0x1000227A0, symSize: 0x2C }
  - { offsetInCU: 0x936A4, offset: 0x936A4, size: 0x8, addend: 0x0, symName: __ZN5Eigen8internal15block_evaluatorIKNS_5BlockIKNS_3RefINS_6MatrixIdLin1ELin1ELi0ELin1ELin1EEELi0ENS_11OuterStrideILin1EEEEELin1ELi1ELb1EEELin1ELi1ELb1ELb1EED2Ev, symObjAddr: 0x1F5B0, symBinAddr: 0x1000227CC, symSize: 0x2C }
  - { offsetInCU: 0x936D1, offset: 0x936D1, size: 0x8, addend: 0x0, symName: __ZN5Eigen5BlockIKNS0_IKNS_3RefINS_6MatrixIdLin1ELin1ELi0ELin1ELin1EEELi0ENS_11OuterStrideILin1EEEEELin1ELi1ELb1EEELin1ELi1ELb1EEC1ERS9_l, symObjAddr: 0x1F5DC, symBinAddr: 0x1000227F8, symSize: 0x3C }
  - { offsetInCU: 0x93717, offset: 0x93717, size: 0x8, addend: 0x0, symName: __ZN5Eigen5BlockIKNS0_IKNS_3RefINS_6MatrixIdLin1ELin1ELi0ELin1ELin1EEELi0ENS_11OuterStrideILin1EEEEELin1ELi1ELb1EEELin1ELi1ELb1EEC2ERS9_l, symObjAddr: 0x1F618, symBinAddr: 0x100022834, symSize: 0xAC }
  - { offsetInCU: 0x9375D, offset: 0x9375D, size: 0x8, addend: 0x0, symName: __ZN5Eigen9BlockImplIKNS_5BlockIKNS_3RefINS_6MatrixIdLin1ELin1ELi0ELin1ELin1EEELi0ENS_11OuterStrideILin1EEEEELin1ELi1ELb1EEELin1ELi1ELb1ENS_5DenseEEC2ERSA_l, symObjAddr: 0x1F6C4, symBinAddr: 0x1000228E0, symSize: 0x3C }
  - { offsetInCU: 0x937A3, offset: 0x937A3, size: 0x8, addend: 0x0, symName: __ZN5Eigen8internal15BlockImpl_denseIKNS_5BlockIKNS_3RefINS_6MatrixIdLin1ELin1ELi0ELin1ELin1EEELi0ENS_11OuterStrideILin1EEEEELin1ELi1ELb1EEELin1ELi1ELb1ELb1EEC2ERSB_l, symObjAddr: 0x1F700, symBinAddr: 0x10002291C, symSize: 0xB8 }
  - { offsetInCU: 0x937EB, offset: 0x937EB, size: 0x8, addend: 0x0, symName: __ZN5Eigen7MapBaseINS_5BlockIKNS1_IKNS_3RefINS_6MatrixIdLin1ELin1ELi0ELin1ELin1EEELi0ENS_11OuterStrideILin1EEEEELin1ELi1ELb1EEELin1ELi1ELb1EEELi0EEC2EPKdll, symObjAddr: 0x1F7B8, symBinAddr: 0x1000229D4, symSize: 0x11C }
  - { offsetInCU: 0x9383F, offset: 0x9383F, size: 0x8, addend: 0x0, symName: __ZN5Eigen8internal15BlockImpl_denseIKNS_5BlockIKNS_3RefINS_6MatrixIdLin1ELin1ELi0ELin1ELin1EEELi0ENS_11OuterStrideILin1EEEEELin1ELi1ELb1EEELin1ELi1ELb1ELb1EE4initEv, symObjAddr: 0x1F8D4, symBinAddr: 0x100022AF0, symSize: 0x34 }
  - { offsetInCU: 0x93865, offset: 0x93865, size: 0x8, addend: 0x0, symName: __ZN5Eigen10MatrixBaseINS_5BlockIKNS1_IKNS_3RefINS_6MatrixIdLin1ELin1ELi0ELin1ELin1EEELi0ENS_11OuterStrideILin1EEEEELin1ELi1ELb1EEELin1ELi1ELb1EEEEC2Ev, symObjAddr: 0x1F908, symBinAddr: 0x100022B24, symSize: 0x2C }
  - { offsetInCU: 0x9388F, offset: 0x9388F, size: 0x8, addend: 0x0, symName: __ZNK5Eigen7MapBaseINS_5BlockIKNS1_IKNS_3RefINS_6MatrixIdLin1ELin1ELi0ELin1ELin1EEELi0ENS_11OuterStrideILin1EEEEELin1ELi1ELb1EEELin1ELi1ELb1EEELi0EE11checkSanityISB_EEvNS_8internal9enable_ifIXeqsr8internal6traitsIT_EE9AlignmentLi0EEPvE4typeE, symObjAddr: 0x1F934, symBinAddr: 0x100022B50, symSize: 0x14 }
  - { offsetInCU: 0x938C9, offset: 0x938C9, size: 0x8, addend: 0x0, symName: __ZN5Eigen9DenseBaseINS_5BlockIKNS1_IKNS_3RefINS_6MatrixIdLin1ELin1ELi0ELin1ELin1EEELi0ENS_11OuterStrideILin1EEEEELin1ELi1ELb1EEELin1ELi1ELb1EEEEC2Ev, symObjAddr: 0x1F948, symBinAddr: 0x100022B64, symSize: 0x14 }
  - { offsetInCU: 0x938F3, offset: 0x938F3, size: 0x8, addend: 0x0, symName: __ZNK5Eigen15DenseCoeffsBaseINS_5BlockINS_3RefINS_6MatrixIdLin1ELin1ELi0ELin1ELin1EEELi0ENS_11OuterStrideILin1EEEEELin1ELi1ELb1EEELi3EE9colStrideEv, symObjAddr: 0x1F95C, symBinAddr: 0x100022B78, symSize: 0x24 }
  - { offsetInCU: 0x93919, offset: 0x93919, size: 0x8, addend: 0x0, symName: __ZNK5Eigen15DenseCoeffsBaseINS_5BlockINS_3RefINS_6MatrixIdLin1ELin1ELi0ELin1ELin1EEELi0ENS_11OuterStrideILin1EEEEELin1ELi1ELb1EEELi3EE9rowStrideEv, symObjAddr: 0x1F980, symBinAddr: 0x100022B9C, symSize: 0x24 }
  - { offsetInCU: 0x9393F, offset: 0x9393F, size: 0x8, addend: 0x0, symName: __ZNK5Eigen15DenseCoeffsBaseINS_5BlockINS_3RefINS_6MatrixIdLin1ELin1ELi0ELin1ELin1EEELi0ENS_11OuterStrideILin1EEEEELin1ELi1ELb1EEELi3EE11outerStrideEv, symObjAddr: 0x1F9A4, symBinAddr: 0x100022BC0, symSize: 0x28 }
  - { offsetInCU: 0x93965, offset: 0x93965, size: 0x8, addend: 0x0, symName: __ZNK5Eigen15DenseCoeffsBaseINS_5BlockINS_3RefINS_6MatrixIdLin1ELin1ELi0ELin1ELin1EEELi0ENS_11OuterStrideILin1EEEEELin1ELi1ELb1EEELi3EE11innerStrideEv, symObjAddr: 0x1F9CC, symBinAddr: 0x100022BE8, symSize: 0x28 }
  - { offsetInCU: 0x9398B, offset: 0x9398B, size: 0x8, addend: 0x0, symName: __ZN5Eigen8internal11blas_traitsINS_5BlockIKNS_3RefINS_6MatrixIdLin1ELin1ELi0ELin1ELin1EEELi0ENS_11OuterStrideILin1EEEEELin1ELi1ELb1EEEE7extractERKSA_, symObjAddr: 0x1F9F4, symBinAddr: 0x100022C10, symSize: 0x14 }
  - { offsetInCU: 0x939AF, offset: 0x939AF, size: 0x8, addend: 0x0, symName: __ZN5Eigen8internal10get_factorIddE3runERKd, symObjAddr: 0x1FA08, symBinAddr: 0x100022C24, symSize: 0x24 }
  - { offsetInCU: 0x93A46, offset: 0x93A46, size: 0x8, addend: 0x0, symName: __ZN5Eigen8internal11blas_traitsINS_5BlockIKNS_3RefINS_6MatrixIdLin1ELin1ELi0ELin1ELin1EEELi0ENS_11OuterStrideILin1EEEEELin1ELi1ELb1EEEE19extractScalarFactorERKSA_, symObjAddr: 0x21000, symBinAddr: 0x10002421C, symSize: 0x14 }
  - { offsetInCU: 0x93A66, offset: 0x93A66, size: 0x8, addend: 0x0, symName: __ZN5Eigen8internal17real_default_implIdLb0EE3runERKd, symObjAddr: 0x21038, symBinAddr: 0x100024254, symSize: 0x18 }
  - { offsetInCU: 0x93A89, offset: 0x93A89, size: 0x8, addend: 0x0, symName: __ZNK5Eigen8internal16blas_data_mapperIKdlLi0ELi0ELi1EE6strideEv, symObjAddr: 0x21050, symBinAddr: 0x10002426C, symSize: 0x18 }
  - { offsetInCU: 0x93AB9, offset: 0x93AB9, size: 0x8, addend: 0x0, symName: __ZNK5Eigen8internal11conj_helperI19__simd128_float64_tS2_Lb0ELb0EE5pmaddERKS2_S5_S5_, symObjAddr: 0x21068, symBinAddr: 0x100024284, symSize: 0x54 }
  - { offsetInCU: 0x93B09, offset: 0x93B09, size: 0x8, addend: 0x0, symName: __ZNK5Eigen9DenseBaseINS_5BlockIKNS_3RefINS_6MatrixIdLin1ELin1ELi0ELin1ELin1EEELi0ENS_11OuterStrideILin1EEEEELi1ELin1ELb0EEEE3rowEl, symObjAddr: 0x210BC, symBinAddr: 0x1000242D8, symSize: 0x3C }
  - { offsetInCU: 0x93B3E, offset: 0x93B3E, size: 0x8, addend: 0x0, symName: __ZNK5Eigen9DenseBaseINS_5BlockIKNS1_IKNS_3RefINS_6MatrixIdLin1ELin1ELi0ELin1ELin1EEELi0ENS_11OuterStrideILin1EEEEELi1ELin1ELb0EEELi1ELin1ELb1EEEE9conjugateEv, symObjAddr: 0x210F8, symBinAddr: 0x100024314, symSize: 0x24 }
  - { offsetInCU: 0x93B64, offset: 0x93B64, size: 0x8, addend: 0x0, symName: __ZNK5Eigen10MatrixBaseINS_5BlockIKNS1_IKNS_3RefINS_6MatrixIdLin1ELin1ELi0ELin1ELin1EEELi0ENS_11OuterStrideILin1EEEEELi1ELin1ELb0EEELi1ELin1ELb1EEEE3dotINS1_IS8_Lin1ELi1ELb1EEEEENS_20ScalarBinaryOpTraitsIdNS_8internal6traitsIT_E6ScalarENSG_17scalar_product_opIdSK_EEE10ReturnTypeERKNS0_ISI_EE, symObjAddr: 0x2111C, symBinAddr: 0x100024338, symSize: 0x80 }
  - { offsetInCU: 0x93BA3, offset: 0x93BA3, size: 0x8, addend: 0x0, symName: __ZN5Eigen7MapBaseINS_5BlockINS_3RefINS_6MatrixIdLin1ELin1ELi0ELin1ELin1EEELi0ENS_11OuterStrideILin1EEEEELi1ELin1ELb0EEELi1EE8coeffRefEll, symObjAddr: 0x2119C, symBinAddr: 0x1000243B8, symSize: 0x78 }
  - { offsetInCU: 0x93BF1, offset: 0x93BF1, size: 0x8, addend: 0x0, symName: __ZN5Eigen8internal19gemv_dense_selectorILi1ELi0ELb1EE3runINS_5BlockIKNS_3RefINS_6MatrixIdLin1ELin1ELi0ELin1ELin1EEELi0ENS_11OuterStrideILin1EEEEELi1ELin1ELb0EEESA_NS4_ISA_Li1ELin1ELb0EEEEEvRKT_RKT0_RT1_RKNSK_6ScalarE, symObjAddr: 0x21214, symBinAddr: 0x100024430, symSize: 0x70 }
  - { offsetInCU: 0x93C68, offset: 0x93C68, size: 0x8, addend: 0x0, symName: __ZN5Eigen5BlockIKNS0_IKNS_3RefINS_6MatrixIdLin1ELin1ELi0ELin1ELin1EEELi0ENS_11OuterStrideILin1EEEEELi1ELin1ELb0EEELi1ELin1ELb1EEC1ERS9_l, symObjAddr: 0x21284, symBinAddr: 0x1000244A0, symSize: 0x3C }
  - { offsetInCU: 0x93CAE, offset: 0x93CAE, size: 0x8, addend: 0x0, symName: __ZN5Eigen5BlockIKNS0_IKNS_3RefINS_6MatrixIdLin1ELin1ELi0ELin1ELin1EEELi0ENS_11OuterStrideILin1EEEEELi1ELin1ELb0EEELi1ELin1ELb1EEC2ERS9_l, symObjAddr: 0x212C0, symBinAddr: 0x1000244DC, symSize: 0xCC }
  - { offsetInCU: 0x93CF4, offset: 0x93CF4, size: 0x8, addend: 0x0, symName: __ZN5Eigen9BlockImplIKNS_5BlockIKNS_3RefINS_6MatrixIdLin1ELin1ELi0ELin1ELin1EEELi0ENS_11OuterStrideILin1EEEEELi1ELin1ELb0EEELi1ELin1ELb1ENS_5DenseEEC2ERSA_l, symObjAddr: 0x2138C, symBinAddr: 0x1000245A8, symSize: 0x3C }
  - { offsetInCU: 0x93D3A, offset: 0x93D3A, size: 0x8, addend: 0x0, symName: __ZN5Eigen8internal15BlockImpl_denseIKNS_5BlockIKNS_3RefINS_6MatrixIdLin1ELin1ELi0ELin1ELin1EEELi0ENS_11OuterStrideILin1EEEEELi1ELin1ELb0EEELi1ELin1ELb1ELb1EEC2ERSB_l, symObjAddr: 0x213C8, symBinAddr: 0x1000245E4, symSize: 0xB8 }
  - { offsetInCU: 0x93D82, offset: 0x93D82, size: 0x8, addend: 0x0, symName: __ZN5Eigen7MapBaseINS_5BlockIKNS1_IKNS_3RefINS_6MatrixIdLin1ELin1ELi0ELin1ELin1EEELi0ENS_11OuterStrideILin1EEEEELi1ELin1ELb0EEELi1ELin1ELb1EEELi0EEC2EPKdll, symObjAddr: 0x21480, symBinAddr: 0x10002469C, symSize: 0x130 }
  - { offsetInCU: 0x93DD6, offset: 0x93DD6, size: 0x8, addend: 0x0, symName: __ZN5Eigen8internal15BlockImpl_denseIKNS_5BlockIKNS_3RefINS_6MatrixIdLin1ELin1ELi0ELin1ELin1EEELi0ENS_11OuterStrideILin1EEEEELi1ELin1ELb0EEELi1ELin1ELb1ELb1EE4initEv, symObjAddr: 0x215B0, symBinAddr: 0x1000247CC, symSize: 0x34 }
  - { offsetInCU: 0x93DFC, offset: 0x93DFC, size: 0x8, addend: 0x0, symName: __ZN5Eigen10MatrixBaseINS_5BlockIKNS1_IKNS_3RefINS_6MatrixIdLin1ELin1ELi0ELin1ELin1EEELi0ENS_11OuterStrideILin1EEEEELi1ELin1ELb0EEELi1ELin1ELb1EEEEC2Ev, symObjAddr: 0x215E4, symBinAddr: 0x100024800, symSize: 0x2C }
  - { offsetInCU: 0x93E26, offset: 0x93E26, size: 0x8, addend: 0x0, symName: __ZNK5Eigen7MapBaseINS_5BlockIKNS1_IKNS_3RefINS_6MatrixIdLin1ELin1ELi0ELin1ELin1EEELi0ENS_11OuterStrideILin1EEEEELi1ELin1ELb0EEELi1ELin1ELb1EEELi0EE11checkSanityISB_EEvNS_8internal9enable_ifIXeqsr8internal6traitsIT_EE9AlignmentLi0EEPvE4typeE, symObjAddr: 0x21610, symBinAddr: 0x10002482C, symSize: 0x14 }
  - { offsetInCU: 0x93E60, offset: 0x93E60, size: 0x8, addend: 0x0, symName: __ZN5Eigen9DenseBaseINS_5BlockIKNS1_IKNS_3RefINS_6MatrixIdLin1ELin1ELi0ELin1ELin1EEELi0ENS_11OuterStrideILin1EEEEELi1ELin1ELb0EEELi1ELin1ELb1EEEEC2Ev, symObjAddr: 0x21624, symBinAddr: 0x100024840, symSize: 0x14 }
  - { offsetInCU: 0x93E8A, offset: 0x93E8A, size: 0x8, addend: 0x0, symName: __ZNK5Eigen9EigenBaseINS_5BlockIKNS1_IKNS_3RefINS_6MatrixIdLin1ELin1ELi0ELin1ELin1EEELi0ENS_11OuterStrideILin1EEEEELi1ELin1ELb0EEELi1ELin1ELb1EEEE7derivedEv, symObjAddr: 0x21638, symBinAddr: 0x100024854, symSize: 0x14 }
  - { offsetInCU: 0x93EB0, offset: 0x93EB0, size: 0x8, addend: 0x0, symName: __ZNK5Eigen9EigenBaseINS_5BlockIKNS1_IKNS_3RefINS_6MatrixIdLin1ELin1ELi0ELin1ELin1EEELi0ENS_11OuterStrideILin1EEEEELi1ELin1ELb0EEELi1ELin1ELb1EEEE4sizeEv, symObjAddr: 0x2164C, symBinAddr: 0x100024868, symSize: 0x44 }
  - { offsetInCU: 0x93ED6, offset: 0x93ED6, size: 0x8, addend: 0x0, symName: __ZNK5Eigen9EigenBaseINS_5BlockIKNS_3RefINS_6MatrixIdLin1ELin1ELi0ELin1ELin1EEELi0ENS_11OuterStrideILin1EEEEELin1ELi1ELb1EEEE4sizeEv, symObjAddr: 0x21690, symBinAddr: 0x1000248AC, symSize: 0x44 }
  - { offsetInCU: 0x93EFC, offset: 0x93EFC, size: 0x8, addend: 0x0, symName: __ZN5Eigen8internal11dot_nocheckINS_5BlockIKNS2_IKNS_3RefINS_6MatrixIdLin1ELin1ELi0ELin1ELin1EEELi0ENS_11OuterStrideILin1EEEEELi1ELin1ELb0EEELi1ELin1ELb1EEENS2_IS9_Lin1ELi1ELb1EEELb1EE3runERKNS_10MatrixBaseISC_EERKNSF_ISD_EE, symObjAddr: 0x216D4, symBinAddr: 0x1000248F0, symSize: 0x78 }
  - { offsetInCU: 0x93F2D, offset: 0x93F2D, size: 0x8, addend: 0x0, symName: __ZNK5Eigen9EigenBaseINS_5BlockIKNS1_IKNS_3RefINS_6MatrixIdLin1ELin1ELi0ELin1ELin1EEELi0ENS_11OuterStrideILin1EEEEELi1ELin1ELb0EEELi1ELin1ELb1EEEE4rowsEv, symObjAddr: 0x2174C, symBinAddr: 0x100024968, symSize: 0x28 }
  - { offsetInCU: 0x93F53, offset: 0x93F53, size: 0x8, addend: 0x0, symName: __ZNK5Eigen9EigenBaseINS_5BlockIKNS1_IKNS_3RefINS_6MatrixIdLin1ELin1ELi0ELin1ELin1EEELi0ENS_11OuterStrideILin1EEEEELi1ELin1ELb0EEELi1ELin1ELb1EEEE4colsEv, symObjAddr: 0x21774, symBinAddr: 0x100024990, symSize: 0x28 }
  - { offsetInCU: 0x93F79, offset: 0x93F79, size: 0x8, addend: 0x0, symName: __ZNK5Eigen7MapBaseINS_5BlockIKNS1_IKNS_3RefINS_6MatrixIdLin1ELin1ELi0ELin1ELin1EEELi0ENS_11OuterStrideILin1EEEEELi1ELin1ELb0EEELi1ELin1ELb1EEELi0EE4rowsEv, symObjAddr: 0x2179C, symBinAddr: 0x1000249B8, symSize: 0x20 }
  - { offsetInCU: 0x93F9F, offset: 0x93F9F, size: 0x8, addend: 0x0, symName: __ZNK5Eigen7MapBaseINS_5BlockIKNS1_IKNS_3RefINS_6MatrixIdLin1ELin1ELi0ELin1ELin1EEELi0ENS_11OuterStrideILin1EEEEELi1ELin1ELb0EEELi1ELin1ELb1EEELi0EE4colsEv, symObjAddr: 0x217BC, symBinAddr: 0x1000249D8, symSize: 0x28 }
  - { offsetInCU: 0x93FC5, offset: 0x93FC5, size: 0x8, addend: 0x0, symName: __ZNK5Eigen9EigenBaseINS_5BlockIKNS_3RefINS_6MatrixIdLin1ELin1ELi0ELin1ELin1EEELi0ENS_11OuterStrideILin1EEEEELin1ELi1ELb1EEEE4rowsEv, symObjAddr: 0x217E4, symBinAddr: 0x100024A00, symSize: 0x28 }
  - { offsetInCU: 0x93FEB, offset: 0x93FEB, size: 0x8, addend: 0x0, symName: __ZNK5Eigen9EigenBaseINS_5BlockIKNS_3RefINS_6MatrixIdLin1ELin1ELi0ELin1ELin1EEELi0ENS_11OuterStrideILin1EEEEELin1ELi1ELb1EEEE4colsEv, symObjAddr: 0x2180C, symBinAddr: 0x100024A28, symSize: 0x28 }
  - { offsetInCU: 0x94011, offset: 0x94011, size: 0x8, addend: 0x0, symName: __ZNK5Eigen9DenseBaseINS_5BlockIKNS1_IKNS_3RefINS_6MatrixIdLin1ELin1ELi0ELin1ELin1EEELi0ENS_11OuterStrideILin1EEEEELi1ELin1ELb0EEELi1ELin1ELb1EEEE9transposeEv, symObjAddr: 0x21834, symBinAddr: 0x100024A50, symSize: 0x34 }
  - { offsetInCU: 0x94039, offset: 0x94039, size: 0x8, addend: 0x0, symName: __ZNK5Eigen10MatrixBaseINS_9TransposeIKNS_5BlockIKNS2_IKNS_3RefINS_6MatrixIdLin1ELin1ELi0ELin1ELin1EEELi0ENS_11OuterStrideILin1EEEEELi1ELin1ELb0EEELi1ELin1ELb1EEEEEE10binaryExprINS_8internal22scalar_conj_product_opIddEENS2_IS9_Lin1ELi1ELb1EEEEEKNS_13CwiseBinaryOpIT_KSE_KT0_EERKNS0_ISO_EERKSM_, symObjAddr: 0x21868, symBinAddr: 0x100024A84, symSize: 0x54 }
  - { offsetInCU: 0x9408D, offset: 0x9408D, size: 0x8, addend: 0x0, symName: __ZNK5Eigen9DenseBaseINS_13CwiseBinaryOpINS_8internal22scalar_conj_product_opIddEEKNS_9TransposeIKNS_5BlockIKNS6_IKNS_3RefINS_6MatrixIdLin1ELin1ELi0ELin1ELin1EEELi0ENS_11OuterStrideILin1EEEEELi1ELin1ELb0EEELi1ELin1ELb1EEEEEKNS6_ISD_Lin1ELi1ELb1EEEEEE3sumEv, symObjAddr: 0x218BC, symBinAddr: 0x100024AD8, symSize: 0x74 }
  - { offsetInCU: 0x940B6, offset: 0x940B6, size: 0x8, addend: 0x0, symName: __ZN5Eigen9TransposeIKNS_5BlockIKNS1_IKNS_3RefINS_6MatrixIdLin1ELin1ELi0ELin1ELin1EEELi0ENS_11OuterStrideILin1EEEEELi1ELin1ELb0EEELi1ELin1ELb1EEEEC1ERSC_, symObjAddr: 0x21930, symBinAddr: 0x100024B4C, symSize: 0x34 }
  - { offsetInCU: 0x940EE, offset: 0x940EE, size: 0x8, addend: 0x0, symName: __ZN5Eigen9TransposeIKNS_5BlockIKNS1_IKNS_3RefINS_6MatrixIdLin1ELin1ELi0ELin1ELin1EEELi0ENS_11OuterStrideILin1EEEEELi1ELin1ELb0EEELi1ELin1ELb1EEEEC2ERSC_, symObjAddr: 0x21964, symBinAddr: 0x100024B80, symSize: 0x40 }
  - { offsetInCU: 0x94126, offset: 0x94126, size: 0x8, addend: 0x0, symName: __ZN5Eigen13TransposeImplIKNS_5BlockIKNS1_IKNS_3RefINS_6MatrixIdLin1ELin1ELi0ELin1ELin1EEELi0ENS_11OuterStrideILin1EEEEELi1ELin1ELb0EEELi1ELin1ELb1EEENS_5DenseEEC2Ev, symObjAddr: 0x219A4, symBinAddr: 0x100024BC0, symSize: 0x2C }
  - { offsetInCU: 0x94150, offset: 0x94150, size: 0x8, addend: 0x0, symName: __ZN5Eigen10MatrixBaseINS_9TransposeIKNS_5BlockIKNS2_IKNS_3RefINS_6MatrixIdLin1ELin1ELi0ELin1ELin1EEELi0ENS_11OuterStrideILin1EEEEELi1ELin1ELb0EEELi1ELin1ELb1EEEEEEC2Ev, symObjAddr: 0x219D0, symBinAddr: 0x100024BEC, symSize: 0x2C }
  - { offsetInCU: 0x9417A, offset: 0x9417A, size: 0x8, addend: 0x0, symName: __ZN5Eigen9DenseBaseINS_9TransposeIKNS_5BlockIKNS2_IKNS_3RefINS_6MatrixIdLin1ELin1ELi0ELin1ELin1EEELi0ENS_11OuterStrideILin1EEEEELi1ELin1ELb0EEELi1ELin1ELb1EEEEEEC2Ev, symObjAddr: 0x219FC, symBinAddr: 0x100024C18, symSize: 0x14 }
  - { offsetInCU: 0x941A4, offset: 0x941A4, size: 0x8, addend: 0x0, symName: __ZNK5Eigen9EigenBaseINS_9TransposeIKNS_5BlockIKNS2_IKNS_3RefINS_6MatrixIdLin1ELin1ELi0ELin1ELin1EEELi0ENS_11OuterStrideILin1EEEEELi1ELin1ELb0EEELi1ELin1ELb1EEEEEE7derivedEv, symObjAddr: 0x21A10, symBinAddr: 0x100024C2C, symSize: 0x14 }
  - { offsetInCU: 0x941CA, offset: 0x941CA, size: 0x8, addend: 0x0, symName: __ZN5Eigen13CwiseBinaryOpINS_8internal22scalar_conj_product_opIddEEKNS_9TransposeIKNS_5BlockIKNS5_IKNS_3RefINS_6MatrixIdLin1ELin1ELi0ELin1ELin1EEELi0ENS_11OuterStrideILin1EEEEELi1ELin1ELb0EEELi1ELin1ELb1EEEEEKNS5_ISC_Lin1ELi1ELb1EEEEC1ERSI_RSK_RKS3_, symObjAddr: 0x21A24, symBinAddr: 0x100024C40, symSize: 0x44 }
  - { offsetInCU: 0x9421E, offset: 0x9421E, size: 0x8, addend: 0x0, symName: __ZN5Eigen13CwiseBinaryOpINS_8internal22scalar_conj_product_opIddEEKNS_9TransposeIKNS_5BlockIKNS5_IKNS_3RefINS_6MatrixIdLin1ELin1ELi0ELin1ELin1EEELi0ENS_11OuterStrideILin1EEEEELi1ELin1ELb0EEELi1ELin1ELb1EEEEEKNS5_ISC_Lin1ELi1ELb1EEEEC2ERSI_RSK_RKS3_, symObjAddr: 0x21A68, symBinAddr: 0x100024C84, symSize: 0x100 }
  - { offsetInCU: 0x94277, offset: 0x94277, size: 0x8, addend: 0x0, symName: __ZN5Eigen17CwiseBinaryOpImplINS_8internal22scalar_conj_product_opIddEEKNS_9TransposeIKNS_5BlockIKNS5_IKNS_3RefINS_6MatrixIdLin1ELin1ELi0ELin1ELin1EEELi0ENS_11OuterStrideILin1EEEEELi1ELin1ELb0EEELi1ELin1ELb1EEEEEKNS5_ISC_Lin1ELi1ELb1EEENS_5DenseEEC2Ev, symObjAddr: 0x21B68, symBinAddr: 0x100024D84, symSize: 0x2C }
  - { offsetInCU: 0x942A3, offset: 0x942A3, size: 0x8, addend: 0x0, symName: __ZNK5Eigen9TransposeIKNS_5BlockIKNS1_IKNS_3RefINS_6MatrixIdLin1ELin1ELi0ELin1ELin1EEELi0ENS_11OuterStrideILin1EEEEELi1ELin1ELb0EEELi1ELin1ELb1EEEE4rowsEv, symObjAddr: 0x21B94, symBinAddr: 0x100024DB0, symSize: 0x24 }
  - { offsetInCU: 0x942C9, offset: 0x942C9, size: 0x8, addend: 0x0, symName: __ZNK5Eigen9TransposeIKNS_5BlockIKNS1_IKNS_3RefINS_6MatrixIdLin1ELin1ELi0ELin1ELin1EEELi0ENS_11OuterStrideILin1EEEEELi1ELin1ELb0EEELi1ELin1ELb1EEEE4colsEv, symObjAddr: 0x21BB8, symBinAddr: 0x100024DD4, symSize: 0x24 }
  - { offsetInCU: 0x942EF, offset: 0x942EF, size: 0x8, addend: 0x0, symName: __ZN5Eigen10MatrixBaseINS_13CwiseBinaryOpINS_8internal22scalar_conj_product_opIddEEKNS_9TransposeIKNS_5BlockIKNS6_IKNS_3RefINS_6MatrixIdLin1ELin1ELi0ELin1ELin1EEELi0ENS_11OuterStrideILin1EEEEELi1ELin1ELb0EEELi1ELin1ELb1EEEEEKNS6_ISD_Lin1ELi1ELb1EEEEEEC2Ev, symObjAddr: 0x21BDC, symBinAddr: 0x100024DF8, symSize: 0x2C }
  - { offsetInCU: 0x94319, offset: 0x94319, size: 0x8, addend: 0x0, symName: __ZN5Eigen9DenseBaseINS_13CwiseBinaryOpINS_8internal22scalar_conj_product_opIddEEKNS_9TransposeIKNS_5BlockIKNS6_IKNS_3RefINS_6MatrixIdLin1ELin1ELi0ELin1ELin1EEELi0ENS_11OuterStrideILin1EEEEELi1ELin1ELb0EEELi1ELin1ELb1EEEEEKNS6_ISD_Lin1ELi1ELb1EEEEEEC2Ev, symObjAddr: 0x21C08, symBinAddr: 0x100024E24, symSize: 0x14 }
  - { offsetInCU: 0x94343, offset: 0x94343, size: 0x8, addend: 0x0, symName: __ZNK5Eigen9EigenBaseINS_13CwiseBinaryOpINS_8internal22scalar_conj_product_opIddEEKNS_9TransposeIKNS_5BlockIKNS6_IKNS_3RefINS_6MatrixIdLin1ELin1ELi0ELin1ELin1EEELi0ENS_11OuterStrideILin1EEEEELi1ELin1ELb0EEELi1ELin1ELb1EEEEEKNS6_ISD_Lin1ELi1ELb1EEEEEE4sizeEv, symObjAddr: 0x21C1C, symBinAddr: 0x100024E38, symSize: 0x44 }
  - { offsetInCU: 0x94369, offset: 0x94369, size: 0x8, addend: 0x0, symName: __ZNK5Eigen9EigenBaseINS_13CwiseBinaryOpINS_8internal22scalar_conj_product_opIddEEKNS_9TransposeIKNS_5BlockIKNS6_IKNS_3RefINS_6MatrixIdLin1ELin1ELi0ELin1ELin1EEELi0ENS_11OuterStrideILin1EEEEELi1ELin1ELb0EEELi1ELin1ELb1EEEEEKNS6_ISD_Lin1ELi1ELb1EEEEEE7derivedEv, symObjAddr: 0x21C60, symBinAddr: 0x100024E7C, symSize: 0x14 }
  - { offsetInCU: 0x9438F, offset: 0x9438F, size: 0x8, addend: 0x0, symName: __ZNK5Eigen9DenseBaseINS_13CwiseBinaryOpINS_8internal22scalar_conj_product_opIddEEKNS_9TransposeIKNS_5BlockIKNS6_IKNS_3RefINS_6MatrixIdLin1ELin1ELi0ELin1ELin1EEELi0ENS_11OuterStrideILin1EEEEELi1ELin1ELb0EEELi1ELin1ELb1EEEEEKNS6_ISD_Lin1ELi1ELb1EEEEEE5reduxINS2_13scalar_sum_opIddEEEEdRKT_, symObjAddr: 0x21C74, symBinAddr: 0x100024E90, symSize: 0x10C }
  - { offsetInCU: 0x943EB, offset: 0x943EB, size: 0x8, addend: 0x0, symName: __ZNK5Eigen9EigenBaseINS_13CwiseBinaryOpINS_8internal22scalar_conj_product_opIddEEKNS_9TransposeIKNS_5BlockIKNS6_IKNS_3RefINS_6MatrixIdLin1ELin1ELi0ELin1ELin1EEELi0ENS_11OuterStrideILin1EEEEELi1ELin1ELb0EEELi1ELin1ELb1EEEEEKNS6_ISD_Lin1ELi1ELb1EEEEEE4rowsEv, symObjAddr: 0x21D80, symBinAddr: 0x100024F9C, symSize: 0x38 }
  - { offsetInCU: 0x94411, offset: 0x94411, size: 0x8, addend: 0x0, symName: __ZNK5Eigen9EigenBaseINS_13CwiseBinaryOpINS_8internal22scalar_conj_product_opIddEEKNS_9TransposeIKNS_5BlockIKNS6_IKNS_3RefINS_6MatrixIdLin1ELin1ELi0ELin1ELin1EEELi0ENS_11OuterStrideILin1EEEEELi1ELin1ELb0EEELi1ELin1ELb1EEEEEKNS6_ISD_Lin1ELi1ELb1EEEEEE4colsEv, symObjAddr: 0x21DB8, symBinAddr: 0x100024FD4, symSize: 0x38 }
  - { offsetInCU: 0x94437, offset: 0x94437, size: 0x8, addend: 0x0, symName: __ZNK5Eigen13CwiseBinaryOpINS_8internal22scalar_conj_product_opIddEEKNS_9TransposeIKNS_5BlockIKNS5_IKNS_3RefINS_6MatrixIdLin1ELin1ELi0ELin1ELin1EEELi0ENS_11OuterStrideILin1EEEEELi1ELin1ELb0EEELi1ELin1ELb1EEEEEKNS5_ISC_Lin1ELi1ELb1EEEE4rowsEv, symObjAddr: 0x21DF0, symBinAddr: 0x10002500C, symSize: 0x28 }
  - { offsetInCU: 0x9445D, offset: 0x9445D, size: 0x8, addend: 0x0, symName: __ZNK5Eigen13CwiseBinaryOpINS_8internal22scalar_conj_product_opIddEEKNS_9TransposeIKNS_5BlockIKNS5_IKNS_3RefINS_6MatrixIdLin1ELin1ELi0ELin1ELin1EEELi0ENS_11OuterStrideILin1EEEEELi1ELin1ELb0EEELi1ELin1ELb1EEEEEKNS5_ISC_Lin1ELi1ELb1EEEE4colsEv, symObjAddr: 0x21E18, symBinAddr: 0x100025034, symSize: 0x24 }
  - { offsetInCU: 0x94541, offset: 0x94541, size: 0x8, addend: 0x0, symName: __ZN5Eigen8internal15redux_evaluatorINS_13CwiseBinaryOpINS0_22scalar_conj_product_opIddEEKNS_9TransposeIKNS_5BlockIKNS6_IKNS_3RefINS_6MatrixIdLin1ELin1ELi0ELin1ELin1EEELi0ENS_11OuterStrideILin1EEEEELi1ELin1ELb0EEELi1ELin1ELb1EEEEEKNS6_ISD_Lin1ELi1ELb1EEEEEEC1ERKSM_, symObjAddr: 0x21E3C, symBinAddr: 0x100025058, symSize: 0x34 }
  - { offsetInCU: 0x9457F, offset: 0x9457F, size: 0x8, addend: 0x0, symName: __ZN5Eigen8internal10redux_implINS0_13scalar_sum_opIddEENS0_15redux_evaluatorINS_13CwiseBinaryOpINS0_22scalar_conj_product_opIddEEKNS_9TransposeIKNS_5BlockIKNS9_IKNS_3RefINS_6MatrixIdLin1ELin1ELi0ELin1ELin1EEELi0ENS_11OuterStrideILin1EEEEELi1ELin1ELb0EEELi1ELin1ELb1EEEEEKNS9_ISG_Lin1ELi1ELb1EEEEEEELi0ELi0EE3runISP_EEdRKSQ_RKS3_RKT_, symObjAddr: 0x21E70, symBinAddr: 0x10002508C, symSize: 0x1E0 }
  - { offsetInCU: 0x9462A, offset: 0x9462A, size: 0x8, addend: 0x0, symName: __ZN5Eigen8internal15redux_evaluatorINS_13CwiseBinaryOpINS0_22scalar_conj_product_opIddEEKNS_9TransposeIKNS_5BlockIKNS6_IKNS_3RefINS_6MatrixIdLin1ELin1ELi0ELin1ELin1EEELi0ENS_11OuterStrideILin1EEEEELi1ELin1ELb0EEELi1ELin1ELb1EEEEEKNS6_ISD_Lin1ELi1ELb1EEEEEED1Ev, symObjAddr: 0x22050, symBinAddr: 0x10002526C, symSize: 0x2C }
  - { offsetInCU: 0x94657, offset: 0x94657, size: 0x8, addend: 0x0, symName: __ZN5Eigen8internal15redux_evaluatorINS_13CwiseBinaryOpINS0_22scalar_conj_product_opIddEEKNS_9TransposeIKNS_5BlockIKNS6_IKNS_3RefINS_6MatrixIdLin1ELin1ELi0ELin1ELin1EEELi0ENS_11OuterStrideILin1EEEEELi1ELin1ELb0EEELi1ELin1ELb1EEEEEKNS6_ISD_Lin1ELi1ELb1EEEEEEC2ERKSM_, symObjAddr: 0x2207C, symBinAddr: 0x100025298, symSize: 0x34 }
  - { offsetInCU: 0x94690, offset: 0x94690, size: 0x8, addend: 0x0, symName: __ZN5Eigen8internal9evaluatorINS_13CwiseBinaryOpINS0_22scalar_conj_product_opIddEEKNS_9TransposeIKNS_5BlockIKNS6_IKNS_3RefINS_6MatrixIdLin1ELin1ELi0ELin1ELin1EEELi0ENS_11OuterStrideILin1EEEEELi1ELin1ELb0EEELi1ELin1ELb1EEEEEKNS6_ISD_Lin1ELi1ELb1EEEEEEC2ERKSM_, symObjAddr: 0x220B0, symBinAddr: 0x1000252CC, symSize: 0x34 }
  - { offsetInCU: 0x946C9, offset: 0x946C9, size: 0x8, addend: 0x0, symName: __ZN5Eigen8internal16binary_evaluatorINS_13CwiseBinaryOpINS0_22scalar_conj_product_opIddEEKNS_9TransposeIKNS_5BlockIKNS6_IKNS_3RefINS_6MatrixIdLin1ELin1ELi0ELin1ELin1EEELi0ENS_11OuterStrideILin1EEEEELi1ELin1ELb0EEELi1ELin1ELb1EEEEEKNS6_ISD_Lin1ELi1ELb1EEEEENS0_10IndexBasedESN_ddEC2ERKSM_, symObjAddr: 0x220E4, symBinAddr: 0x100025300, symSize: 0x64 }
  - { offsetInCU: 0x94702, offset: 0x94702, size: 0x8, addend: 0x0, symName: __ZN5Eigen8internal14evaluator_baseINS_13CwiseBinaryOpINS0_22scalar_conj_product_opIddEEKNS_9TransposeIKNS_5BlockIKNS6_IKNS_3RefINS_6MatrixIdLin1ELin1ELi0ELin1ELin1EEELi0ENS_11OuterStrideILin1EEEEELi1ELin1ELb0EEELi1ELin1ELb1EEEEEKNS6_ISD_Lin1ELi1ELb1EEEEEEC2Ev, symObjAddr: 0x22148, symBinAddr: 0x100025364, symSize: 0x14 }
  - { offsetInCU: 0x9472C, offset: 0x9472C, size: 0x8, addend: 0x0, symName: __ZN5Eigen8internal16binary_evaluatorINS_13CwiseBinaryOpINS0_22scalar_conj_product_opIddEEKNS_9TransposeIKNS_5BlockIKNS6_IKNS_3RefINS_6MatrixIdLin1ELin1ELi0ELin1ELin1EEELi0ENS_11OuterStrideILin1EEEEELi1ELin1ELb0EEELi1ELin1ELb1EEEEEKNS6_ISD_Lin1ELi1ELb1EEEEENS0_10IndexBasedESN_ddE4DataC1ERKSM_, symObjAddr: 0x2215C, symBinAddr: 0x100025378, symSize: 0x34 }
  - { offsetInCU: 0x94765, offset: 0x94765, size: 0x8, addend: 0x0, symName: __ZN5Eigen8internal14evaluator_baseINS_13CwiseBinaryOpINS0_22scalar_conj_product_opIddEEKNS_9TransposeIKNS_5BlockIKNS6_IKNS_3RefINS_6MatrixIdLin1ELin1ELi0ELin1ELin1EEELi0ENS_11OuterStrideILin1EEEEELi1ELin1ELb0EEELi1ELin1ELb1EEEEEKNS6_ISD_Lin1ELi1ELb1EEEEEED2Ev, symObjAddr: 0x22190, symBinAddr: 0x1000253AC, symSize: 0x14 }
  - { offsetInCU: 0x9478F, offset: 0x9478F, size: 0x8, addend: 0x0, symName: __ZN5Eigen8internal16binary_evaluatorINS_13CwiseBinaryOpINS0_22scalar_conj_product_opIddEEKNS_9TransposeIKNS_5BlockIKNS6_IKNS_3RefINS_6MatrixIdLin1ELin1ELi0ELin1ELin1EEELi0ENS_11OuterStrideILin1EEEEELi1ELin1ELb0EEELi1ELin1ELb1EEEEEKNS6_ISD_Lin1ELi1ELb1EEEEENS0_10IndexBasedESN_ddE4DataC2ERKSM_, symObjAddr: 0x221A4, symBinAddr: 0x1000253C0, symSize: 0xA8 }
  - { offsetInCU: 0x947C8, offset: 0x947C8, size: 0x8, addend: 0x0, symName: __ZNK5Eigen13CwiseBinaryOpINS_8internal22scalar_conj_product_opIddEEKNS_9TransposeIKNS_5BlockIKNS5_IKNS_3RefINS_6MatrixIdLin1ELin1ELi0ELin1ELin1EEELi0ENS_11OuterStrideILin1EEEEELi1ELin1ELb0EEELi1ELin1ELb1EEEEEKNS5_ISC_Lin1ELi1ELb1EEEE7functorEv, symObjAddr: 0x2224C, symBinAddr: 0x100025468, symSize: 0x18 }
  - { offsetInCU: 0x947EE, offset: 0x947EE, size: 0x8, addend: 0x0, symName: __ZNK5Eigen13CwiseBinaryOpINS_8internal22scalar_conj_product_opIddEEKNS_9TransposeIKNS_5BlockIKNS5_IKNS_3RefINS_6MatrixIdLin1ELin1ELi0ELin1ELin1EEELi0ENS_11OuterStrideILin1EEEEELi1ELin1ELb0EEELi1ELin1ELb1EEEEEKNS5_ISC_Lin1ELi1ELb1EEEE3lhsEv, symObjAddr: 0x22264, symBinAddr: 0x100025480, symSize: 0x14 }
  - { offsetInCU: 0x94814, offset: 0x94814, size: 0x8, addend: 0x0, symName: __ZN5Eigen8internal9evaluatorIKNS_9TransposeIKNS_5BlockIKNS3_IKNS_3RefINS_6MatrixIdLin1ELin1ELi0ELin1ELin1EEELi0ENS_11OuterStrideILin1EEEEELi1ELin1ELb0EEELi1ELin1ELb1EEEEEEC1ERSG_, symObjAddr: 0x22278, symBinAddr: 0x100025494, symSize: 0x34 }
  - { offsetInCU: 0x9484C, offset: 0x9484C, size: 0x8, addend: 0x0, symName: __ZNK5Eigen13CwiseBinaryOpINS_8internal22scalar_conj_product_opIddEEKNS_9TransposeIKNS_5BlockIKNS5_IKNS_3RefINS_6MatrixIdLin1ELin1ELi0ELin1ELin1EEELi0ENS_11OuterStrideILin1EEEEELi1ELin1ELb0EEELi1ELin1ELb1EEEEEKNS5_ISC_Lin1ELi1ELb1EEEE3rhsEv, symObjAddr: 0x222AC, symBinAddr: 0x1000254C8, symSize: 0x18 }
  - { offsetInCU: 0x94872, offset: 0x94872, size: 0x8, addend: 0x0, symName: __ZN5Eigen8internal9evaluatorIKNS_9TransposeIKNS_5BlockIKNS3_IKNS_3RefINS_6MatrixIdLin1ELin1ELi0ELin1ELin1EEELi0ENS_11OuterStrideILin1EEEEELi1ELin1ELb0EEELi1ELin1ELb1EEEEEED1Ev, symObjAddr: 0x222C4, symBinAddr: 0x1000254E0, symSize: 0x2C }
  - { offsetInCU: 0x9489E, offset: 0x9489E, size: 0x8, addend: 0x0, symName: __ZN5Eigen8internal9evaluatorIKNS_9TransposeIKNS_5BlockIKNS3_IKNS_3RefINS_6MatrixIdLin1ELin1ELi0ELin1ELin1EEELi0ENS_11OuterStrideILin1EEEEELi1ELin1ELb0EEELi1ELin1ELb1EEEEEEC2ERSG_, symObjAddr: 0x222F0, symBinAddr: 0x10002550C, symSize: 0x34 }
  - { offsetInCU: 0x948D6, offset: 0x948D6, size: 0x8, addend: 0x0, symName: __ZN5Eigen8internal9evaluatorINS_9TransposeIKNS_5BlockIKNS3_IKNS_3RefINS_6MatrixIdLin1ELin1ELi0ELin1ELin1EEELi0ENS_11OuterStrideILin1EEEEELi1ELin1ELb0EEELi1ELin1ELb1EEEEEEC2ERKSF_, symObjAddr: 0x22324, symBinAddr: 0x100025540, symSize: 0x34 }
  - { offsetInCU: 0x9490E, offset: 0x9490E, size: 0x8, addend: 0x0, symName: __ZN5Eigen8internal15unary_evaluatorINS_9TransposeIKNS_5BlockIKNS3_IKNS_3RefINS_6MatrixIdLin1ELin1ELi0ELin1ELin1EEELi0ENS_11OuterStrideILin1EEEEELi1ELin1ELb0EEELi1ELin1ELb1EEEEENS0_10IndexBasedEdEC2ERKSF_, symObjAddr: 0x22358, symBinAddr: 0x100025574, symSize: 0x74 }
  - { offsetInCU: 0x94947, offset: 0x94947, size: 0x8, addend: 0x0, symName: __ZN5Eigen8internal14evaluator_baseINS_9TransposeIKNS_5BlockIKNS3_IKNS_3RefINS_6MatrixIdLin1ELin1ELi0ELin1ELin1EEELi0ENS_11OuterStrideILin1EEEEELi1ELin1ELb0EEELi1ELin1ELb1EEEEEEC2Ev, symObjAddr: 0x223CC, symBinAddr: 0x1000255E8, symSize: 0x14 }
  - { offsetInCU: 0x94971, offset: 0x94971, size: 0x8, addend: 0x0, symName: __ZNK5Eigen9TransposeIKNS_5BlockIKNS1_IKNS_3RefINS_6MatrixIdLin1ELin1ELi0ELin1ELin1EEELi0ENS_11OuterStrideILin1EEEEELi1ELin1ELb0EEELi1ELin1ELb1EEEE16nestedExpressionEv, symObjAddr: 0x223E0, symBinAddr: 0x1000255FC, symSize: 0x14 }
  - { offsetInCU: 0x94997, offset: 0x94997, size: 0x8, addend: 0x0, symName: __ZN5Eigen8internal9evaluatorIKNS_5BlockIKNS2_IKNS_3RefINS_6MatrixIdLin1ELin1ELi0ELin1ELin1EEELi0ENS_11OuterStrideILin1EEEEELi1ELin1ELb0EEELi1ELin1ELb1EEEEC1ERSD_, symObjAddr: 0x223F4, symBinAddr: 0x100025610, symSize: 0x34 }
  - { offsetInCU: 0x949CF, offset: 0x949CF, size: 0x8, addend: 0x0, symName: __ZN5Eigen8internal14evaluator_baseINS_9TransposeIKNS_5BlockIKNS3_IKNS_3RefINS_6MatrixIdLin1ELin1ELi0ELin1ELin1EEELi0ENS_11OuterStrideILin1EEEEELi1ELin1ELb0EEELi1ELin1ELb1EEEEEED2Ev, symObjAddr: 0x22428, symBinAddr: 0x100025644, symSize: 0x14 }
  - { offsetInCU: 0x949F9, offset: 0x949F9, size: 0x8, addend: 0x0, symName: __ZN5Eigen8internal9evaluatorIKNS_5BlockIKNS2_IKNS_3RefINS_6MatrixIdLin1ELin1ELi0ELin1ELin1EEELi0ENS_11OuterStrideILin1EEEEELi1ELin1ELb0EEELi1ELin1ELb1EEEEC2ERSD_, symObjAddr: 0x2243C, symBinAddr: 0x100025658, symSize: 0x34 }
  - { offsetInCU: 0x94A31, offset: 0x94A31, size: 0x8, addend: 0x0, symName: __ZN5Eigen8internal9evaluatorINS_5BlockIKNS2_IKNS_3RefINS_6MatrixIdLin1ELin1ELi0ELin1ELin1EEELi0ENS_11OuterStrideILin1EEEEELi1ELin1ELb0EEELi1ELin1ELb1EEEEC2ERKSC_, symObjAddr: 0x22470, symBinAddr: 0x10002568C, symSize: 0x34 }
  - { offsetInCU: 0x94A6A, offset: 0x94A6A, size: 0x8, addend: 0x0, symName: __ZN5Eigen8internal15block_evaluatorIKNS_5BlockIKNS_3RefINS_6MatrixIdLin1ELin1ELi0ELin1ELin1EEELi0ENS_11OuterStrideILin1EEEEELi1ELin1ELb0EEELi1ELin1ELb1ELb1EEC2ERKNS2_ISB_Li1ELin1ELb1EEE, symObjAddr: 0x224A4, symBinAddr: 0x1000256C0, symSize: 0xDC }
  - { offsetInCU: 0x94AA3, offset: 0x94AA3, size: 0x8, addend: 0x0, symName: __ZN5Eigen8internal17mapbase_evaluatorINS_5BlockIKNS2_IKNS_3RefINS_6MatrixIdLin1ELin1ELi0ELin1ELin1EEELi0ENS_11OuterStrideILin1EEEEELi1ELin1ELb0EEELi1ELin1ELb1EEENS4_IdLi1ELin1ELi1ELi1ELin1EEEEC2ERKSC_, symObjAddr: 0x22580, symBinAddr: 0x10002579C, symSize: 0xB0 }
  - { offsetInCU: 0x94ADC, offset: 0x94ADC, size: 0x8, addend: 0x0, symName: __ZNK5Eigen7MapBaseINS_5BlockIKNS1_IKNS_3RefINS_6MatrixIdLin1ELin1ELi0ELin1ELin1EEELi0ENS_11OuterStrideILin1EEEEELi1ELin1ELb0EEELi1ELin1ELb1EEELi0EE4dataEv, symObjAddr: 0x22630, symBinAddr: 0x10002584C, symSize: 0x18 }
  - { offsetInCU: 0x94B02, offset: 0x94B02, size: 0x8, addend: 0x0, symName: __ZN5Eigen8internal17mapbase_evaluatorINS_5BlockIKNS2_IKNS_3RefINS_6MatrixIdLin1ELin1ELi0ELin1ELin1EEELi0ENS_11OuterStrideILin1EEEEELi1ELin1ELb0EEELi1ELin1ELb1EEENS4_IdLi1ELin1ELi1ELi1ELin1EEEED2Ev, symObjAddr: 0x22648, symBinAddr: 0x100025864, symSize: 0x2C }
  - { offsetInCU: 0x94B2F, offset: 0x94B2F, size: 0x8, addend: 0x0, symName: __ZN5Eigen8internal14evaluator_baseINS_5BlockIKNS2_IKNS_3RefINS_6MatrixIdLin1ELin1ELi0ELin1ELin1EEELi0ENS_11OuterStrideILin1EEEEELi1ELin1ELb0EEELi1ELin1ELb1EEEEC2Ev, symObjAddr: 0x22674, symBinAddr: 0x100025890, symSize: 0x14 }
  - { offsetInCU: 0x94B59, offset: 0x94B59, size: 0x8, addend: 0x0, symName: __ZNK5Eigen8internal15BlockImpl_denseIKNS_5BlockIKNS_3RefINS_6MatrixIdLin1ELin1ELi0ELin1ELin1EEELi0ENS_11OuterStrideILin1EEEEELi1ELin1ELb0EEELi1ELin1ELb1ELb1EE11innerStrideEv, symObjAddr: 0x22688, symBinAddr: 0x1000258A4, symSize: 0x28 }
  - { offsetInCU: 0x94B7F, offset: 0x94B7F, size: 0x8, addend: 0x0, symName: __ZNK5Eigen8internal15BlockImpl_denseIKNS_5BlockIKNS_3RefINS_6MatrixIdLin1ELin1ELi0ELin1ELin1EEELi0ENS_11OuterStrideILin1EEEEELi1ELin1ELb0EEELi1ELin1ELb1ELb1EE11outerStrideEv, symObjAddr: 0x226B0, symBinAddr: 0x1000258CC, symSize: 0x28 }
  - { offsetInCU: 0x94BA5, offset: 0x94BA5, size: 0x8, addend: 0x0, symName: __ZN5Eigen8internal14evaluator_baseINS_5BlockIKNS2_IKNS_3RefINS_6MatrixIdLin1ELin1ELi0ELin1ELin1EEELi0ENS_11OuterStrideILin1EEEEELi1ELin1ELb0EEELi1ELin1ELb1EEEED2Ev, symObjAddr: 0x226D8, symBinAddr: 0x1000258F4, symSize: 0x14 }
  - { offsetInCU: 0x94BCF, offset: 0x94BCF, size: 0x8, addend: 0x0, symName: __ZN5Eigen8internal9evaluatorIKNS_9TransposeIKNS_5BlockIKNS3_IKNS_3RefINS_6MatrixIdLin1ELin1ELi0ELin1ELin1EEELi0ENS_11OuterStrideILin1EEEEELi1ELin1ELb0EEELi1ELin1ELb1EEEEEED2Ev, symObjAddr: 0x226EC, symBinAddr: 0x100025908, symSize: 0x2C }
  - { offsetInCU: 0x94BFB, offset: 0x94BFB, size: 0x8, addend: 0x0, symName: __ZN5Eigen8internal9evaluatorINS_9TransposeIKNS_5BlockIKNS3_IKNS_3RefINS_6MatrixIdLin1ELin1ELi0ELin1ELin1EEELi0ENS_11OuterStrideILin1EEEEELi1ELin1ELb0EEELi1ELin1ELb1EEEEEED2Ev, symObjAddr: 0x22718, symBinAddr: 0x100025934, symSize: 0x2C }
  - { offsetInCU: 0x94C27, offset: 0x94C27, size: 0x8, addend: 0x0, symName: __ZN5Eigen8internal15unary_evaluatorINS_9TransposeIKNS_5BlockIKNS3_IKNS_3RefINS_6MatrixIdLin1ELin1ELi0ELin1ELin1EEELi0ENS_11OuterStrideILin1EEEEELi1ELin1ELb0EEELi1ELin1ELb1EEEEENS0_10IndexBasedEdED2Ev, symObjAddr: 0x22744, symBinAddr: 0x100025960, symSize: 0x34 }
  - { offsetInCU: 0x94C53, offset: 0x94C53, size: 0x8, addend: 0x0, symName: __ZN5Eigen8internal9evaluatorIKNS_5BlockIKNS2_IKNS_3RefINS_6MatrixIdLin1ELin1ELi0ELin1ELin1EEELi0ENS_11OuterStrideILin1EEEEELi1ELin1ELb0EEELi1ELin1ELb1EEEED1Ev, symObjAddr: 0x22778, symBinAddr: 0x100025994, symSize: 0x2C }
  - { offsetInCU: 0x94C7F, offset: 0x94C7F, size: 0x8, addend: 0x0, symName: __ZN5Eigen8internal9evaluatorIKNS_5BlockIKNS2_IKNS_3RefINS_6MatrixIdLin1ELin1ELi0ELin1ELin1EEELi0ENS_11OuterStrideILin1EEEEELi1ELin1ELb0EEELi1ELin1ELb1EEEED2Ev, symObjAddr: 0x227A4, symBinAddr: 0x1000259C0, symSize: 0x2C }
  - { offsetInCU: 0x94CAB, offset: 0x94CAB, size: 0x8, addend: 0x0, symName: __ZN5Eigen8internal9evaluatorINS_5BlockIKNS2_IKNS_3RefINS_6MatrixIdLin1ELin1ELi0ELin1ELin1EEELi0ENS_11OuterStrideILin1EEEEELi1ELin1ELb0EEELi1ELin1ELb1EEEED2Ev, symObjAddr: 0x227D0, symBinAddr: 0x1000259EC, symSize: 0x2C }
  - { offsetInCU: 0x94CD8, offset: 0x94CD8, size: 0x8, addend: 0x0, symName: __ZN5Eigen8internal15block_evaluatorIKNS_5BlockIKNS_3RefINS_6MatrixIdLin1ELin1ELi0ELin1ELin1EEELi0ENS_11OuterStrideILin1EEEEELi1ELin1ELb0EEELi1ELin1ELb1ELb1EED2Ev, symObjAddr: 0x227FC, symBinAddr: 0x100025A18, symSize: 0x2C }
  - { offsetInCU: 0x94D05, offset: 0x94D05, size: 0x8, addend: 0x0, symName: __ZNK5Eigen8internal15redux_evaluatorINS_13CwiseBinaryOpINS0_22scalar_conj_product_opIddEEKNS_9TransposeIKNS_5BlockIKNS6_IKNS_3RefINS_6MatrixIdLin1ELin1ELi0ELin1ELin1EEELi0ENS_11OuterStrideILin1EEEEELi1ELin1ELb0EEELi1ELin1ELb1EEEEEKNS6_ISD_Lin1ELi1ELb1EEEEEE17coeffByOuterInnerEll, symObjAddr: 0x22828, symBinAddr: 0x100025A44, symSize: 0x34 }
  - { offsetInCU: 0x94D49, offset: 0x94D49, size: 0x8, addend: 0x0, symName: __ZNK5Eigen9DenseBaseINS_13CwiseBinaryOpINS_8internal22scalar_conj_product_opIddEEKNS_9TransposeIKNS_5BlockIKNS6_IKNS_3RefINS_6MatrixIdLin1ELin1ELi0ELin1ELin1EEELi0ENS_11OuterStrideILin1EEEEELi1ELin1ELb0EEELi1ELin1ELb1EEEEEKNS6_ISD_Lin1ELi1ELb1EEEEEE9innerSizeEv, symObjAddr: 0x2285C, symBinAddr: 0x100025A78, symSize: 0x24 }
  - { offsetInCU: 0x94D6F, offset: 0x94D6F, size: 0x8, addend: 0x0, symName: __ZNK5Eigen9DenseBaseINS_13CwiseBinaryOpINS_8internal22scalar_conj_product_opIddEEKNS_9TransposeIKNS_5BlockIKNS6_IKNS_3RefINS_6MatrixIdLin1ELin1ELi0ELin1ELin1EEELi0ENS_11OuterStrideILin1EEEEELi1ELin1ELb0EEELi1ELin1ELb1EEEEEKNS6_ISD_Lin1ELi1ELb1EEEEEE9outerSizeEv, symObjAddr: 0x22880, symBinAddr: 0x100025A9C, symSize: 0x14 }
  - { offsetInCU: 0x94D95, offset: 0x94D95, size: 0x8, addend: 0x0, symName: __ZNK5Eigen8internal16binary_evaluatorINS_13CwiseBinaryOpINS0_22scalar_conj_product_opIddEEKNS_9TransposeIKNS_5BlockIKNS6_IKNS_3RefINS_6MatrixIdLin1ELin1ELi0ELin1ELin1EEELi0ENS_11OuterStrideILin1EEEEELi1ELin1ELb0EEELi1ELin1ELb1EEEEEKNS6_ISD_Lin1ELi1ELb1EEEEENS0_10IndexBasedESN_ddE5coeffEll, symObjAddr: 0x22894, symBinAddr: 0x100025AB0, symSize: 0x7C }
  - { offsetInCU: 0x94DD9, offset: 0x94DD9, size: 0x8, addend: 0x0, symName: __ZNK5Eigen8internal16binary_evaluatorINS_13CwiseBinaryOpINS0_22scalar_conj_product_opIddEEKNS_9TransposeIKNS_5BlockIKNS6_IKNS_3RefINS_6MatrixIdLin1ELin1ELi0ELin1ELin1EEELi0ENS_11OuterStrideILin1EEEEELi1ELin1ELb0EEELi1ELin1ELb1EEEEEKNS6_ISD_Lin1ELi1ELb1EEEEENS0_10IndexBasedESN_ddE4Data4funcEv, symObjAddr: 0x22910, symBinAddr: 0x100025B2C, symSize: 0x14 }
  - { offsetInCU: 0x94DFF, offset: 0x94DFF, size: 0x8, addend: 0x0, symName: __ZNK5Eigen8internal15unary_evaluatorINS_9TransposeIKNS_5BlockIKNS3_IKNS_3RefINS_6MatrixIdLin1ELin1ELi0ELin1ELin1EEELi0ENS_11OuterStrideILin1EEEEELi1ELin1ELb0EEELi1ELin1ELb1EEEEENS0_10IndexBasedEdE5coeffEll, symObjAddr: 0x22924, symBinAddr: 0x100025B40, symSize: 0x34 }
  - { offsetInCU: 0x94E43, offset: 0x94E43, size: 0x8, addend: 0x0, symName: __ZNK5Eigen8internal17mapbase_evaluatorINS_5BlockIKNS2_IKNS_3RefINS_6MatrixIdLin1ELin1ELi0ELin1ELin1EEELi0ENS_11OuterStrideILin1EEEEELi1ELin1ELb0EEELi1ELin1ELb1EEENS4_IdLi1ELin1ELi1ELi1ELin1EEEE5coeffEll, symObjAddr: 0x22958, symBinAddr: 0x100025B74, symSize: 0x78 }
  - { offsetInCU: 0x94E87, offset: 0x94E87, size: 0x8, addend: 0x0, symName: __ZNK5Eigen8internal17mapbase_evaluatorINS_5BlockIKNS2_IKNS_3RefINS_6MatrixIdLin1ELin1ELi0ELin1ELin1EEELi0ENS_11OuterStrideILin1EEEEELi1ELin1ELb0EEELi1ELin1ELb1EEENS4_IdLi1ELin1ELi1ELi1ELin1EEEE9colStrideEv, symObjAddr: 0x229D0, symBinAddr: 0x100025BEC, symSize: 0x28 }
  - { offsetInCU: 0x94EAD, offset: 0x94EAD, size: 0x8, addend: 0x0, symName: __ZNK5Eigen8internal17mapbase_evaluatorINS_5BlockIKNS2_IKNS_3RefINS_6MatrixIdLin1ELin1ELi0ELin1ELin1EEELi0ENS_11OuterStrideILin1EEEEELi1ELin1ELb0EEELi1ELin1ELb1EEENS4_IdLi1ELin1ELi1ELi1ELin1EEEE9rowStrideEv, symObjAddr: 0x229F8, symBinAddr: 0x100025C14, symSize: 0x20 }
  - { offsetInCU: 0x94ED3, offset: 0x94ED3, size: 0x8, addend: 0x0, symName: __ZN5Eigen8internal15redux_evaluatorINS_13CwiseBinaryOpINS0_22scalar_conj_product_opIddEEKNS_9TransposeIKNS_5BlockIKNS6_IKNS_3RefINS_6MatrixIdLin1ELin1ELi0ELin1ELin1EEELi0ENS_11OuterStrideILin1EEEEELi1ELin1ELb0EEELi1ELin1ELb1EEEEEKNS6_ISD_Lin1ELi1ELb1EEEEEED2Ev, symObjAddr: 0x22A18, symBinAddr: 0x100025C34, symSize: 0x2C }
  - { offsetInCU: 0x94F00, offset: 0x94F00, size: 0x8, addend: 0x0, symName: __ZN5Eigen8internal9evaluatorINS_13CwiseBinaryOpINS0_22scalar_conj_product_opIddEEKNS_9TransposeIKNS_5BlockIKNS6_IKNS_3RefINS_6MatrixIdLin1ELin1ELi0ELin1ELin1EEELi0ENS_11OuterStrideILin1EEEEELi1ELin1ELb0EEELi1ELin1ELb1EEEEEKNS6_ISD_Lin1ELi1ELb1EEEEEED2Ev, symObjAddr: 0x22A44, symBinAddr: 0x100025C60, symSize: 0x2C }
  - { offsetInCU: 0x94F2D, offset: 0x94F2D, size: 0x8, addend: 0x0, symName: __ZN5Eigen8internal16binary_evaluatorINS_13CwiseBinaryOpINS0_22scalar_conj_product_opIddEEKNS_9TransposeIKNS_5BlockIKNS6_IKNS_3RefINS_6MatrixIdLin1ELin1ELi0ELin1ELin1EEELi0ENS_11OuterStrideILin1EEEEELi1ELin1ELb0EEELi1ELin1ELb1EEEEEKNS6_ISD_Lin1ELi1ELb1EEEEENS0_10IndexBasedESN_ddED2Ev, symObjAddr: 0x22A70, symBinAddr: 0x100025C8C, symSize: 0x34 }
  - { offsetInCU: 0x94F59, offset: 0x94F59, size: 0x8, addend: 0x0, symName: __ZN5Eigen8internal16binary_evaluatorINS_13CwiseBinaryOpINS0_22scalar_conj_product_opIddEEKNS_9TransposeIKNS_5BlockIKNS6_IKNS_3RefINS_6MatrixIdLin1ELin1ELi0ELin1ELin1EEELi0ENS_11OuterStrideILin1EEEEELi1ELin1ELb0EEELi1ELin1ELb1EEEEEKNS6_ISD_Lin1ELi1ELb1EEEEENS0_10IndexBasedESN_ddE4DataD1Ev, symObjAddr: 0x22AA4, symBinAddr: 0x100025CC0, symSize: 0x2C }
  - { offsetInCU: 0x94F86, offset: 0x94F86, size: 0x8, addend: 0x0, symName: __ZN5Eigen8internal16binary_evaluatorINS_13CwiseBinaryOpINS0_22scalar_conj_product_opIddEEKNS_9TransposeIKNS_5BlockIKNS6_IKNS_3RefINS_6MatrixIdLin1ELin1ELi0ELin1ELin1EEELi0ENS_11OuterStrideILin1EEEEELi1ELin1ELb0EEELi1ELin1ELb1EEEEEKNS6_ISD_Lin1ELi1ELb1EEEEENS0_10IndexBasedESN_ddE4DataD2Ev, symObjAddr: 0x22AD0, symBinAddr: 0x100025CEC, symSize: 0x3C }
  - { offsetInCU: 0x94FB3, offset: 0x94FB3, size: 0x8, addend: 0x0, symName: __ZNK5Eigen15DenseCoeffsBaseINS_5BlockINS_3RefINS_6MatrixIdLin1ELin1ELi0ELin1ELin1EEELi0ENS_11OuterStrideILin1EEEEELi1ELin1ELb0EEELi3EE9colStrideEv, symObjAddr: 0x22B0C, symBinAddr: 0x100025D28, symSize: 0x24 }
  - { offsetInCU: 0x94FD9, offset: 0x94FD9, size: 0x8, addend: 0x0, symName: __ZNK5Eigen15DenseCoeffsBaseINS_5BlockINS_3RefINS_6MatrixIdLin1ELin1ELi0ELin1ELin1EEELi0ENS_11OuterStrideILin1EEEEELi1ELin1ELb0EEELi3EE9rowStrideEv, symObjAddr: 0x22B30, symBinAddr: 0x100025D4C, symSize: 0x24 }
  - { offsetInCU: 0x94FFF, offset: 0x94FFF, size: 0x8, addend: 0x0, symName: __ZNK5Eigen15DenseCoeffsBaseINS_5BlockINS_3RefINS_6MatrixIdLin1ELin1ELi0ELin1ELin1EEELi0ENS_11OuterStrideILin1EEEEELi1ELin1ELb0EEELi3EE11innerStrideEv, symObjAddr: 0x22B54, symBinAddr: 0x100025D70, symSize: 0x28 }
  - { offsetInCU: 0x95025, offset: 0x95025, size: 0x8, addend: 0x0, symName: __ZNK5Eigen15DenseCoeffsBaseINS_5BlockINS_3RefINS_6MatrixIdLin1ELin1ELi0ELin1ELin1EEELi0ENS_11OuterStrideILin1EEEEELi1ELin1ELb0EEELi3EE11outerStrideEv, symObjAddr: 0x22B7C, symBinAddr: 0x100025D98, symSize: 0x28 }
  - { offsetInCU: 0x9504B, offset: 0x9504B, size: 0x8, addend: 0x0, symName: __ZN5Eigen9TransposeINS_5BlockINS_3RefINS_6MatrixIdLin1ELin1ELi0ELin1ELin1EEELi0ENS_11OuterStrideILin1EEEEELi1ELin1ELb0EEEEC1ERS8_, symObjAddr: 0x22BA4, symBinAddr: 0x100025DC0, symSize: 0x34 }
  - { offsetInCU: 0x950AF, offset: 0x950AF, size: 0x8, addend: 0x0, symName: __ZNK5Eigen9DenseBaseINS_3RefINS_6MatrixIdLin1ELin1ELi0ELin1ELin1EEELi0ENS_11OuterStrideILin1EEEEEE9transposeEv, symObjAddr: 0x230A4, symBinAddr: 0x1000262C0, symSize: 0x34 }
  - { offsetInCU: 0x950D7, offset: 0x950D7, size: 0x8, addend: 0x0, symName: __ZN5Eigen9TransposeINS_5BlockINS_3RefINS_6MatrixIdLin1ELin1ELi0ELin1ELin1EEELi0ENS_11OuterStrideILin1EEEEELi1ELin1ELb0EEEEC2ERS8_, symObjAddr: 0x230D8, symBinAddr: 0x1000262F4, symSize: 0x40 }
  - { offsetInCU: 0x9510F, offset: 0x9510F, size: 0x8, addend: 0x0, symName: __ZN5Eigen13TransposeImplINS_5BlockINS_3RefINS_6MatrixIdLin1ELin1ELi0ELin1ELin1EEELi0ENS_11OuterStrideILin1EEEEELi1ELin1ELb0EEENS_5DenseEEC2Ev, symObjAddr: 0x23118, symBinAddr: 0x100026334, symSize: 0x2C }
  - { offsetInCU: 0x95139, offset: 0x95139, size: 0x8, addend: 0x0, symName: __ZN5Eigen10MatrixBaseINS_9TransposeINS_5BlockINS_3RefINS_6MatrixIdLin1ELin1ELi0ELin1ELin1EEELi0ENS_11OuterStrideILin1EEEEELi1ELin1ELb0EEEEEEC2Ev, symObjAddr: 0x23144, symBinAddr: 0x100026360, symSize: 0x2C }
  - { offsetInCU: 0x95163, offset: 0x95163, size: 0x8, addend: 0x0, symName: __ZN5Eigen9DenseBaseINS_9TransposeINS_5BlockINS_3RefINS_6MatrixIdLin1ELin1ELi0ELin1ELin1EEELi0ENS_11OuterStrideILin1EEEEELi1ELin1ELb0EEEEEEC2Ev, symObjAddr: 0x23170, symBinAddr: 0x10002638C, symSize: 0x14 }
  - { offsetInCU: 0x9518D, offset: 0x9518D, size: 0x8, addend: 0x0, symName: __ZN5Eigen8internal11blas_traitsINS_9TransposeIKNS_3RefINS_6MatrixIdLin1ELin1ELi0ELin1ELin1EEELi0ENS_11OuterStrideILin1EEEEEEEE7extractERKSA_, symObjAddr: 0x23184, symBinAddr: 0x1000263A0, symSize: 0x38 }
  - { offsetInCU: 0x951B1, offset: 0x951B1, size: 0x8, addend: 0x0, symName: __ZN5Eigen8internal11blas_traitsINS_9TransposeIKNS_5BlockIKNS_3RefINS_6MatrixIdLin1ELin1ELi0ELin1ELin1EEELi0ENS_11OuterStrideILin1EEEEELi1ELin1ELb0EEEEEE7extractERKSD_, symObjAddr: 0x231BC, symBinAddr: 0x1000263D8, symSize: 0x38 }
  - { offsetInCU: 0x951D5, offset: 0x951D5, size: 0x8, addend: 0x0, symName: __ZNK5Eigen9EigenBaseINS_9TransposeIKNS_5BlockIKNS_3RefINS_6MatrixIdLin1ELin1ELi0ELin1ELin1EEELi0ENS_11OuterStrideILin1EEEEELi1ELin1ELb0EEEEEE4sizeEv, symObjAddr: 0x231F4, symBinAddr: 0x100026410, symSize: 0x44 }
  - { offsetInCU: 0x95200, offset: 0x95200, size: 0x8, addend: 0x0, symName: __ZN5Eigen8internal21gemv_static_vector_ifIdLin1ELin1ELb1EE4dataEv, symObjAddr: 0x23238, symBinAddr: 0x100026454, symSize: 0x14 }
  - { offsetInCU: 0x95226, offset: 0x95226, size: 0x8, addend: 0x0, symName: __ZN5Eigen6StrideILi0ELi0EEC1Ev, symObjAddr: 0x2324C, symBinAddr: 0x100026468, symSize: 0x2C }
  - { offsetInCU: 0x95250, offset: 0x95250, size: 0x8, addend: 0x0, symName: __ZN5Eigen3MapINS_6MatrixIdLin1ELi1ELi0ELin1ELi1EEELi0ENS_6StrideILi0ELi0EEEEC1EPdlRKS4_, symObjAddr: 0x23278, symBinAddr: 0x100026494, symSize: 0x44 }
  - { offsetInCU: 0x952A4, offset: 0x952A4, size: 0x8, addend: 0x0, symName: __ZN5Eigen3MapINS_6MatrixIdLin1ELi1ELi0ELin1ELi1EEELi0ENS_6StrideILi0ELi0EEEEaSINS_9TransposeIKNS_5BlockIKNS_3RefINS1_IdLin1ELin1ELi0ELin1ELin1EEELi0ENS_11OuterStrideILin1EEEEELi1ELin1ELb0EEEEEEERS5_RKNS_9DenseBaseIT_EE, symObjAddr: 0x232BC, symBinAddr: 0x1000264D8, symSize: 0x40 }
  - { offsetInCU: 0x95322, offset: 0x95322, size: 0x8, addend: 0x0, symName: __ZNK5Eigen9TransposeIKNS_3RefINS_6MatrixIdLin1ELin1ELi0ELin1ELin1EEELi0ENS_11OuterStrideILin1EEEEEE4rowsEv, symObjAddr: 0x24AA0, symBinAddr: 0x100027CBC, symSize: 0x28 }
  - { offsetInCU: 0x95348, offset: 0x95348, size: 0x8, addend: 0x0, symName: __ZNK5Eigen9TransposeIKNS_3RefINS_6MatrixIdLin1ELin1ELi0ELin1ELin1EEELi0ENS_11OuterStrideILin1EEEEEE4colsEv, symObjAddr: 0x24AC8, symBinAddr: 0x100027CE4, symSize: 0x28 }
  - { offsetInCU: 0x9536E, offset: 0x9536E, size: 0x8, addend: 0x0, symName: __ZNK5Eigen13TransposeImplIKNS_3RefINS_6MatrixIdLin1ELin1ELi0ELin1ELin1EEELi0ENS_11OuterStrideILin1EEEEENS_5DenseEE4dataEv, symObjAddr: 0x24AF0, symBinAddr: 0x100027D0C, symSize: 0x2C }
  - { offsetInCU: 0x95394, offset: 0x95394, size: 0x8, addend: 0x0, symName: __ZNK5Eigen13TransposeImplIKNS_3RefINS_6MatrixIdLin1ELin1ELi0ELin1ELin1EEELi0ENS_11OuterStrideILin1EEEEENS_5DenseEE11outerStrideEv, symObjAddr: 0x24B1C, symBinAddr: 0x100027D38, symSize: 0x2C }
  - { offsetInCU: 0x953BA, offset: 0x953BA, size: 0x8, addend: 0x0, symName: __ZN5Eigen13TransposeImplINS_5BlockINS_3RefINS_6MatrixIdLin1ELin1ELi0ELin1ELin1EEELi0ENS_11OuterStrideILin1EEEEELi1ELin1ELb0EEENS_5DenseEE4dataEv, symObjAddr: 0x24B48, symBinAddr: 0x100027D64, symSize: 0x2C }
  - { offsetInCU: 0x953E0, offset: 0x953E0, size: 0x8, addend: 0x0, symName: __ZN5Eigen9DenseBaseINS_9TransposeINS_5BlockINS_3RefINS_6MatrixIdLin1ELin1ELi0ELin1ELin1EEELi0ENS_11OuterStrideILin1EEEEELi1ELin1ELb0EEEEEE3colEl, symObjAddr: 0x24B74, symBinAddr: 0x100027D90, symSize: 0x3C }
  - { offsetInCU: 0x95415, offset: 0x95415, size: 0x8, addend: 0x0, symName: __ZNK5Eigen8internal15BlockImpl_denseINS_9TransposeINS_5BlockINS_3RefINS_6MatrixIdLin1ELin1ELi0ELin1ELin1EEELi0ENS_11OuterStrideILin1EEEEELi1ELin1ELb0EEEEELin1ELi1ELb1ELb1EE11innerStrideEv, symObjAddr: 0x24BB0, symBinAddr: 0x100027DCC, symSize: 0x38 }
  - { offsetInCU: 0x9543B, offset: 0x9543B, size: 0x8, addend: 0x0, symName: __ZNK5Eigen9TransposeIKNS_3RefINS_6MatrixIdLin1ELin1ELi0ELin1ELin1EEELi0ENS_11OuterStrideILin1EEEEEE16nestedExpressionEv, symObjAddr: 0x24BE8, symBinAddr: 0x100027E04, symSize: 0x18 }
  - { offsetInCU: 0x95461, offset: 0x95461, size: 0x8, addend: 0x0, symName: __ZN5Eigen9TransposeIKNS_3RefINS_6MatrixIdLin1ELin1ELi0ELin1ELin1EEELi0ENS_11OuterStrideILin1EEEEEEC1ERS7_, symObjAddr: 0x24C00, symBinAddr: 0x100027E1C, symSize: 0x34 }
  - { offsetInCU: 0x95499, offset: 0x95499, size: 0x8, addend: 0x0, symName: __ZN5Eigen9TransposeIKNS_3RefINS_6MatrixIdLin1ELin1ELi0ELin1ELin1EEELi0ENS_11OuterStrideILin1EEEEEEC2ERS7_, symObjAddr: 0x24C34, symBinAddr: 0x100027E50, symSize: 0x38 }
  - { offsetInCU: 0x954D1, offset: 0x954D1, size: 0x8, addend: 0x0, symName: __ZN5Eigen13TransposeImplIKNS_3RefINS_6MatrixIdLin1ELin1ELi0ELin1ELin1EEELi0ENS_11OuterStrideILin1EEEEENS_5DenseEEC2Ev, symObjAddr: 0x24C6C, symBinAddr: 0x100027E88, symSize: 0x2C }
  - { offsetInCU: 0x954FB, offset: 0x954FB, size: 0x8, addend: 0x0, symName: __ZN5Eigen10MatrixBaseINS_9TransposeIKNS_3RefINS_6MatrixIdLin1ELin1ELi0ELin1ELin1EEELi0ENS_11OuterStrideILin1EEEEEEEEC2Ev, symObjAddr: 0x24C98, symBinAddr: 0x100027EB4, symSize: 0x2C }
  - { offsetInCU: 0x95525, offset: 0x95525, size: 0x8, addend: 0x0, symName: __ZN5Eigen9DenseBaseINS_9TransposeIKNS_3RefINS_6MatrixIdLin1ELin1ELi0ELin1ELin1EEELi0ENS_11OuterStrideILin1EEEEEEEEC2Ev, symObjAddr: 0x24CC4, symBinAddr: 0x100027EE0, symSize: 0x14 }
  - { offsetInCU: 0x9554F, offset: 0x9554F, size: 0x8, addend: 0x0, symName: __ZN5Eigen8internal11blas_traitsINS_5BlockIKNS_3RefINS_6MatrixIdLin1ELin1ELi0ELin1ELin1EEELi0ENS_11OuterStrideILin1EEEEELi1ELin1ELb0EEEE7extractERKSA_, symObjAddr: 0x24CD8, symBinAddr: 0x100027EF4, symSize: 0x14 }
  - { offsetInCU: 0x95573, offset: 0x95573, size: 0x8, addend: 0x0, symName: __ZN5Eigen8internal11blas_traitsINS_9TransposeIKNS_3RefINS_6MatrixIdLin1ELin1ELi0ELin1ELin1EEELi0ENS_11OuterStrideILin1EEEEEEEE19extractScalarFactorERKSA_, symObjAddr: 0x24CEC, symBinAddr: 0x100027F08, symSize: 0x28 }
  - { offsetInCU: 0x95597, offset: 0x95597, size: 0x8, addend: 0x0, symName: __ZN5Eigen8internal11blas_traitsINS_9TransposeIKNS_5BlockIKNS_3RefINS_6MatrixIdLin1ELin1ELi0ELin1ELin1EEELi0ENS_11OuterStrideILin1EEEEELi1ELin1ELb0EEEEEE19extractScalarFactorERKSD_, symObjAddr: 0x24D14, symBinAddr: 0x100027F30, symSize: 0x28 }
  - { offsetInCU: 0x955BB, offset: 0x955BB, size: 0x8, addend: 0x0, symName: __ZN5Eigen8internal11blas_traitsINS_5BlockIKNS_3RefINS_6MatrixIdLin1ELin1ELi0ELin1ELin1EEELi0ENS_11OuterStrideILin1EEEEELi1ELin1ELb0EEEE19extractScalarFactorERKSA_, symObjAddr: 0x24D3C, symBinAddr: 0x100027F58, symSize: 0x14 }
  - { offsetInCU: 0x955DB, offset: 0x955DB, size: 0x8, addend: 0x0, symName: __ZNK5Eigen9EigenBaseINS_9TransposeIKNS_5BlockIKNS_3RefINS_6MatrixIdLin1ELin1ELi0ELin1ELin1EEELi0ENS_11OuterStrideILin1EEEEELi1ELin1ELb0EEEEEE4rowsEv, symObjAddr: 0x24D50, symBinAddr: 0x100027F6C, symSize: 0x28 }
  - { offsetInCU: 0x95601, offset: 0x95601, size: 0x8, addend: 0x0, symName: __ZNK5Eigen9EigenBaseINS_9TransposeIKNS_5BlockIKNS_3RefINS_6MatrixIdLin1ELin1ELi0ELin1ELin1EEELi0ENS_11OuterStrideILin1EEEEELi1ELin1ELb0EEEEEE4colsEv, symObjAddr: 0x24D78, symBinAddr: 0x100027F94, symSize: 0x28 }
  - { offsetInCU: 0x95627, offset: 0x95627, size: 0x8, addend: 0x0, symName: __ZN5Eigen6StrideILi0ELi0EEC2Ev, symObjAddr: 0x24DA0, symBinAddr: 0x100027FBC, symSize: 0x44 }
  - { offsetInCU: 0x95651, offset: 0x95651, size: 0x8, addend: 0x0, symName: __ZN5Eigen3MapINS_6MatrixIdLin1ELi1ELi0ELin1ELi1EEELi0ENS_6StrideILi0ELi0EEEEC2EPdlRKS4_, symObjAddr: 0x24DE4, symBinAddr: 0x100028000, symSize: 0x60 }
  - { offsetInCU: 0x956A5, offset: 0x956A5, size: 0x8, addend: 0x0, symName: __ZN5Eigen3MapINS_6MatrixIdLin1ELi1ELi0ELin1ELi1EEELi0ENS_6StrideILi0ELi0EEEE20cast_to_pointer_typeEPd, symObjAddr: 0x24E44, symBinAddr: 0x100028060, symSize: 0x18 }
  - { offsetInCU: 0x956D9, offset: 0x956D9, size: 0x8, addend: 0x0, symName: __ZN5Eigen7MapBaseINS_3MapINS_6MatrixIdLin1ELi1ELi0ELin1ELi1EEELi0ENS_6StrideILi0ELi0EEEEELi1EEC2EPdl, symObjAddr: 0x24E5C, symBinAddr: 0x100028078, symSize: 0x3C }
  - { offsetInCU: 0x95721, offset: 0x95721, size: 0x8, addend: 0x0, symName: __ZN5Eigen6StrideILi0ELi0EEC1ERKS1_, symObjAddr: 0x24E98, symBinAddr: 0x1000280B4, symSize: 0x34 }
  - { offsetInCU: 0x95759, offset: 0x95759, size: 0x8, addend: 0x0, symName: __ZN5Eigen15PlainObjectBaseINS_6MatrixIdLin1ELi1ELi0ELin1ELi1EEEE22_check_template_paramsEv, symObjAddr: 0x24ECC, symBinAddr: 0x1000280E8, symSize: 0x4 }
  - { offsetInCU: 0x9576D, offset: 0x9576D, size: 0x8, addend: 0x0, symName: __ZN5Eigen7MapBaseINS_3MapINS_6MatrixIdLin1ELi1ELi0ELin1ELi1EEELi0ENS_6StrideILi0ELi0EEEEELi0EEC2EPdl, symObjAddr: 0x24ED0, symBinAddr: 0x1000280EC, symSize: 0x120 }
  - { offsetInCU: 0x957B3, offset: 0x957B3, size: 0x8, addend: 0x0, symName: __ZN5Eigen10MatrixBaseINS_3MapINS_6MatrixIdLin1ELi1ELi0ELin1ELi1EEELi0ENS_6StrideILi0ELi0EEEEEEC2Ev, symObjAddr: 0x24FF0, symBinAddr: 0x10002820C, symSize: 0x2C }
  - { offsetInCU: 0x957DD, offset: 0x957DD, size: 0x8, addend: 0x0, symName: __ZNK5Eigen7MapBaseINS_3MapINS_6MatrixIdLin1ELi1ELi0ELin1ELi1EEELi0ENS_6StrideILi0ELi0EEEEELi0EE11checkSanityIS6_EEvNS_8internal9enable_ifIXeqsr8internal6traitsIT_EE9AlignmentLi0EEPvE4typeE, symObjAddr: 0x2501C, symBinAddr: 0x100028238, symSize: 0x14 }
  - { offsetInCU: 0x95817, offset: 0x95817, size: 0x8, addend: 0x0, symName: __ZN5Eigen9DenseBaseINS_3MapINS_6MatrixIdLin1ELi1ELi0ELin1ELi1EEELi0ENS_6StrideILi0ELi0EEEEEEC2Ev, symObjAddr: 0x25030, symBinAddr: 0x10002824C, symSize: 0x14 }
  - { offsetInCU: 0x95841, offset: 0x95841, size: 0x8, addend: 0x0, symName: __ZN5Eigen6StrideILi0ELi0EEC2ERKS1_, symObjAddr: 0x25044, symBinAddr: 0x100028260, symSize: 0x58 }
  - { offsetInCU: 0x95879, offset: 0x95879, size: 0x8, addend: 0x0, symName: __ZNK5Eigen6StrideILi0ELi0EE5outerEv, symObjAddr: 0x2509C, symBinAddr: 0x1000282B8, symSize: 0x20 }
  - { offsetInCU: 0x9589F, offset: 0x9589F, size: 0x8, addend: 0x0, symName: __ZNK5Eigen6StrideILi0ELi0EE5innerEv, symObjAddr: 0x250BC, symBinAddr: 0x1000282D8, symSize: 0x20 }
  - { offsetInCU: 0x958C5, offset: 0x958C5, size: 0x8, addend: 0x0, symName: __ZN5Eigen10MatrixBaseINS_3MapINS_6MatrixIdLin1ELi1ELi0ELin1ELi1EEELi0ENS_6StrideILi0ELi0EEEEEEaSINS_9TransposeIKNS_5BlockIKNS_3RefINS2_IdLin1ELin1ELi0ELin1ELin1EEELi0ENS_11OuterStrideILin1EEEEELi1ELin1ELb0EEEEEEERS6_RKNS_9DenseBaseIT_EE, symObjAddr: 0x250DC, symBinAddr: 0x1000282F8, symSize: 0x4C }
  - { offsetInCU: 0x95904, offset: 0x95904, size: 0x8, addend: 0x0, symName: __ZN5Eigen9EigenBaseINS_3MapINS_6MatrixIdLin1ELi1ELi0ELin1ELi1EEELi0ENS_6StrideILi0ELi0EEEEEE7derivedEv, symObjAddr: 0x25178, symBinAddr: 0x100028394, symSize: 0x14 }
  - { offsetInCU: 0x9592A, offset: 0x9592A, size: 0x8, addend: 0x0, symName: __ZN5Eigen8internal10AssignmentINS_3MapINS_6MatrixIdLin1ELi1ELi0ELin1ELi1EEELi0ENS_6StrideILi0ELi0EEEEENS_9TransposeIKNS_5BlockIKNS_3RefINS3_IdLin1ELin1ELi0ELin1ELin1EEELi0ENS_11OuterStrideILin1EEEEELi1ELin1ELb0EEEEENS0_9assign_opIddEENS0_11Dense2DenseEvE3runERS7_RKSI_RKSK_, symObjAddr: 0x25200, symBinAddr: 0x10002841C, symSize: 0x40 }
  - { offsetInCU: 0x9596C, offset: 0x9596C, size: 0x8, addend: 0x0, symName: __ZN5Eigen8internal9evaluatorINS_9TransposeIKNS_5BlockIKNS_3RefINS_6MatrixIdLin1ELin1ELi0ELin1ELin1EEELi0ENS_11OuterStrideILin1EEEEELi1ELin1ELb0EEEEEEC1ERKSD_, symObjAddr: 0x25334, symBinAddr: 0x100028550, symSize: 0x34 }
  - { offsetInCU: 0x959B3, offset: 0x959B3, size: 0x8, addend: 0x0, symName: __ZN5Eigen8internal9evaluatorINS_3MapINS_6MatrixIdLin1ELi1ELi0ELin1ELi1EEELi0ENS_6StrideILi0ELi0EEEEEEC1ERKS7_, symObjAddr: 0x25460, symBinAddr: 0x10002867C, symSize: 0x34 }
  - { offsetInCU: 0x959EC, offset: 0x959EC, size: 0x8, addend: 0x0, symName: __ZNK5Eigen9EigenBaseINS_3MapINS_6MatrixIdLin1ELi1ELi0ELin1ELi1EEELi0ENS_6StrideILi0ELi0EEEEEE18const_cast_derivedEv, symObjAddr: 0x25494, symBinAddr: 0x1000286B0, symSize: 0x14 }
  - { offsetInCU: 0x95A3F, offset: 0x95A3F, size: 0x8, addend: 0x0, symName: __ZN5Eigen8internal31generic_dense_assignment_kernelINS0_9evaluatorINS_3MapINS_6MatrixIdLin1ELi1ELi0ELin1ELi1EEELi0ENS_6StrideILi0ELi0EEEEEEENS2_INS_9TransposeIKNS_5BlockIKNS_3RefINS4_IdLin1ELin1ELi0ELin1ELin1EEELi0ENS_11OuterStrideILin1EEEEELi1ELin1ELb0EEEEEEENS0_9assign_opIddEELi0EEC1ERS9_RKSL_RKSN_RS8_, symObjAddr: 0x254A8, symBinAddr: 0x1000286C4, symSize: 0x4C }
  - { offsetInCU: 0x95AAA, offset: 0x95AAA, size: 0x8, addend: 0x0, symName: __ZN5Eigen8internal21dense_assignment_loopINS0_31generic_dense_assignment_kernelINS0_9evaluatorINS_3MapINS_6MatrixIdLin1ELi1ELi0ELin1ELi1EEELi0ENS_6StrideILi0ELi0EEEEEEENS3_INS_9TransposeIKNS_5BlockIKNS_3RefINS5_IdLin1ELin1ELi0ELin1ELin1EEELi0ENS_11OuterStrideILin1EEEEELi1ELin1ELb0EEEEEEENS0_9assign_opIddEELi0EEELi1ELi0EE3runERSP_, symObjAddr: 0x254F4, symBinAddr: 0x100028710, symSize: 0x68 }
  - { offsetInCU: 0x95AFA, offset: 0x95AFA, size: 0x8, addend: 0x0, symName: __ZN5Eigen8internal9evaluatorINS_3MapINS_6MatrixIdLin1ELi1ELi0ELin1ELi1EEELi0ENS_6StrideILi0ELi0EEEEEED1Ev, symObjAddr: 0x2555C, symBinAddr: 0x100028778, symSize: 0x2C }
  - { offsetInCU: 0x95B27, offset: 0x95B27, size: 0x8, addend: 0x0, symName: __ZN5Eigen8internal9evaluatorINS_9TransposeIKNS_5BlockIKNS_3RefINS_6MatrixIdLin1ELin1ELi0ELin1ELin1EEELi0ENS_11OuterStrideILin1EEEEELi1ELin1ELb0EEEEEED1Ev, symObjAddr: 0x25588, symBinAddr: 0x1000287A4, symSize: 0x2C }
  - { offsetInCU: 0x95B53, offset: 0x95B53, size: 0x8, addend: 0x0, symName: __ZNK5Eigen7MapBaseINS_3MapINS_6MatrixIdLin1ELi1ELi0ELin1ELi1EEELi0ENS_6StrideILi0ELi0EEEEELi0EE4rowsEv, symObjAddr: 0x255B4, symBinAddr: 0x1000287D0, symSize: 0x28 }
  - { offsetInCU: 0x95B79, offset: 0x95B79, size: 0x8, addend: 0x0, symName: __ZNK5Eigen7MapBaseINS_3MapINS_6MatrixIdLin1ELi1ELi0ELin1ELi1EEELi0ENS_6StrideILi0ELi0EEEEELi0EE4colsEv, symObjAddr: 0x255DC, symBinAddr: 0x1000287F8, symSize: 0x20 }
  - { offsetInCU: 0x95B9F, offset: 0x95B9F, size: 0x8, addend: 0x0, symName: __ZN5Eigen9DenseBaseINS_3MapINS_6MatrixIdLin1ELi1ELi0ELin1ELi1EEELi0ENS_6StrideILi0ELi0EEEEEE6resizeEll, symObjAddr: 0x255FC, symBinAddr: 0x100028818, symSize: 0xBC }
  - { offsetInCU: 0x95BE3, offset: 0x95BE3, size: 0x8, addend: 0x0, symName: __ZNK5Eigen9EigenBaseINS_3MapINS_6MatrixIdLin1ELi1ELi0ELin1ELi1EEELi0ENS_6StrideILi0ELi0EEEEEE4rowsEv, symObjAddr: 0x256B8, symBinAddr: 0x1000288D4, symSize: 0x38 }
  - { offsetInCU: 0x95C09, offset: 0x95C09, size: 0x8, addend: 0x0, symName: __ZNK5Eigen9EigenBaseINS_3MapINS_6MatrixIdLin1ELi1ELi0ELin1ELi1EEELi0ENS_6StrideILi0ELi0EEEEEE4colsEv, symObjAddr: 0x256F0, symBinAddr: 0x10002890C, symSize: 0x28 }
  - { offsetInCU: 0x95C2F, offset: 0x95C2F, size: 0x8, addend: 0x0, symName: __ZNK5Eigen9EigenBaseINS_3MapINS_6MatrixIdLin1ELi1ELi0ELin1ELi1EEELi0ENS_6StrideILi0ELi0EEEEEE7derivedEv, symObjAddr: 0x25718, symBinAddr: 0x100028934, symSize: 0x14 }
  - { offsetInCU: 0x95C55, offset: 0x95C55, size: 0x8, addend: 0x0, symName: __ZN5Eigen8internal9evaluatorINS_3MapINS_6MatrixIdLin1ELi1ELi0ELin1ELi1EEELi0ENS_6StrideILi0ELi0EEEEEEC2ERKS7_, symObjAddr: 0x2572C, symBinAddr: 0x100028948, symSize: 0x34 }
  - { offsetInCU: 0x95C8E, offset: 0x95C8E, size: 0x8, addend: 0x0, symName: __ZN5Eigen8internal17mapbase_evaluatorINS_3MapINS_6MatrixIdLin1ELi1ELi0ELin1ELi1EEELi0ENS_6StrideILi0ELi0EEEEES4_EC2ERKS7_, symObjAddr: 0x25760, symBinAddr: 0x10002897C, symSize: 0xC0 }
  - { offsetInCU: 0x95CC7, offset: 0x95CC7, size: 0x8, addend: 0x0, symName: __ZN5Eigen8internal14evaluator_baseINS_3MapINS_6MatrixIdLin1ELi1ELi0ELin1ELi1EEELi0ENS_6StrideILi0ELi0EEEEEEC2Ev, symObjAddr: 0x25820, symBinAddr: 0x100028A3C, symSize: 0x14 }
  - { offsetInCU: 0x95CF1, offset: 0x95CF1, size: 0x8, addend: 0x0, symName: __ZNK5Eigen7MapBaseINS_3MapINS_6MatrixIdLin1ELi1ELi0ELin1ELi1EEELi0ENS_6StrideILi0ELi0EEEEELi1EE4dataEv, symObjAddr: 0x25834, symBinAddr: 0x100028A50, symSize: 0x18 }
  - { offsetInCU: 0x95D17, offset: 0x95D17, size: 0x8, addend: 0x0, symName: __ZNK5Eigen3MapINS_6MatrixIdLin1ELi1ELi0ELin1ELi1EEELi0ENS_6StrideILi0ELi0EEEE11innerStrideEv, symObjAddr: 0x2584C, symBinAddr: 0x100028A68, symSize: 0x14 }
  - { offsetInCU: 0x95D3D, offset: 0x95D3D, size: 0x8, addend: 0x0, symName: __ZNK5Eigen3MapINS_6MatrixIdLin1ELi1ELi0ELin1ELi1EEELi0ENS_6StrideILi0ELi0EEEE11outerStrideEv, symObjAddr: 0x25860, symBinAddr: 0x100028A7C, symSize: 0x44 }
  - { offsetInCU: 0x95D63, offset: 0x95D63, size: 0x8, addend: 0x0, symName: __ZN5Eigen8internal14evaluator_baseINS_3MapINS_6MatrixIdLin1ELi1ELi0ELin1ELi1EEELi0ENS_6StrideILi0ELi0EEEEEED2Ev, symObjAddr: 0x258A4, symBinAddr: 0x100028AC0, symSize: 0x14 }
  - { offsetInCU: 0x95D8D, offset: 0x95D8D, size: 0x8, addend: 0x0, symName: __ZNK5Eigen9EigenBaseINS_3MapINS_6MatrixIdLin1ELi1ELi0ELin1ELi1EEELi0ENS_6StrideILi0ELi0EEEEEE4sizeEv, symObjAddr: 0x258B8, symBinAddr: 0x100028AD4, symSize: 0x44 }
  - { offsetInCU: 0x95DB3, offset: 0x95DB3, size: 0x8, addend: 0x0, symName: __ZN5Eigen8internal31generic_dense_assignment_kernelINS0_9evaluatorINS_3MapINS_6MatrixIdLin1ELi1ELi0ELin1ELi1EEELi0ENS_6StrideILi0ELi0EEEEEEENS2_INS_9TransposeIKNS_5BlockIKNS_3RefINS4_IdLin1ELin1ELi0ELin1ELin1EEELi0ENS_11OuterStrideILin1EEEEELi1ELin1ELb0EEEEEEENS0_9assign_opIddEELi0EEC2ERS9_RKSL_RKSN_RS8_, symObjAddr: 0x258FC, symBinAddr: 0x100028B18, symSize: 0x44 }
  - { offsetInCU: 0x95E19, offset: 0x95E19, size: 0x8, addend: 0x0, symName: __ZNK5Eigen8internal31generic_dense_assignment_kernelINS0_9evaluatorINS_3MapINS_6MatrixIdLin1ELi1ELi0ELin1ELi1EEELi0ENS_6StrideILi0ELi0EEEEEEENS2_INS_9TransposeIKNS_5BlockIKNS_3RefINS4_IdLin1ELin1ELi0ELin1ELin1EEELi0ENS_11OuterStrideILin1EEEEELi1ELin1ELb0EEEEEEENS0_9assign_opIddEELi0EE4sizeEv, symObjAddr: 0x25940, symBinAddr: 0x100028B5C, symSize: 0x28 }
  - { offsetInCU: 0x95E3F, offset: 0x95E3F, size: 0x8, addend: 0x0, symName: __ZN5Eigen8internal31generic_dense_assignment_kernelINS0_9evaluatorINS_3MapINS_6MatrixIdLin1ELi1ELi0ELin1ELi1EEELi0ENS_6StrideILi0ELi0EEEEEEENS2_INS_9TransposeIKNS_5BlockIKNS_3RefINS4_IdLin1ELin1ELi0ELin1ELin1EEELi0ENS_11OuterStrideILin1EEEEELi1ELin1ELb0EEEEEEENS0_9assign_opIddEELi0EE11assignCoeffEl, symObjAddr: 0x25968, symBinAddr: 0x100028B84, symSize: 0x64 }
  - { offsetInCU: 0x95E74, offset: 0x95E74, size: 0x8, addend: 0x0, symName: __ZN5Eigen8internal17mapbase_evaluatorINS_3MapINS_6MatrixIdLin1ELi1ELi0ELin1ELi1EEELi0ENS_6StrideILi0ELi0EEEEES4_E8coeffRefEl, symObjAddr: 0x259CC, symBinAddr: 0x100028BE8, symSize: 0x48 }
  - { offsetInCU: 0x95EA9, offset: 0x95EA9, size: 0x8, addend: 0x0, symName: __ZNK5Eigen8internal15unary_evaluatorINS_9TransposeIKNS_5BlockIKNS_3RefINS_6MatrixIdLin1ELin1ELi0ELin1ELin1EEELi0ENS_11OuterStrideILin1EEEEELi1ELin1ELb0EEEEENS0_10IndexBasedEdE5coeffEl, symObjAddr: 0x25A14, symBinAddr: 0x100028C30, symSize: 0x2C }
  - { offsetInCU: 0x95EDE, offset: 0x95EDE, size: 0x8, addend: 0x0, symName: __ZNK5Eigen8internal17mapbase_evaluatorINS_5BlockIKNS_3RefINS_6MatrixIdLin1ELin1ELi0ELin1ELin1EEELi0ENS_11OuterStrideILin1EEEEELi1ELin1ELb0EEENS4_IdLi1ELin1ELi1ELi1ELin1EEEE5coeffEl, symObjAddr: 0x25A40, symBinAddr: 0x100028C5C, symSize: 0x4C }
  - { offsetInCU: 0x95F13, offset: 0x95F13, size: 0x8, addend: 0x0, symName: __ZN5Eigen8internal9evaluatorINS_3MapINS_6MatrixIdLin1ELi1ELi0ELin1ELi1EEELi0ENS_6StrideILi0ELi0EEEEEED2Ev, symObjAddr: 0x25A8C, symBinAddr: 0x100028CA8, symSize: 0x2C }
  - { offsetInCU: 0x95F40, offset: 0x95F40, size: 0x8, addend: 0x0, symName: __ZN5Eigen8internal17mapbase_evaluatorINS_3MapINS_6MatrixIdLin1ELi1ELi0ELin1ELi1EEELi0ENS_6StrideILi0ELi0EEEEES4_ED2Ev, symObjAddr: 0x25AB8, symBinAddr: 0x100028CD4, symSize: 0x2C }
  - { offsetInCU: 0x95F6D, offset: 0x95F6D, size: 0x8, addend: 0x0, symName: __ZNK5Eigen8internal16blas_data_mapperIKdlLi1ELi0ELi1EE6strideEv, symObjAddr: 0x25AE4, symBinAddr: 0x100028D00, symSize: 0x18 }
  - { offsetInCU: 0x95F93, offset: 0x95F93, size: 0x8, addend: 0x0, symName: __ZNK5Eigen9EigenBaseINS_9TransposeIKNS_3RefINS_6MatrixIdLin1ELin1ELi0ELin1ELin1EEELi0ENS_11OuterStrideILin1EEEEEEEE7derivedEv, symObjAddr: 0x25AFC, symBinAddr: 0x100028D18, symSize: 0x14 }
  - { offsetInCU: 0x95FB9, offset: 0x95FB9, size: 0x8, addend: 0x0, symName: __ZN5Eigen9EigenBaseINS_9TransposeINS_5BlockINS_3RefINS_6MatrixIdLin1ELin1ELi0ELin1ELin1EEELi0ENS_11OuterStrideILin1EEEEELi1ELin1ELb0EEEEEE7derivedEv, symObjAddr: 0x25B10, symBinAddr: 0x100028D2C, symSize: 0x14 }
  - { offsetInCU: 0x95FDF, offset: 0x95FDF, size: 0x8, addend: 0x0, symName: __ZN5Eigen9TransposeINS_5BlockINS_3RefINS_6MatrixIdLin1ELin1ELi0ELin1ELin1EEELi0ENS_11OuterStrideILin1EEEEELi1ELin1ELb0EEEE16nestedExpressionEv, symObjAddr: 0x25B24, symBinAddr: 0x100028D40, symSize: 0x14 }
  - { offsetInCU: 0x96005, offset: 0x96005, size: 0x8, addend: 0x0, symName: __ZN5Eigen5BlockINS_9TransposeINS0_INS_3RefINS_6MatrixIdLin1ELin1ELi0ELin1ELin1EEELi0ENS_11OuterStrideILin1EEEEELi1ELin1ELb0EEEEELin1ELi1ELb1EEC1ERS9_l, symObjAddr: 0x25B38, symBinAddr: 0x100028D54, symSize: 0x3C }
  - { offsetInCU: 0x9604B, offset: 0x9604B, size: 0x8, addend: 0x0, symName: __ZN5Eigen5BlockINS_9TransposeINS0_INS_3RefINS_6MatrixIdLin1ELin1ELi0ELin1ELin1EEELi0ENS_11OuterStrideILin1EEEEELi1ELin1ELb0EEEEELin1ELi1ELb1EEC2ERS9_l, symObjAddr: 0x25B74, symBinAddr: 0x100028D90, symSize: 0xAC }
  - { offsetInCU: 0x96091, offset: 0x96091, size: 0x8, addend: 0x0, symName: __ZN5Eigen9BlockImplINS_9TransposeINS_5BlockINS_3RefINS_6MatrixIdLin1ELin1ELi0ELin1ELin1EEELi0ENS_11OuterStrideILin1EEEEELi1ELin1ELb0EEEEELin1ELi1ELb1ENS_5DenseEEC2ERSA_l, symObjAddr: 0x25C20, symBinAddr: 0x100028E3C, symSize: 0x3C }
  - { offsetInCU: 0x960D7, offset: 0x960D7, size: 0x8, addend: 0x0, symName: __ZNK5Eigen9TransposeINS_5BlockINS_3RefINS_6MatrixIdLin1ELin1ELi0ELin1ELin1EEELi0ENS_11OuterStrideILin1EEEEELi1ELin1ELb0EEEE4colsEv, symObjAddr: 0x25C5C, symBinAddr: 0x100028E78, symSize: 0x24 }
  - { offsetInCU: 0x960FD, offset: 0x960FD, size: 0x8, addend: 0x0, symName: __ZN5Eigen8internal15BlockImpl_denseINS_9TransposeINS_5BlockINS_3RefINS_6MatrixIdLin1ELin1ELi0ELin1ELin1EEELi0ENS_11OuterStrideILin1EEEEELi1ELin1ELb0EEEEELin1ELi1ELb1ELb1EEC2ERSB_l, symObjAddr: 0x25C80, symBinAddr: 0x100028E9C, symSize: 0xB8 }
  - { offsetInCU: 0x96145, offset: 0x96145, size: 0x8, addend: 0x0, symName: __ZNK5Eigen13TransposeImplINS_5BlockINS_3RefINS_6MatrixIdLin1ELin1ELi0ELin1ELin1EEELi0ENS_11OuterStrideILin1EEEEELi1ELin1ELb0EEENS_5DenseEE11outerStrideEv, symObjAddr: 0x25D38, symBinAddr: 0x100028F54, symSize: 0x2C }
  - { offsetInCU: 0x9616B, offset: 0x9616B, size: 0x8, addend: 0x0, symName: __ZNK5Eigen9TransposeINS_5BlockINS_3RefINS_6MatrixIdLin1ELin1ELi0ELin1ELin1EEELi0ENS_11OuterStrideILin1EEEEELi1ELin1ELb0EEEE4rowsEv, symObjAddr: 0x25D64, symBinAddr: 0x100028F80, symSize: 0x24 }
  - { offsetInCU: 0x96191, offset: 0x96191, size: 0x8, addend: 0x0, symName: __ZN5Eigen7MapBaseINS_5BlockINS_9TransposeINS1_INS_3RefINS_6MatrixIdLin1ELin1ELi0ELin1ELin1EEELi0ENS_11OuterStrideILin1EEEEELi1ELin1ELb0EEEEELin1ELi1ELb1EEELi1EEC2EPdll, symObjAddr: 0x25D88, symBinAddr: 0x100028FA4, symSize: 0x44 }
  - { offsetInCU: 0x961E8, offset: 0x961E8, size: 0x8, addend: 0x0, symName: __ZN5Eigen8internal15BlockImpl_denseINS_9TransposeINS_5BlockINS_3RefINS_6MatrixIdLin1ELin1ELi0ELin1ELin1EEELi0ENS_11OuterStrideILin1EEEEELi1ELin1ELb0EEEEELin1ELi1ELb1ELb1EE4initEv, symObjAddr: 0x25DCC, symBinAddr: 0x100028FE8, symSize: 0x34 }
  - { offsetInCU: 0x9620E, offset: 0x9620E, size: 0x8, addend: 0x0, symName: __ZNK5Eigen9EigenBaseINS_9TransposeINS_5BlockINS_3RefINS_6MatrixIdLin1ELin1ELi0ELin1ELin1EEELi0ENS_11OuterStrideILin1EEEEELi1ELin1ELb0EEEEEE7derivedEv, symObjAddr: 0x25E00, symBinAddr: 0x10002901C, symSize: 0x14 }
  - { offsetInCU: 0x96234, offset: 0x96234, size: 0x8, addend: 0x0, symName: __ZNK5Eigen9TransposeINS_5BlockINS_3RefINS_6MatrixIdLin1ELin1ELi0ELin1ELin1EEELi0ENS_11OuterStrideILin1EEEEELi1ELin1ELb0EEEE16nestedExpressionEv, symObjAddr: 0x25E14, symBinAddr: 0x100029030, symSize: 0x14 }
  - { offsetInCU: 0x9625A, offset: 0x9625A, size: 0x8, addend: 0x0, symName: __ZN5Eigen7MapBaseINS_5BlockINS_9TransposeINS1_INS_3RefINS_6MatrixIdLin1ELin1ELi0ELin1ELin1EEELi0ENS_11OuterStrideILin1EEEEELi1ELin1ELb0EEEEELin1ELi1ELb1EEELi0EEC2EPdll, symObjAddr: 0x25E28, symBinAddr: 0x100029044, symSize: 0x11C }
  - { offsetInCU: 0x962AE, offset: 0x962AE, size: 0x8, addend: 0x0, symName: __ZN5Eigen10MatrixBaseINS_5BlockINS_9TransposeINS1_INS_3RefINS_6MatrixIdLin1ELin1ELi0ELin1ELin1EEELi0ENS_11OuterStrideILin1EEEEELi1ELin1ELb0EEEEELin1ELi1ELb1EEEEC2Ev, symObjAddr: 0x25F44, symBinAddr: 0x100029160, symSize: 0x2C }
  - { offsetInCU: 0x962D8, offset: 0x962D8, size: 0x8, addend: 0x0, symName: __ZNK5Eigen7MapBaseINS_5BlockINS_9TransposeINS1_INS_3RefINS_6MatrixIdLin1ELin1ELi0ELin1ELin1EEELi0ENS_11OuterStrideILin1EEEEELi1ELin1ELb0EEEEELin1ELi1ELb1EEELi0EE11checkSanityISB_EEvNS_8internal9enable_ifIXeqsr8internal6traitsIT_EE9AlignmentLi0EEPvE4typeE, symObjAddr: 0x25F70, symBinAddr: 0x10002918C, symSize: 0x14 }
  - { offsetInCU: 0x96312, offset: 0x96312, size: 0x8, addend: 0x0, symName: __ZN5Eigen9DenseBaseINS_5BlockINS_9TransposeINS1_INS_3RefINS_6MatrixIdLin1ELin1ELi0ELin1ELin1EEELi0ENS_11OuterStrideILin1EEEEELi1ELin1ELb0EEEEELin1ELi1ELb1EEEEC2Ev, symObjAddr: 0x25F84, symBinAddr: 0x1000291A0, symSize: 0x14 }
  - { offsetInCU: 0x9633C, offset: 0x9633C, size: 0x8, addend: 0x0, symName: __ZNK5Eigen13TransposeImplINS_5BlockINS_3RefINS_6MatrixIdLin1ELin1ELi0ELin1ELin1EEELi0ENS_11OuterStrideILin1EEEEELi1ELin1ELb0EEENS_5DenseEE11innerStrideEv, symObjAddr: 0x25F98, symBinAddr: 0x1000291B4, symSize: 0x2C }
  - { offsetInCU: 0x96362, offset: 0x96362, size: 0x8, addend: 0x0, symName: __ZN5Eigen8internal19gemm_blocking_spaceILi0EddLin1ELin1ELin1ELi1ELb0EEC2Ellllb, symObjAddr: 0x25FC4, symBinAddr: 0x1000291E0, symSize: 0xDC }
  - { offsetInCU: 0x963F4, offset: 0x963F4, size: 0x8, addend: 0x0, symName: __ZNK5Eigen8internal12gemm_functorIdlNS0_29general_matrix_matrix_productIldLi0ELb0EdLi0ELb0ELi0ELi1EEENS_3RefINS_6MatrixIdLin1ELin1ELi0ELin1ELin1EEELi0ENS_11OuterStrideILin1EEEEES9_S9_NS0_19gemm_blocking_spaceILi0EddLin1ELin1ELin1ELi1ELb0EEEEclEllllPNS0_16GemmParallelInfoIlEE, symObjAddr: 0x268E8, symBinAddr: 0x100029B04, symSize: 0x158 }
  - { offsetInCU: 0x96460, offset: 0x96460, size: 0x8, addend: 0x0, symName: __ZN5Eigen8internal29general_matrix_matrix_productIldLi0ELb0EdLi0ELb0ELi0ELi1EE3runElllPKdlS4_lPdlldRNS0_15level3_blockingIddEEPNS0_16GemmParallelInfoIlEE, symObjAddr: 0x26A40, symBinAddr: 0x100029C5C, symSize: 0xB98 }
  - { offsetInCU: 0x96B78, offset: 0x96B78, size: 0x8, addend: 0x0, symName: __ZNK5Eigen8internal15level3_blockingIddE2ncEv, symObjAddr: 0x275D8, symBinAddr: 0x10002A7F4, symSize: 0x18 }
  - { offsetInCU: 0x96B9E, offset: 0x96B9E, size: 0x8, addend: 0x0, symName: __ZN5Eigen8internal13gemm_pack_rhsIdlNS0_22const_blas_data_mapperIdlLi0EEELi4ELi0ELb0ELb0EEclEPdRKS3_llll, symObjAddr: 0x27600, symBinAddr: 0x10002A81C, symSize: 0x710 }
  - { offsetInCU: 0x971D1, offset: 0x971D1, size: 0x8, addend: 0x0, symName: __ZN5Eigen8internal12gemm_functorIdlNS0_29general_matrix_matrix_productIldLi0ELb0EdLi0ELb0ELi0ELi1EEENS_3RefINS_6MatrixIdLin1ELin1ELi0ELin1ELin1EEELi0ENS_11OuterStrideILin1EEEEES9_S9_NS0_19gemm_blocking_spaceILi0EddLin1ELin1ELin1ELi1ELb0EEEEC2ERKS9_SE_RS9_RKdRSB_, symObjAddr: 0x27D10, symBinAddr: 0x10002AF2C, symSize: 0x54 }
  - { offsetInCU: 0x97241, offset: 0x97241, size: 0x8, addend: 0x0, symName: __ZN5Eigen8internal19gemm_blocking_spaceILi0EddLin1ELin1ELin1ELi1ELb0EED2Ev, symObjAddr: 0x27D64, symBinAddr: 0x10002AF80, symSize: 0x50 }
  - { offsetInCU: 0x9726B, offset: 0x9726B, size: 0x8, addend: 0x0, symName: __ZN5Eigen12DenseStorageIdLin1ELin1ELin1ELi0EE4dataEv, symObjAddr: 0x27DB4, symBinAddr: 0x10002AFD0, symSize: 0x18 }
  - { offsetInCU: 0x97291, offset: 0x97291, size: 0x8, addend: 0x0, symName: __ZN5Eigen15PermutationBaseINS_17PermutationMatrixILin1ELin1EiEEEaSINS_14TranspositionsILin1ELin1EiEEEERS2_RKNS_18TranspositionsBaseIT_EE, symObjAddr: 0x27DCC, symBinAddr: 0x10002AFE8, symSize: 0xA8 }
  - { offsetInCU: 0x972EA, offset: 0x972EA, size: 0x8, addend: 0x0, symName: __ZN5Eigen15PermutationBaseINS_17PermutationMatrixILin1ELin1EiEEE11setIdentityEl, symObjAddr: 0x27E74, symBinAddr: 0x10002B090, symSize: 0x38 }
  - { offsetInCU: 0x9731E, offset: 0x9731E, size: 0x8, addend: 0x0, symName: __ZNK5Eigen15PermutationBaseINS_17PermutationMatrixILin1ELin1EiEEE4sizeEv, symObjAddr: 0x27EAC, symBinAddr: 0x10002B0C8, symSize: 0x28 }
  - { offsetInCU: 0x97344, offset: 0x97344, size: 0x8, addend: 0x0, symName: __ZN5Eigen15PermutationBaseINS_17PermutationMatrixILin1ELin1EiEEE28applyTranspositionOnTheRightEll, symObjAddr: 0x27ED4, symBinAddr: 0x10002B0F0, symSize: 0x120 }
  - { offsetInCU: 0x97386, offset: 0x97386, size: 0x8, addend: 0x0, symName: __ZNK5Eigen18TranspositionsBaseINS_14TranspositionsILin1ELin1EiEEE5coeffEl, symObjAddr: 0x27FF4, symBinAddr: 0x10002B210, symSize: 0x30 }
  - { offsetInCU: 0x973BA, offset: 0x973BA, size: 0x8, addend: 0x0, symName: __ZN5Eigen9EigenBaseINS_17PermutationMatrixILin1ELin1EiEEE7derivedEv, symObjAddr: 0x28024, symBinAddr: 0x10002B240, symSize: 0x14 }
  - { offsetInCU: 0x973E0, offset: 0x973E0, size: 0x8, addend: 0x0, symName: __ZN5Eigen15PermutationBaseINS_17PermutationMatrixILin1ELin1EiEEE6resizeEl, symObjAddr: 0x28038, symBinAddr: 0x10002B254, symSize: 0x30 }
  - { offsetInCU: 0x97414, offset: 0x97414, size: 0x8, addend: 0x0, symName: __ZN5Eigen15PermutationBaseINS_17PermutationMatrixILin1ELin1EiEEE11setIdentityEv, symObjAddr: 0x28068, symBinAddr: 0x10002B284, symSize: 0x84 }
  - { offsetInCU: 0x97464, offset: 0x97464, size: 0x8, addend: 0x0, symName: __ZN5Eigen15PermutationBaseINS_17PermutationMatrixILin1ELin1EiEEE7indicesEv, symObjAddr: 0x280EC, symBinAddr: 0x10002B308, symSize: 0x28 }
  - { offsetInCU: 0x9748A, offset: 0x9748A, size: 0x8, addend: 0x0, symName: __ZN5Eigen17PermutationMatrixILin1ELin1EiE7indicesEv, symObjAddr: 0x28114, symBinAddr: 0x10002B330, symSize: 0x14 }
  - { offsetInCU: 0x974B0, offset: 0x974B0, size: 0x8, addend: 0x0, symName: __ZNK5Eigen15PermutationBaseINS_17PermutationMatrixILin1ELin1EiEEE7indicesEv, symObjAddr: 0x28128, symBinAddr: 0x10002B344, symSize: 0x28 }
  - { offsetInCU: 0x974D6, offset: 0x974D6, size: 0x8, addend: 0x0, symName: __ZNK5Eigen9EigenBaseINS_17PermutationMatrixILin1ELin1EiEEE7derivedEv, symObjAddr: 0x28150, symBinAddr: 0x10002B36C, symSize: 0x14 }
  - { offsetInCU: 0x974FC, offset: 0x974FC, size: 0x8, addend: 0x0, symName: __ZNK5Eigen17PermutationMatrixILin1ELin1EiE7indicesEv, symObjAddr: 0x28164, symBinAddr: 0x10002B380, symSize: 0x14 }
  - { offsetInCU: 0x97522, offset: 0x97522, size: 0x8, addend: 0x0, symName: __ZNK5Eigen15PlainObjectBaseINS_6MatrixIiLin1ELi1ELi0ELin1ELi1EEEE5coeffEl, symObjAddr: 0x281B4, symBinAddr: 0x10002B3D0, symSize: 0x30 }
  - { offsetInCU: 0x97556, offset: 0x97556, size: 0x8, addend: 0x0, symName: __ZNK5Eigen12DenseStorageIiLin1ELin1ELi1ELi0EE4dataEv, symObjAddr: 0x281E4, symBinAddr: 0x10002B400, symSize: 0x18 }
  - { offsetInCU: 0x9757C, offset: 0x9757C, size: 0x8, addend: 0x0, symName: __ZN5Eigen14TranspositionsILin1ELin1EiED2Ev, symObjAddr: 0x281FC, symBinAddr: 0x10002B418, symSize: 0x2C }
  - { offsetInCU: 0x975A8, offset: 0x975A8, size: 0x8, addend: 0x0, symName: __ZN5Eigen6MatrixIiLin1ELi1ELi0ELin1ELi1EED1Ev, symObjAddr: 0x28228, symBinAddr: 0x10002B444, symSize: 0x2C }
  - { offsetInCU: 0x975D4, offset: 0x975D4, size: 0x8, addend: 0x0, symName: __ZN5Eigen6MatrixIiLin1ELi1ELi0ELin1ELi1EED2Ev, symObjAddr: 0x28254, symBinAddr: 0x10002B470, symSize: 0x2C }
  - { offsetInCU: 0x97600, offset: 0x97600, size: 0x8, addend: 0x0, symName: __ZN5Eigen17PermutationMatrixILin1ELin1EiED2Ev, symObjAddr: 0x28280, symBinAddr: 0x10002B49C, symSize: 0x2C }
  - { offsetInCU: 0x9762D, offset: 0x9762D, size: 0x8, addend: 0x0, symName: __ZN5Eigen7InverseINS_12PartialPivLUINS_6MatrixIdLin1ELin1ELi0ELin1ELin1EEEEEEC1ERKS4_, symObjAddr: 0x282AC, symBinAddr: 0x10002B4C8, symSize: 0x34 }
  - { offsetInCU: 0x97665, offset: 0x97665, size: 0x8, addend: 0x0, symName: __ZN5Eigen7InverseINS_12PartialPivLUINS_6MatrixIdLin1ELin1ELi0ELin1ELin1EEEEEEC2ERKS4_, symObjAddr: 0x282E0, symBinAddr: 0x10002B4FC, symSize: 0x3C }
  - { offsetInCU: 0x976A2, offset: 0x976A2, size: 0x8, addend: 0x0, symName: __ZN5Eigen11InverseImplINS_12PartialPivLUINS_6MatrixIdLin1ELin1ELi0ELin1ELin1EEEEENS_13SolverStorageEEC2Ev, symObjAddr: 0x2831C, symBinAddr: 0x10002B538, symSize: 0x2C }
  - { offsetInCU: 0x976CE, offset: 0x976CE, size: 0x8, addend: 0x0, symName: __ZN5Eigen12PartialPivLUINS_6MatrixIdLin1ELin1ELi0ELin1ELin1EEEEC1ERKS3_, symObjAddr: 0x28348, symBinAddr: 0x10002B564, symSize: 0x34 }
  - { offsetInCU: 0x97704, offset: 0x97704, size: 0x8, addend: 0x0, symName: __ZN5Eigen10MatrixBaseINS_7InverseINS_12PartialPivLUINS_6MatrixIdLin1ELin1ELi0ELin1ELin1EEEEEEEEC2Ev, symObjAddr: 0x2837C, symBinAddr: 0x10002B598, symSize: 0x2C }
  - { offsetInCU: 0x9772E, offset: 0x9772E, size: 0x8, addend: 0x0, symName: __ZN5Eigen9DenseBaseINS_7InverseINS_12PartialPivLUINS_6MatrixIdLin1ELin1ELi0ELin1ELin1EEEEEEEEC2Ev, symObjAddr: 0x283A8, symBinAddr: 0x10002B5C4, symSize: 0x14 }
  - { offsetInCU: 0x97758, offset: 0x97758, size: 0x8, addend: 0x0, symName: __ZN5Eigen12PartialPivLUINS_6MatrixIdLin1ELin1ELi0ELin1ELin1EEEEC2ERKS3_, symObjAddr: 0x283BC, symBinAddr: 0x10002B5D8, symSize: 0xDC }
  - { offsetInCU: 0x9778E, offset: 0x9778E, size: 0x8, addend: 0x0, symName: __ZN5Eigen6MatrixIdLin1ELin1ELi0ELin1ELin1EEC1ERKS1_, symObjAddr: 0x28498, symBinAddr: 0x10002B6B4, symSize: 0x34 }
  - { offsetInCU: 0x977C7, offset: 0x977C7, size: 0x8, addend: 0x0, symName: __ZN5Eigen17PermutationMatrixILin1ELin1EiEC1ERKS1_, symObjAddr: 0x284CC, symBinAddr: 0x10002B6E8, symSize: 0x34 }
  - { offsetInCU: 0x977FD, offset: 0x977FD, size: 0x8, addend: 0x0, symName: __ZN5Eigen14TranspositionsILin1ELin1EiEC1ERKS1_, symObjAddr: 0x28500, symBinAddr: 0x10002B71C, symSize: 0x34 }
  - { offsetInCU: 0x97832, offset: 0x97832, size: 0x8, addend: 0x0, symName: __ZN5Eigen6MatrixIdLin1ELin1ELi0ELin1ELin1EEC2ERKS1_, symObjAddr: 0x28534, symBinAddr: 0x10002B750, symSize: 0x34 }
  - { offsetInCU: 0x9786B, offset: 0x9786B, size: 0x8, addend: 0x0, symName: __ZN5Eigen15PlainObjectBaseINS_6MatrixIdLin1ELin1ELi0ELin1ELin1EEEEC2ERKS3_, symObjAddr: 0x28568, symBinAddr: 0x10002B784, symSize: 0x3C }
  - { offsetInCU: 0x978A4, offset: 0x978A4, size: 0x8, addend: 0x0, symName: __ZN5Eigen12DenseStorageIdLin1ELin1ELin1ELi0EEC1ERKS1_, symObjAddr: 0x285A4, symBinAddr: 0x10002B7C0, symSize: 0x34 }
  - { offsetInCU: 0x978DD, offset: 0x978DD, size: 0x8, addend: 0x0, symName: __ZN5Eigen12DenseStorageIdLin1ELin1ELin1ELi0EEC2ERKS1_, symObjAddr: 0x285D8, symBinAddr: 0x10002B7F4, symSize: 0x94 }
  - { offsetInCU: 0x97916, offset: 0x97916, size: 0x8, addend: 0x0, symName: __ZN5Eigen8internal17smart_copy_helperIdLb1EE3runEPKdS4_Pd, symObjAddr: 0x286A0, symBinAddr: 0x10002B8BC, symSize: 0x60 }
  - { offsetInCU: 0x9796F, offset: 0x9796F, size: 0x8, addend: 0x0, symName: __ZN5Eigen17PermutationMatrixILin1ELin1EiEC2ERKS1_, symObjAddr: 0x28700, symBinAddr: 0x10002B91C, symSize: 0x34 }
  - { offsetInCU: 0x979A5, offset: 0x979A5, size: 0x8, addend: 0x0, symName: __ZN5Eigen6MatrixIiLin1ELi1ELi0ELin1ELi1EEC1ERKS1_, symObjAddr: 0x28734, symBinAddr: 0x10002B950, symSize: 0x34 }
  - { offsetInCU: 0x979DE, offset: 0x979DE, size: 0x8, addend: 0x0, symName: __ZN5Eigen6MatrixIiLin1ELi1ELi0ELin1ELi1EEC2ERKS1_, symObjAddr: 0x28768, symBinAddr: 0x10002B984, symSize: 0x34 }
  - { offsetInCU: 0x97A17, offset: 0x97A17, size: 0x8, addend: 0x0, symName: __ZN5Eigen15PlainObjectBaseINS_6MatrixIiLin1ELi1ELi0ELin1ELi1EEEEC2ERKS3_, symObjAddr: 0x2879C, symBinAddr: 0x10002B9B8, symSize: 0x3C }
  - { offsetInCU: 0x97A50, offset: 0x97A50, size: 0x8, addend: 0x0, symName: __ZN5Eigen12DenseStorageIiLin1ELin1ELi1ELi0EEC1ERKS1_, symObjAddr: 0x287D8, symBinAddr: 0x10002B9F4, symSize: 0x34 }
  - { offsetInCU: 0x97A89, offset: 0x97A89, size: 0x8, addend: 0x0, symName: __ZN5Eigen12DenseStorageIiLin1ELin1ELi1ELi0EEC2ERKS1_, symObjAddr: 0x2880C, symBinAddr: 0x10002BA28, symSize: 0x78 }
  - { offsetInCU: 0x97AC2, offset: 0x97AC2, size: 0x8, addend: 0x0, symName: __ZN5Eigen8internal17smart_copy_helperIiLb1EE3runEPKiS4_Pi, symObjAddr: 0x288B8, symBinAddr: 0x10002BAD4, symSize: 0x60 }
  - { offsetInCU: 0x97B1B, offset: 0x97B1B, size: 0x8, addend: 0x0, symName: __ZN5Eigen14TranspositionsILin1ELin1EiEC2ERKS1_, symObjAddr: 0x28918, symBinAddr: 0x10002BB34, symSize: 0x34 }
  - { offsetInCU: 0x97B50, offset: 0x97B50, size: 0x8, addend: 0x0, symName: __ZN5Eigen15PlainObjectBaseINS_6MatrixIdLin1ELin1ELi0ELin1ELin1EEEE4_setINS_7InverseINS_12PartialPivLUIS2_EEEEEERS2_RKNS_9DenseBaseIT_EE, symObjAddr: 0x2894C, symBinAddr: 0x10002BB68, symSize: 0x4C }
  - { offsetInCU: 0x97B8E, offset: 0x97B8E, size: 0x8, addend: 0x0, symName: __ZNK5Eigen9EigenBaseINS_7InverseINS_12PartialPivLUINS_6MatrixIdLin1ELin1ELi0ELin1ELin1EEEEEEEE7derivedEv, symObjAddr: 0x289E8, symBinAddr: 0x10002BC04, symSize: 0x14 }
  - { offsetInCU: 0x97BBE, offset: 0x97BBE, size: 0x8, addend: 0x0, symName: __ZN5Eigen8internal10AssignmentINS_6MatrixIdLin1ELin1ELi0ELin1ELin1EEENS_7InverseINS_12PartialPivLUIS3_EEEENS0_9assign_opIddEENS0_11Dense2DenseEvE3runERS3_RKS7_RKS9_, symObjAddr: 0x28A70, symBinAddr: 0x10002BC8C, symSize: 0x7C }
  - { offsetInCU: 0x97BFC, offset: 0x97BFC, size: 0x8, addend: 0x0, symName: __ZNK5Eigen7InverseINS_12PartialPivLUINS_6MatrixIdLin1ELin1ELi0ELin1ELin1EEEEEE16nestedExpressionEv, symObjAddr: 0x28AEC, symBinAddr: 0x10002BD08, symSize: 0x14 }
  - { offsetInCU: 0x97C22, offset: 0x97C22, size: 0x8, addend: 0x0, symName: __ZNK5Eigen10SolverBaseINS_12PartialPivLUINS_6MatrixIdLin1ELin1ELi0ELin1ELin1EEEEEE5solveINS_14CwiseNullaryOpINS_8internal18scalar_identity_opIdEES3_EEEEKNS_5SolveIS4_T_EERKNS_10MatrixBaseISD_EE, symObjAddr: 0x28B00, symBinAddr: 0x10002BD1C, symSize: 0x60 }
  - { offsetInCU: 0x97C5F, offset: 0x97C5F, size: 0x8, addend: 0x0, symName: __ZN5Eigen10MatrixBaseINS_6MatrixIdLin1ELin1ELi0ELin1ELin1EEEE8IdentityEll, symObjAddr: 0x28B60, symBinAddr: 0x10002BD7C, symSize: 0x58 }
  - { offsetInCU: 0x97C93, offset: 0x97C93, size: 0x8, addend: 0x0, symName: __ZNK5Eigen7InverseINS_12PartialPivLUINS_6MatrixIdLin1ELin1ELi0ELin1ELin1EEEEEE4rowsEv, symObjAddr: 0x28BB8, symBinAddr: 0x10002BDD4, symSize: 0x24 }
  - { offsetInCU: 0x97CB9, offset: 0x97CB9, size: 0x8, addend: 0x0, symName: __ZNK5Eigen7InverseINS_12PartialPivLUINS_6MatrixIdLin1ELin1ELi0ELin1ELin1EEEEEE4colsEv, symObjAddr: 0x28BDC, symBinAddr: 0x10002BDF8, symSize: 0x24 }
  - { offsetInCU: 0x97CDF, offset: 0x97CDF, size: 0x8, addend: 0x0, symName: __ZN5Eigen6MatrixIdLin1ELin1ELi0ELin1ELin1EEaSINS_5SolveINS_12PartialPivLUIS1_EENS_14CwiseNullaryOpINS_8internal18scalar_identity_opIdEES1_EEEEEERS1_RKNS_9DenseBaseIT_EE, symObjAddr: 0x28C00, symBinAddr: 0x10002BE1C, symSize: 0x2C }
  - { offsetInCU: 0x97D1C, offset: 0x97D1C, size: 0x8, addend: 0x0, symName: __ZN5Eigen8internal15solve_assertionINS_12PartialPivLUINS_6MatrixIdLin1ELin1ELi0ELin1ELin1EEEEEE3runILb0ENS_10MatrixBaseINS_14CwiseNullaryOpINS0_18scalar_identity_opIdEES4_EEEEEEvRKS5_RKT0_, symObjAddr: 0x28C2C, symBinAddr: 0x10002BE48, symSize: 0x2C }
  - { offsetInCU: 0x97D60, offset: 0x97D60, size: 0x8, addend: 0x0, symName: __ZNK5Eigen9EigenBaseINS_12PartialPivLUINS_6MatrixIdLin1ELin1ELi0ELin1ELin1EEEEEE7derivedEv, symObjAddr: 0x28C58, symBinAddr: 0x10002BE74, symSize: 0x14 }
  - { offsetInCU: 0x97D86, offset: 0x97D86, size: 0x8, addend: 0x0, symName: __ZNK5Eigen9EigenBaseINS_14CwiseNullaryOpINS_8internal18scalar_identity_opIdEENS_6MatrixIdLin1ELin1ELi0ELin1ELin1EEEEEE7derivedEv, symObjAddr: 0x28C6C, symBinAddr: 0x10002BE88, symSize: 0x14 }
  - { offsetInCU: 0x97DAC, offset: 0x97DAC, size: 0x8, addend: 0x0, symName: __ZN5Eigen5SolveINS_12PartialPivLUINS_6MatrixIdLin1ELin1ELi0ELin1ELin1EEEEENS_14CwiseNullaryOpINS_8internal18scalar_identity_opIdEES3_EEEC1ERKS4_RKS9_, symObjAddr: 0x28C80, symBinAddr: 0x10002BE9C, symSize: 0x3C }
  - { offsetInCU: 0x97DF2, offset: 0x97DF2, size: 0x8, addend: 0x0, symName: __ZNK5Eigen10SolverBaseINS_12PartialPivLUINS_6MatrixIdLin1ELin1ELi0ELin1ELin1EEEEEE22_check_solve_assertionILb0ENS_10MatrixBaseINS_14CwiseNullaryOpINS_8internal18scalar_identity_opIdEES3_EEEEEEvRKT0_, symObjAddr: 0x28CBC, symBinAddr: 0x10002BED8, symSize: 0xF0 }
  - { offsetInCU: 0x97E39, offset: 0x97E39, size: 0x8, addend: 0x0, symName: __ZNK5Eigen12PartialPivLUINS_6MatrixIdLin1ELin1ELi0ELin1ELin1EEEE4rowsEv, symObjAddr: 0x28DAC, symBinAddr: 0x10002BFC8, symSize: 0x24 }
  - { offsetInCU: 0x97E5F, offset: 0x97E5F, size: 0x8, addend: 0x0, symName: __ZNK5Eigen9EigenBaseINS_14CwiseNullaryOpINS_8internal18scalar_identity_opIdEENS_6MatrixIdLin1ELin1ELi0ELin1ELin1EEEEEE4rowsEv, symObjAddr: 0x28DD0, symBinAddr: 0x10002BFEC, symSize: 0x44 }
  - { offsetInCU: 0x97E85, offset: 0x97E85, size: 0x8, addend: 0x0, symName: __ZNK5Eigen14CwiseNullaryOpINS_8internal18scalar_identity_opIdEENS_6MatrixIdLin1ELin1ELi0ELin1ELin1EEEE4rowsEv, symObjAddr: 0x28E14, symBinAddr: 0x10002C030, symSize: 0x24 }
  - { offsetInCU: 0x97EAB, offset: 0x97EAB, size: 0x8, addend: 0x0, symName: __ZN5Eigen5SolveINS_12PartialPivLUINS_6MatrixIdLin1ELin1ELi0ELin1ELin1EEEEENS_14CwiseNullaryOpINS_8internal18scalar_identity_opIdEES3_EEEC2ERKS4_RKS9_, symObjAddr: 0x28E38, symBinAddr: 0x10002C054, symSize: 0x44 }
  - { offsetInCU: 0x97EF6, offset: 0x97EF6, size: 0x8, addend: 0x0, symName: __ZN5Eigen9SolveImplINS_12PartialPivLUINS_6MatrixIdLin1ELin1ELi0ELin1ELin1EEEEENS_14CwiseNullaryOpINS_8internal18scalar_identity_opIdEES3_EENS_5DenseEEC2Ev, symObjAddr: 0x28E7C, symBinAddr: 0x10002C098, symSize: 0x2C }
  - { offsetInCU: 0x97F22, offset: 0x97F22, size: 0x8, addend: 0x0, symName: __ZN5Eigen10MatrixBaseINS_5SolveINS_12PartialPivLUINS_6MatrixIdLin1ELin1ELi0ELin1ELin1EEEEENS_14CwiseNullaryOpINS_8internal18scalar_identity_opIdEES4_EEEEEC2Ev, symObjAddr: 0x28EA8, symBinAddr: 0x10002C0C4, symSize: 0x2C }
  - { offsetInCU: 0x97F4C, offset: 0x97F4C, size: 0x8, addend: 0x0, symName: __ZN5Eigen9DenseBaseINS_5SolveINS_12PartialPivLUINS_6MatrixIdLin1ELin1ELi0ELin1ELin1EEEEENS_14CwiseNullaryOpINS_8internal18scalar_identity_opIdEES4_EEEEEC2Ev, symObjAddr: 0x28ED4, symBinAddr: 0x10002C0F0, symSize: 0x14 }
  - { offsetInCU: 0x97F76, offset: 0x97F76, size: 0x8, addend: 0x0, symName: __ZN5Eigen9DenseBaseINS_6MatrixIdLin1ELin1ELi0ELin1ELin1EEEE11NullaryExprINS_8internal18scalar_identity_opIdEEEEKNS_14CwiseNullaryOpIT_S2_EEllRKS9_, symObjAddr: 0x28EE8, symBinAddr: 0x10002C104, symSize: 0x48 }
  - { offsetInCU: 0x97FC3, offset: 0x97FC3, size: 0x8, addend: 0x0, symName: __ZN5Eigen8internal18scalar_identity_opIdEC1Ev, symObjAddr: 0x28F30, symBinAddr: 0x10002C14C, symSize: 0x2C }
  - { offsetInCU: 0x97FED, offset: 0x97FED, size: 0x8, addend: 0x0, symName: __ZN5Eigen14CwiseNullaryOpINS_8internal18scalar_identity_opIdEENS_6MatrixIdLin1ELin1ELi0ELin1ELin1EEEEC1EllRKS3_, symObjAddr: 0x28F5C, symBinAddr: 0x10002C178, symSize: 0x44 }
  - { offsetInCU: 0x98041, offset: 0x98041, size: 0x8, addend: 0x0, symName: __ZN5Eigen14CwiseNullaryOpINS_8internal18scalar_identity_opIdEENS_6MatrixIdLin1ELin1ELi0ELin1ELin1EEEEC2EllRKS3_, symObjAddr: 0x28FA0, symBinAddr: 0x10002C1BC, symSize: 0xDC }
  - { offsetInCU: 0x98095, offset: 0x98095, size: 0x8, addend: 0x0, symName: __ZN5Eigen10MatrixBaseINS_14CwiseNullaryOpINS_8internal18scalar_identity_opIdEENS_6MatrixIdLin1ELin1ELi0ELin1ELin1EEEEEEC2Ev, symObjAddr: 0x2907C, symBinAddr: 0x10002C298, symSize: 0x2C }
  - { offsetInCU: 0x980BF, offset: 0x980BF, size: 0x8, addend: 0x0, symName: __ZN5Eigen8internal18scalar_identity_opIdEC1ERKS2_, symObjAddr: 0x290A8, symBinAddr: 0x10002C2C4, symSize: 0x34 }
  - { offsetInCU: 0x980F4, offset: 0x980F4, size: 0x8, addend: 0x0, symName: __ZN5Eigen9DenseBaseINS_14CwiseNullaryOpINS_8internal18scalar_identity_opIdEENS_6MatrixIdLin1ELin1ELi0ELin1ELin1EEEEEEC2Ev, symObjAddr: 0x290DC, symBinAddr: 0x10002C2F8, symSize: 0x14 }
  - { offsetInCU: 0x9811E, offset: 0x9811E, size: 0x8, addend: 0x0, symName: __ZN5Eigen8internal18scalar_identity_opIdEC2ERKS2_, symObjAddr: 0x290F0, symBinAddr: 0x10002C30C, symSize: 0x18 }
  - { offsetInCU: 0x98153, offset: 0x98153, size: 0x8, addend: 0x0, symName: __ZN5Eigen8internal18scalar_identity_opIdEC2Ev, symObjAddr: 0x29108, symBinAddr: 0x10002C324, symSize: 0x14 }
  - { offsetInCU: 0x9817D, offset: 0x9817D, size: 0x8, addend: 0x0, symName: __ZNK5Eigen12PartialPivLUINS_6MatrixIdLin1ELin1ELi0ELin1ELin1EEEE4colsEv, symObjAddr: 0x2911C, symBinAddr: 0x10002C338, symSize: 0x24 }
  - { offsetInCU: 0x981A3, offset: 0x981A3, size: 0x8, addend: 0x0, symName: __ZN5Eigen15PlainObjectBaseINS_6MatrixIdLin1ELin1ELi0ELin1ELin1EEEE4_setINS_5SolveINS_12PartialPivLUIS2_EENS_14CwiseNullaryOpINS_8internal18scalar_identity_opIdEES2_EEEEEERS2_RKNS_9DenseBaseIT_EE, symObjAddr: 0x29140, symBinAddr: 0x10002C35C, symSize: 0x4C }
  - { offsetInCU: 0x981E1, offset: 0x981E1, size: 0x8, addend: 0x0, symName: __ZNK5Eigen9EigenBaseINS_5SolveINS_12PartialPivLUINS_6MatrixIdLin1ELin1ELi0ELin1ELin1EEEEENS_14CwiseNullaryOpINS_8internal18scalar_identity_opIdEES4_EEEEE7derivedEv, symObjAddr: 0x291DC, symBinAddr: 0x10002C3F8, symSize: 0x14 }
  - { offsetInCU: 0x98211, offset: 0x98211, size: 0x8, addend: 0x0, symName: __ZN5Eigen8internal10AssignmentINS_6MatrixIdLin1ELin1ELi0ELin1ELin1EEENS_5SolveINS_12PartialPivLUIS3_EENS_14CwiseNullaryOpINS0_18scalar_identity_opIdEES3_EEEENS0_9assign_opIddEENS0_11Dense2DenseEvE3runERS3_RKSB_RKSD_, symObjAddr: 0x29264, symBinAddr: 0x10002C480, symSize: 0xAC }
  - { offsetInCU: 0x98269, offset: 0x98269, size: 0x8, addend: 0x0, symName: __ZNK5Eigen5SolveINS_12PartialPivLUINS_6MatrixIdLin1ELin1ELi0ELin1ELin1EEEEENS_14CwiseNullaryOpINS_8internal18scalar_identity_opIdEES3_EEE4rowsEv, symObjAddr: 0x29310, symBinAddr: 0x10002C52C, symSize: 0x28 }
  - { offsetInCU: 0x9828F, offset: 0x9828F, size: 0x8, addend: 0x0, symName: __ZNK5Eigen5SolveINS_12PartialPivLUINS_6MatrixIdLin1ELin1ELi0ELin1ELin1EEEEENS_14CwiseNullaryOpINS_8internal18scalar_identity_opIdEES3_EEE4colsEv, symObjAddr: 0x29338, symBinAddr: 0x10002C554, symSize: 0x38 }
  - { offsetInCU: 0x982B5, offset: 0x982B5, size: 0x8, addend: 0x0, symName: __ZNK5Eigen5SolveINS_12PartialPivLUINS_6MatrixIdLin1ELin1ELi0ELin1ELin1EEEEENS_14CwiseNullaryOpINS_8internal18scalar_identity_opIdEES3_EEE3decEv, symObjAddr: 0x29370, symBinAddr: 0x10002C58C, symSize: 0x18 }
  - { offsetInCU: 0x982DB, offset: 0x982DB, size: 0x8, addend: 0x0, symName: __ZNK5Eigen12PartialPivLUINS_6MatrixIdLin1ELin1ELi0ELin1ELin1EEEE11_solve_implINS_14CwiseNullaryOpINS_8internal18scalar_identity_opIdEES2_EES2_EEvRKT_RT0_, symObjAddr: 0x29388, symBinAddr: 0x10002C5A4, symSize: 0x84 }
  - { offsetInCU: 0x9832F, offset: 0x9832F, size: 0x8, addend: 0x0, symName: __ZNK5Eigen5SolveINS_12PartialPivLUINS_6MatrixIdLin1ELin1ELi0ELin1ELin1EEEEENS_14CwiseNullaryOpINS_8internal18scalar_identity_opIdEES3_EEE3rhsEv, symObjAddr: 0x2940C, symBinAddr: 0x10002C628, symSize: 0x18 }
  - { offsetInCU: 0x98355, offset: 0x98355, size: 0x8, addend: 0x0, symName: __ZNK5Eigen14CwiseNullaryOpINS_8internal18scalar_identity_opIdEENS_6MatrixIdLin1ELin1ELi0ELin1ELin1EEEE4colsEv, symObjAddr: 0x29424, symBinAddr: 0x10002C640, symSize: 0x28 }
  - { offsetInCU: 0x9837B, offset: 0x9837B, size: 0x8, addend: 0x0, symName: __ZNK5Eigen12PartialPivLUINS_6MatrixIdLin1ELin1ELi0ELin1ELin1EEEE12permutationPEv, symObjAddr: 0x29498, symBinAddr: 0x10002C6B4, symSize: 0x7C }
  - { offsetInCU: 0x983A1, offset: 0x983A1, size: 0x8, addend: 0x0, symName: __ZN5Eigen6MatrixIdLin1ELin1ELi0ELin1ELin1EEaSINS_7ProductINS_17PermutationMatrixILin1ELin1EiEENS_14CwiseNullaryOpINS_8internal18scalar_identity_opIdEES1_EELi2EEEEERS1_RKNS_9DenseBaseIT_EE, symObjAddr: 0x29514, symBinAddr: 0x10002C730, symSize: 0x2C }
  - { offsetInCU: 0x983DE, offset: 0x983DE, size: 0x8, addend: 0x0, symName: __ZNK5Eigen10MatrixBaseINS_6MatrixIdLin1ELin1ELi0ELin1ELin1EEEE14triangularViewILj5EEENS3_29ConstTriangularViewReturnTypeIXT_EE4TypeEv, symObjAddr: 0x29540, symBinAddr: 0x10002C75C, symSize: 0x34 }
  - { offsetInCU: 0x98411, offset: 0x98411, size: 0x8, addend: 0x0, symName: __ZNK5Eigen18TriangularViewImplIKNS_6MatrixIdLin1ELin1ELi0ELin1ELin1EEELj5ENS_5DenseEE12solveInPlaceIS2_EEvRKNS_10MatrixBaseIT_EE, symObjAddr: 0x29574, symBinAddr: 0x10002C790, symSize: 0x2C }
  - { offsetInCU: 0x9844F, offset: 0x9844F, size: 0x8, addend: 0x0, symName: __ZNK5Eigen10MatrixBaseINS_6MatrixIdLin1ELin1ELi0ELin1ELin1EEEE14triangularViewILj2EEENS3_29ConstTriangularViewReturnTypeIXT_EE4TypeEv, symObjAddr: 0x295A0, symBinAddr: 0x10002C7BC, symSize: 0x34 }
  - { offsetInCU: 0x98482, offset: 0x98482, size: 0x8, addend: 0x0, symName: __ZNK5Eigen18TriangularViewImplIKNS_6MatrixIdLin1ELin1ELi0ELin1ELin1EEELj2ENS_5DenseEE12solveInPlaceIS2_EEvRKNS_10MatrixBaseIT_EE, symObjAddr: 0x295D4, symBinAddr: 0x10002C7F0, symSize: 0x2C }
  - { offsetInCU: 0x984C0, offset: 0x984C0, size: 0x8, addend: 0x0, symName: __ZN5Eigen7ProductINS_17PermutationMatrixILin1ELin1EiEENS_14CwiseNullaryOpINS_8internal18scalar_identity_opIdEENS_6MatrixIdLin1ELin1ELi0ELin1ELin1EEEEELi2EEC1ERKS2_RKS9_, symObjAddr: 0x29600, symBinAddr: 0x10002C81C, symSize: 0x3C }
  - { offsetInCU: 0x98506, offset: 0x98506, size: 0x8, addend: 0x0, symName: __ZN5Eigen7ProductINS_17PermutationMatrixILin1ELin1EiEENS_14CwiseNullaryOpINS_8internal18scalar_identity_opIdEENS_6MatrixIdLin1ELin1ELi0ELin1ELin1EEEEELi2EEC2ERKS2_RKS9_, symObjAddr: 0x2963C, symBinAddr: 0x10002C858, symSize: 0xC4 }
  - { offsetInCU: 0x98551, offset: 0x98551, size: 0x8, addend: 0x0, symName: __ZN5Eigen11ProductImplINS_17PermutationMatrixILin1ELin1EiEENS_14CwiseNullaryOpINS_8internal18scalar_identity_opIdEENS_6MatrixIdLin1ELin1ELi0ELin1ELin1EEEEELi2ENS_5DenseEEC2Ev, symObjAddr: 0x29700, symBinAddr: 0x10002C91C, symSize: 0x2C }
  - { offsetInCU: 0x9857D, offset: 0x9857D, size: 0x8, addend: 0x0, symName: __ZN5Eigen14CwiseNullaryOpINS_8internal18scalar_identity_opIdEENS_6MatrixIdLin1ELin1ELi0ELin1ELin1EEEEC1ERKS6_, symObjAddr: 0x2972C, symBinAddr: 0x10002C948, symSize: 0x34 }
  - { offsetInCU: 0x985B2, offset: 0x985B2, size: 0x8, addend: 0x0, symName: __ZNK5Eigen15PermutationBaseINS_17PermutationMatrixILin1ELin1EiEEE4colsEv, symObjAddr: 0x29760, symBinAddr: 0x10002C97C, symSize: 0x28 }
  - { offsetInCU: 0x985DD, offset: 0x985DD, size: 0x8, addend: 0x0, symName: __ZN5Eigen8internal18dense_product_baseINS_17PermutationMatrixILin1ELin1EiEENS_14CwiseNullaryOpINS0_18scalar_identity_opIdEENS_6MatrixIdLin1ELin1ELi0ELin1ELin1EEEEELi2ELi8EEC2Ev, symObjAddr: 0x29788, symBinAddr: 0x10002C9A4, symSize: 0x2C }
  - { offsetInCU: 0x98609, offset: 0x98609, size: 0x8, addend: 0x0, symName: __ZN5Eigen10MatrixBaseINS_7ProductINS_17PermutationMatrixILin1ELin1EiEENS_14CwiseNullaryOpINS_8internal18scalar_identity_opIdEENS_6MatrixIdLin1ELin1ELi0ELin1ELin1EEEEELi2EEEEC2Ev, symObjAddr: 0x297B4, symBinAddr: 0x10002C9D0, symSize: 0x2C }
  - { offsetInCU: 0x98633, offset: 0x98633, size: 0x8, addend: 0x0, symName: __ZN5Eigen9DenseBaseINS_7ProductINS_17PermutationMatrixILin1ELin1EiEENS_14CwiseNullaryOpINS_8internal18scalar_identity_opIdEENS_6MatrixIdLin1ELin1ELi0ELin1ELin1EEEEELi2EEEEC2Ev, symObjAddr: 0x297E0, symBinAddr: 0x10002C9FC, symSize: 0x14 }
  - { offsetInCU: 0x9865D, offset: 0x9865D, size: 0x8, addend: 0x0, symName: __ZN5Eigen14CwiseNullaryOpINS_8internal18scalar_identity_opIdEENS_6MatrixIdLin1ELin1ELi0ELin1ELin1EEEEC2ERKS6_, symObjAddr: 0x297F4, symBinAddr: 0x10002CA10, symSize: 0x48 }
  - { offsetInCU: 0x98692, offset: 0x98692, size: 0x8, addend: 0x0, symName: __ZN5Eigen15PlainObjectBaseINS_6MatrixIdLin1ELin1ELi0ELin1ELin1EEEE4_setINS_7ProductINS_17PermutationMatrixILin1ELin1EiEENS_14CwiseNullaryOpINS_8internal18scalar_identity_opIdEES2_EELi2EEEEERS2_RKNS_9DenseBaseIT_EE, symObjAddr: 0x2983C, symBinAddr: 0x10002CA58, symSize: 0x4C }
  - { offsetInCU: 0x986D0, offset: 0x986D0, size: 0x8, addend: 0x0, symName: __ZNK5Eigen9EigenBaseINS_7ProductINS_17PermutationMatrixILin1ELin1EiEENS_14CwiseNullaryOpINS_8internal18scalar_identity_opIdEENS_6MatrixIdLin1ELin1ELi0ELin1ELin1EEEEELi2EEEE7derivedEv, symObjAddr: 0x298D8, symBinAddr: 0x10002CAF4, symSize: 0x14 }
  - { offsetInCU: 0x98700, offset: 0x98700, size: 0x8, addend: 0x0, symName: __ZN5Eigen8internal10AssignmentINS_6MatrixIdLin1ELin1ELi0ELin1ELin1EEENS_7ProductINS_17PermutationMatrixILin1ELin1EiEENS_14CwiseNullaryOpINS0_18scalar_identity_opIdEES3_EELi2EEENS0_9assign_opIddEENS0_11Dense2DenseEvE3runERS3_RKSB_RKSD_, symObjAddr: 0x29960, symBinAddr: 0x10002CB7C, symSize: 0xB4 }
  - { offsetInCU: 0x98758, offset: 0x98758, size: 0x8, addend: 0x0, symName: __ZNK5Eigen7ProductINS_17PermutationMatrixILin1ELin1EiEENS_14CwiseNullaryOpINS_8internal18scalar_identity_opIdEENS_6MatrixIdLin1ELin1ELi0ELin1ELin1EEEEELi2EE4rowsEv, symObjAddr: 0x29A14, symBinAddr: 0x10002CC30, symSize: 0x38 }
  - { offsetInCU: 0x9877E, offset: 0x9877E, size: 0x8, addend: 0x0, symName: __ZNK5Eigen7ProductINS_17PermutationMatrixILin1ELin1EiEENS_14CwiseNullaryOpINS_8internal18scalar_identity_opIdEENS_6MatrixIdLin1ELin1ELi0ELin1ELin1EEEEELi2EE4colsEv, symObjAddr: 0x29A4C, symBinAddr: 0x10002CC68, symSize: 0x28 }
  - { offsetInCU: 0x987A4, offset: 0x987A4, size: 0x8, addend: 0x0, symName: __ZN5Eigen8internal20generic_product_implINS_17PermutationMatrixILin1ELin1EiEENS_14CwiseNullaryOpINS0_18scalar_identity_opIdEENS_6MatrixIdLin1ELin1ELi0ELin1ELin1EEEEENS_16PermutationShapeENS_10DenseShapeELi8EE6evalToIS8_EEvRT_RKS3_RKS9_, symObjAddr: 0x29A74, symBinAddr: 0x10002CC90, symSize: 0x34 }
  - { offsetInCU: 0x987EF, offset: 0x987EF, size: 0x8, addend: 0x0, symName: __ZNK5Eigen7ProductINS_17PermutationMatrixILin1ELin1EiEENS_14CwiseNullaryOpINS_8internal18scalar_identity_opIdEENS_6MatrixIdLin1ELin1ELi0ELin1ELin1EEEEELi2EE3lhsEv, symObjAddr: 0x29AA8, symBinAddr: 0x10002CCC4, symSize: 0x18 }
  - { offsetInCU: 0x98815, offset: 0x98815, size: 0x8, addend: 0x0, symName: __ZNK5Eigen7ProductINS_17PermutationMatrixILin1ELin1EiEENS_14CwiseNullaryOpINS_8internal18scalar_identity_opIdEENS_6MatrixIdLin1ELin1ELi0ELin1ELin1EEEEELi2EE3rhsEv, symObjAddr: 0x29AC0, symBinAddr: 0x10002CCDC, symSize: 0x18 }
  - { offsetInCU: 0x9883B, offset: 0x9883B, size: 0x8, addend: 0x0, symName: __ZNK5Eigen15PermutationBaseINS_17PermutationMatrixILin1ELin1EiEEE4rowsEv, symObjAddr: 0x29AD8, symBinAddr: 0x10002CCF4, symSize: 0x28 }
  - { offsetInCU: 0x98861, offset: 0x98861, size: 0x8, addend: 0x0, symName: __ZN5Eigen8internal26permutation_matrix_productINS_14CwiseNullaryOpINS0_18scalar_identity_opIdEENS_6MatrixIdLin1ELin1ELi0ELin1ELin1EEEEELi1ELb0ENS_10DenseShapeEE3runIS6_NS_17PermutationMatrixILin1ELin1EiEEEEvRT_RKT0_RKS7_, symObjAddr: 0x29B00, symBinAddr: 0x10002CD1C, symSize: 0x330 }
  - { offsetInCU: 0x9895C, offset: 0x9895C, size: 0x8, addend: 0x0, symName: __ZN5Eigen6MatrixIbLin1ELi1ELi0ELin1ELi1EEC1IlEERKT_, symObjAddr: 0x29E50, symBinAddr: 0x10002D06C, symSize: 0x34 }
  - { offsetInCU: 0x9899E, offset: 0x9899E, size: 0x8, addend: 0x0, symName: __ZN5Eigen9DenseBaseINS_6MatrixIbLin1ELi1ELi0ELin1ELi1EEEE4fillERKb, symObjAddr: 0x29E84, symBinAddr: 0x10002D0A0, symSize: 0x2C }
  - { offsetInCU: 0x989D6, offset: 0x989D6, size: 0x8, addend: 0x0, symName: __ZN5Eigen15DenseCoeffsBaseINS_6MatrixIbLin1ELi1ELi0ELin1ELi1EEELi1EEixEl, symObjAddr: 0x29EB0, symBinAddr: 0x10002D0CC, symSize: 0xA4 }
  - { offsetInCU: 0x98A0B, offset: 0x98A0B, size: 0x8, addend: 0x0, symName: __ZN5Eigen15PlainObjectBaseINS_6MatrixIbLin1ELi1ELi0ELin1ELi1EEEE8coeffRefEl, symObjAddr: 0x29F54, symBinAddr: 0x10002D170, symSize: 0x30 }
  - { offsetInCU: 0x98A3F, offset: 0x98A3F, size: 0x8, addend: 0x0, symName: __ZN5Eigen5BlockINS_6MatrixIdLin1ELin1ELi0ELin1ELin1EEELi1ELin1ELb0EEC1ERS2_l, symObjAddr: 0x29F84, symBinAddr: 0x10002D1A0, symSize: 0x3C }
  - { offsetInCU: 0x98A85, offset: 0x98A85, size: 0x8, addend: 0x0, symName: __ZN5Eigen9DenseBaseINS_5BlockINS_6MatrixIdLin1ELin1ELi0ELin1ELin1EEELi1ELin1ELb0EEEE4swapIS4_EEvRKNS0_IT_EE, symObjAddr: 0x29FC0, symBinAddr: 0x10002D1DC, symSize: 0xEC }
  - { offsetInCU: 0x98AC3, offset: 0x98AC3, size: 0x8, addend: 0x0, symName: __ZN5Eigen6MatrixIbLin1ELi1ELi0ELin1ELi1EED1Ev, symObjAddr: 0x2A0AC, symBinAddr: 0x10002D2C8, symSize: 0x2C }
  - { offsetInCU: 0x98AEF, offset: 0x98AEF, size: 0x8, addend: 0x0, symName: __ZN5Eigen5BlockIKNS_14CwiseNullaryOpINS_8internal18scalar_identity_opIdEENS_6MatrixIdLin1ELin1ELi0ELin1ELin1EEEEELi1ELin1ELb0EEC1ERS8_l, symObjAddr: 0x2A0D8, symBinAddr: 0x10002D2F4, symSize: 0x3C }
  - { offsetInCU: 0x98B35, offset: 0x98B35, size: 0x8, addend: 0x0, symName: __ZN5Eigen5BlockINS_6MatrixIdLin1ELin1ELi0ELin1ELin1EEELi1ELin1ELb0EEaSINS0_IKNS_14CwiseNullaryOpINS_8internal18scalar_identity_opIdEES2_EELi1ELin1ELb0EEEEERS3_RKNS_9DenseBaseIT_EE, symObjAddr: 0x2A114, symBinAddr: 0x10002D330, symSize: 0x40 }
  - { offsetInCU: 0x98B72, offset: 0x98B72, size: 0x8, addend: 0x0, symName: __ZN5Eigen6MatrixIbLin1ELi1ELi0ELin1ELi1EEC2IlEERKT_, symObjAddr: 0x2A154, symBinAddr: 0x10002D370, symSize: 0x74 }
  - { offsetInCU: 0x98BB4, offset: 0x98BB4, size: 0x8, addend: 0x0, symName: __ZN5Eigen15PlainObjectBaseINS_6MatrixIbLin1ELi1ELi0ELin1ELi1EEEEC2Ev, symObjAddr: 0x2A1C8, symBinAddr: 0x10002D3E4, symSize: 0x34 }
  - { offsetInCU: 0x98BDE, offset: 0x98BDE, size: 0x8, addend: 0x0, symName: __ZN5Eigen15PlainObjectBaseINS_6MatrixIbLin1ELi1ELi0ELin1ELi1EEEE22_check_template_paramsEv, symObjAddr: 0x2A1FC, symBinAddr: 0x10002D418, symSize: 0x4 }
  - { offsetInCU: 0x98BF2, offset: 0x98BF2, size: 0x8, addend: 0x0, symName: __ZN5Eigen15PlainObjectBaseINS_6MatrixIbLin1ELi1ELi0ELin1ELi1EEEE6_init1IlEEvlPNS_8internal9enable_ifIXaaooneLNS_9DenseBaseIS2_EUt_En1ELi1Entsr8internal14is_convertibleIT_bEE5valueoontLNS5_7is_sameINS_9MatrixXprENS_8ArrayXprEEUt_E0EeqLS9_n1EL_ZNS_L7DynamicEEESA_E4typeE, symObjAddr: 0x2A200, symBinAddr: 0x10002D41C, symSize: 0x48 }
  - { offsetInCU: 0x98C4A, offset: 0x98C4A, size: 0x8, addend: 0x0, symName: __ZN5Eigen15PlainObjectBaseINS_6MatrixIbLin1ELi1ELi0ELin1ELi1EEEED2Ev, symObjAddr: 0x2A248, symBinAddr: 0x10002D464, symSize: 0x2C }
  - { offsetInCU: 0x98C76, offset: 0x98C76, size: 0x8, addend: 0x0, symName: __ZN5Eigen10MatrixBaseINS_6MatrixIbLin1ELi1ELi0ELin1ELi1EEEEC2Ev, symObjAddr: 0x2A274, symBinAddr: 0x10002D490, symSize: 0x2C }
  - { offsetInCU: 0x98CA0, offset: 0x98CA0, size: 0x8, addend: 0x0, symName: __ZN5Eigen12DenseStorageIbLin1ELin1ELi1ELi0EEC1Ev, symObjAddr: 0x2A2A0, symBinAddr: 0x10002D4BC, symSize: 0x2C }
  - { offsetInCU: 0x98CCA, offset: 0x98CCA, size: 0x8, addend: 0x0, symName: __ZN5Eigen9DenseBaseINS_6MatrixIbLin1ELi1ELi0ELin1ELi1EEEEC2Ev, symObjAddr: 0x2A2CC, symBinAddr: 0x10002D4E8, symSize: 0x14 }
  - { offsetInCU: 0x98CF4, offset: 0x98CF4, size: 0x8, addend: 0x0, symName: __ZN5Eigen12DenseStorageIbLin1ELin1ELi1ELi0EEC2Ev, symObjAddr: 0x2A2E0, symBinAddr: 0x10002D4FC, symSize: 0x1C }
  - { offsetInCU: 0x98D1E, offset: 0x98D1E, size: 0x8, addend: 0x0, symName: __ZN5Eigen15PlainObjectBaseINS_6MatrixIbLin1ELi1ELi0ELin1ELi1EEEE6resizeEl, symObjAddr: 0x2A2FC, symBinAddr: 0x10002D518, symSize: 0x74 }
  - { offsetInCU: 0x98D53, offset: 0x98D53, size: 0x8, addend: 0x0, symName: __ZN5Eigen12DenseStorageIbLin1ELin1ELi1ELi0EE6resizeElll, symObjAddr: 0x2A370, symBinAddr: 0x10002D58C, symSize: 0xA4 }
  - { offsetInCU: 0x98DA2, offset: 0x98DA2, size: 0x8, addend: 0x0, symName: __ZN5Eigen12DenseStorageIbLin1ELin1ELi1ELi0EED1Ev, symObjAddr: 0x2A4A0, symBinAddr: 0x10002D6BC, symSize: 0x2C }
  - { offsetInCU: 0x98DCC, offset: 0x98DCC, size: 0x8, addend: 0x0, symName: __ZN5Eigen12DenseStorageIbLin1ELin1ELi1ELi0EED2Ev, symObjAddr: 0x2A4CC, symBinAddr: 0x10002D6E8, symSize: 0x44 }
  - { offsetInCU: 0x98DF6, offset: 0x98DF6, size: 0x8, addend: 0x0, symName: __ZN5Eigen9DenseBaseINS_6MatrixIbLin1ELi1ELi0ELin1ELi1EEEE11setConstantERKb, symObjAddr: 0x2A510, symBinAddr: 0x10002D72C, symSize: 0x64 }
  - { offsetInCU: 0x98E2E, offset: 0x98E2E, size: 0x8, addend: 0x0, symName: __ZN5Eigen9DenseBaseINS_6MatrixIbLin1ELi1ELi0ELin1ELi1EEEE8ConstantEllRKb, symObjAddr: 0x2A574, symBinAddr: 0x10002D790, symSize: 0x60 }
  - { offsetInCU: 0x98E72, offset: 0x98E72, size: 0x8, addend: 0x0, symName: __ZNK5Eigen9EigenBaseINS_6MatrixIbLin1ELi1ELi0ELin1ELi1EEEE4rowsEv, symObjAddr: 0x2A5D4, symBinAddr: 0x10002D7F0, symSize: 0x38 }
  - { offsetInCU: 0x98E98, offset: 0x98E98, size: 0x8, addend: 0x0, symName: __ZNK5Eigen9EigenBaseINS_6MatrixIbLin1ELi1ELi0ELin1ELi1EEEE4colsEv, symObjAddr: 0x2A60C, symBinAddr: 0x10002D828, symSize: 0x28 }
  - { offsetInCU: 0x98EBE, offset: 0x98EBE, size: 0x8, addend: 0x0, symName: __ZN5Eigen9EigenBaseINS_6MatrixIbLin1ELi1ELi0ELin1ELi1EEEE7derivedEv, symObjAddr: 0x2A634, symBinAddr: 0x10002D850, symSize: 0x14 }
  - { offsetInCU: 0x98EE4, offset: 0x98EE4, size: 0x8, addend: 0x0, symName: __ZN5Eigen6MatrixIbLin1ELi1ELi0ELin1ELi1EEaSINS_14CwiseNullaryOpINS_8internal18scalar_constant_opIbEES1_EEEERS1_RKNS_9DenseBaseIT_EE, symObjAddr: 0x2A648, symBinAddr: 0x10002D864, symSize: 0x2C }
  - { offsetInCU: 0x98F21, offset: 0x98F21, size: 0x8, addend: 0x0, symName: __ZN5Eigen9DenseBaseINS_6MatrixIbLin1ELi1ELi0ELin1ELi1EEEE11NullaryExprINS_8internal18scalar_constant_opIbEEEEKNS_14CwiseNullaryOpIT_S2_EEllRKS9_, symObjAddr: 0x2A674, symBinAddr: 0x10002D890, symSize: 0x48 }
  - { offsetInCU: 0x98F6E, offset: 0x98F6E, size: 0x8, addend: 0x0, symName: __ZN5Eigen8internal18scalar_constant_opIbEC1ERKb, symObjAddr: 0x2A6BC, symBinAddr: 0x10002D8D8, symSize: 0x34 }
  - { offsetInCU: 0x98FA6, offset: 0x98FA6, size: 0x8, addend: 0x0, symName: __ZN5Eigen14CwiseNullaryOpINS_8internal18scalar_constant_opIbEENS_6MatrixIbLin1ELi1ELi0ELin1ELi1EEEEC1EllRKS3_, symObjAddr: 0x2A6F0, symBinAddr: 0x10002D90C, symSize: 0x44 }
  - { offsetInCU: 0x98FFA, offset: 0x98FFA, size: 0x8, addend: 0x0, symName: __ZN5Eigen14CwiseNullaryOpINS_8internal18scalar_constant_opIbEENS_6MatrixIbLin1ELi1ELi0ELin1ELi1EEEEC2EllRKS3_, symObjAddr: 0x2A734, symBinAddr: 0x10002D950, symSize: 0xE8 }
  - { offsetInCU: 0x9904E, offset: 0x9904E, size: 0x8, addend: 0x0, symName: __ZN5Eigen10MatrixBaseINS_14CwiseNullaryOpINS_8internal18scalar_constant_opIbEENS_6MatrixIbLin1ELi1ELi0ELin1ELi1EEEEEEC2Ev, symObjAddr: 0x2A81C, symBinAddr: 0x10002DA38, symSize: 0x2C }
  - { offsetInCU: 0x99078, offset: 0x99078, size: 0x8, addend: 0x0, symName: __ZN5Eigen8internal18scalar_constant_opIbEC1ERKS2_, symObjAddr: 0x2A848, symBinAddr: 0x10002DA64, symSize: 0x34 }
  - { offsetInCU: 0x990B0, offset: 0x990B0, size: 0x8, addend: 0x0, symName: __ZN5Eigen9DenseBaseINS_14CwiseNullaryOpINS_8internal18scalar_constant_opIbEENS_6MatrixIbLin1ELi1ELi0ELin1ELi1EEEEEEC2Ev, symObjAddr: 0x2A87C, symBinAddr: 0x10002DA98, symSize: 0x14 }
  - { offsetInCU: 0x990DA, offset: 0x990DA, size: 0x8, addend: 0x0, symName: __ZN5Eigen8internal18scalar_constant_opIbEC2ERKS2_, symObjAddr: 0x2A890, symBinAddr: 0x10002DAAC, symSize: 0x28 }
  - { offsetInCU: 0x99112, offset: 0x99112, size: 0x8, addend: 0x0, symName: __ZN5Eigen8internal18scalar_constant_opIbEC2ERKb, symObjAddr: 0x2A8B8, symBinAddr: 0x10002DAD4, symSize: 0x28 }
  - { offsetInCU: 0x9914A, offset: 0x9914A, size: 0x8, addend: 0x0, symName: __ZNK5Eigen9EigenBaseINS_6MatrixIbLin1ELi1ELi0ELin1ELi1EEEE7derivedEv, symObjAddr: 0x2A8E0, symBinAddr: 0x10002DAFC, symSize: 0x14 }
  - { offsetInCU: 0x99170, offset: 0x99170, size: 0x8, addend: 0x0, symName: __ZNK5Eigen15PlainObjectBaseINS_6MatrixIbLin1ELi1ELi0ELin1ELi1EEEE4rowsEv, symObjAddr: 0x2A8F4, symBinAddr: 0x10002DB10, symSize: 0x24 }
  - { offsetInCU: 0x99196, offset: 0x99196, size: 0x8, addend: 0x0, symName: __ZNK5Eigen12DenseStorageIbLin1ELin1ELi1ELi0EE4rowsEv, symObjAddr: 0x2A918, symBinAddr: 0x10002DB34, symSize: 0x18 }
  - { offsetInCU: 0x991BC, offset: 0x991BC, size: 0x8, addend: 0x0, symName: __ZNK5Eigen15PlainObjectBaseINS_6MatrixIbLin1ELi1ELi0ELin1ELi1EEEE4colsEv, symObjAddr: 0x2A930, symBinAddr: 0x10002DB4C, symSize: 0x30 }
  - { offsetInCU: 0x991E2, offset: 0x991E2, size: 0x8, addend: 0x0, symName: __ZN5Eigen12DenseStorageIbLin1ELin1ELi1ELi0EE4colsEv, symObjAddr: 0x2A960, symBinAddr: 0x10002DB7C, symSize: 0x8 }
  - { offsetInCU: 0x991F6, offset: 0x991F6, size: 0x8, addend: 0x0, symName: __ZN5Eigen15PlainObjectBaseINS_6MatrixIbLin1ELi1ELi0ELin1ELi1EEEE4_setINS_14CwiseNullaryOpINS_8internal18scalar_constant_opIbEES2_EEEERS2_RKNS_9DenseBaseIT_EE, symObjAddr: 0x2A968, symBinAddr: 0x10002DB84, symSize: 0x4C }
  - { offsetInCU: 0x99234, offset: 0x99234, size: 0x8, addend: 0x0, symName: __ZNK5Eigen9EigenBaseINS_14CwiseNullaryOpINS_8internal18scalar_constant_opIbEENS_6MatrixIbLin1ELi1ELi0ELin1ELi1EEEEEE7derivedEv, symObjAddr: 0x2AA04, symBinAddr: 0x10002DC20, symSize: 0x14 }
  - { offsetInCU: 0x99273, offset: 0x99273, size: 0x8, addend: 0x0, symName: __ZN5Eigen8internal9assign_opIbbEC1Ev, symObjAddr: 0x2AA50, symBinAddr: 0x10002DC6C, symSize: 0x2C }
  - { offsetInCU: 0x9929D, offset: 0x9929D, size: 0x8, addend: 0x0, symName: __ZN5Eigen8internal10AssignmentINS_6MatrixIbLin1ELi1ELi0ELin1ELi1EEENS_14CwiseNullaryOpINS0_18scalar_constant_opIbEES3_EENS0_9assign_opIbbEENS0_11Dense2DenseEvE3runERS3_RKS7_RKS9_, symObjAddr: 0x2AAB8, symBinAddr: 0x10002DCD4, symSize: 0x40 }
  - { offsetInCU: 0x992DF, offset: 0x992DF, size: 0x8, addend: 0x0, symName: __ZN5Eigen15PlainObjectBaseINS_6MatrixIbLin1ELi1ELi0ELin1ELi1EEEE4dataEv, symObjAddr: 0x2ACBC, symBinAddr: 0x10002DED8, symSize: 0x24 }
  - { offsetInCU: 0x99305, offset: 0x99305, size: 0x8, addend: 0x0, symName: __ZNK5Eigen9EigenBaseINS_6MatrixIbLin1ELi1ELi0ELin1ELi1EEEE4sizeEv, symObjAddr: 0x2ACE0, symBinAddr: 0x10002DEFC, symSize: 0x44 }
  - { offsetInCU: 0x9932B, offset: 0x9932B, size: 0x8, addend: 0x0, symName: __ZNK5Eigen14CwiseNullaryOpINS_8internal18scalar_constant_opIbEENS_6MatrixIbLin1ELi1ELi0ELin1ELi1EEEE7functorEv, symObjAddr: 0x2AD24, symBinAddr: 0x10002DF40, symSize: 0x18 }
  - { offsetInCU: 0x99351, offset: 0x99351, size: 0x8, addend: 0x0, symName: __ZNK5Eigen8internal18scalar_constant_opIbEclEv, symObjAddr: 0x2AD3C, symBinAddr: 0x10002DF58, symSize: 0x1C }
  - { offsetInCU: 0x99377, offset: 0x99377, size: 0x8, addend: 0x0, symName: __ZNK5Eigen14CwiseNullaryOpINS_8internal18scalar_constant_opIbEENS_6MatrixIbLin1ELi1ELi0ELin1ELi1EEEE4rowsEv, symObjAddr: 0x2AD58, symBinAddr: 0x10002DF74, symSize: 0x24 }
  - { offsetInCU: 0x9939D, offset: 0x9939D, size: 0x8, addend: 0x0, symName: __ZNK5Eigen14CwiseNullaryOpINS_8internal18scalar_constant_opIbEENS_6MatrixIbLin1ELi1ELi0ELin1ELi1EEEE4colsEv, symObjAddr: 0x2AD7C, symBinAddr: 0x10002DF98, symSize: 0x20 }
  - { offsetInCU: 0x993C3, offset: 0x993C3, size: 0x8, addend: 0x0, symName: __ZN5Eigen15PlainObjectBaseINS_6MatrixIbLin1ELi1ELi0ELin1ELi1EEEE6resizeEll, symObjAddr: 0x2AD9C, symBinAddr: 0x10002DFB8, symSize: 0x168 }
  - { offsetInCU: 0x9943F, offset: 0x9943F, size: 0x8, addend: 0x0, symName: __ZN5Eigen12DenseStorageIbLin1ELin1ELi1ELi0EE4dataEv, symObjAddr: 0x2AF80, symBinAddr: 0x10002E19C, symSize: 0x18 }
  - { offsetInCU: 0x99465, offset: 0x99465, size: 0x8, addend: 0x0, symName: __ZN5Eigen8internal9assign_opIbbEC2Ev, symObjAddr: 0x2AF98, symBinAddr: 0x10002E1B4, symSize: 0x14 }
  - { offsetInCU: 0x9948F, offset: 0x9948F, size: 0x8, addend: 0x0, symName: __ZN5Eigen15DenseCoeffsBaseINS_6MatrixIbLin1ELi1ELi0ELin1ELi1EEELi1EE8coeffRefEl, symObjAddr: 0x2AFAC, symBinAddr: 0x10002E1C8, symSize: 0x78 }
  - { offsetInCU: 0x994C4, offset: 0x994C4, size: 0x8, addend: 0x0, symName: __ZN5Eigen8internal9evaluatorINS_6MatrixIbLin1ELi1ELi0ELin1ELi1EEEEC1ERKS3_, symObjAddr: 0x2B024, symBinAddr: 0x10002E240, symSize: 0x34 }
  - { offsetInCU: 0x994FD, offset: 0x994FD, size: 0x8, addend: 0x0, symName: __ZN5Eigen8internal9evaluatorINS_15PlainObjectBaseINS_6MatrixIbLin1ELi1ELi0ELin1ELi1EEEEEE8coeffRefEl, symObjAddr: 0x2B058, symBinAddr: 0x10002E274, symSize: 0x24 }
  - { offsetInCU: 0x99531, offset: 0x99531, size: 0x8, addend: 0x0, symName: __ZN5Eigen8internal9evaluatorINS_6MatrixIbLin1ELi1ELi0ELin1ELi1EEEED1Ev, symObjAddr: 0x2B07C, symBinAddr: 0x10002E298, symSize: 0x2C }
  - { offsetInCU: 0x9955E, offset: 0x9955E, size: 0x8, addend: 0x0, symName: __ZN5Eigen8internal9evaluatorINS_6MatrixIbLin1ELi1ELi0ELin1ELi1EEEEC2ERKS3_, symObjAddr: 0x2B0A8, symBinAddr: 0x10002E2C4, symSize: 0x34 }
  - { offsetInCU: 0x99597, offset: 0x99597, size: 0x8, addend: 0x0, symName: __ZN5Eigen8internal9evaluatorINS_15PlainObjectBaseINS_6MatrixIbLin1ELi1ELi0ELin1ELi1EEEEEEC2ERKS5_, symObjAddr: 0x2B0DC, symBinAddr: 0x10002E2F8, symSize: 0x78 }
  - { offsetInCU: 0x995CF, offset: 0x995CF, size: 0x8, addend: 0x0, symName: __ZN5Eigen8internal14evaluator_baseINS_6MatrixIbLin1ELi1ELi0ELin1ELi1EEEEC2Ev, symObjAddr: 0x2B154, symBinAddr: 0x10002E370, symSize: 0x14 }
  - { offsetInCU: 0x995F9, offset: 0x995F9, size: 0x8, addend: 0x0, symName: __ZNK5Eigen15PlainObjectBaseINS_6MatrixIbLin1ELi1ELi0ELin1ELi1EEEE4dataEv, symObjAddr: 0x2B168, symBinAddr: 0x10002E384, symSize: 0x24 }
  - { offsetInCU: 0x9961F, offset: 0x9961F, size: 0x8, addend: 0x0, symName: __ZN5Eigen8internal30plainobjectbase_evaluator_dataIbLi0EEC1EPKbl, symObjAddr: 0x2B18C, symBinAddr: 0x10002E3A8, symSize: 0x3C }
  - { offsetInCU: 0x99665, offset: 0x99665, size: 0x8, addend: 0x0, symName: __ZN5Eigen8internal14evaluator_baseINS_6MatrixIbLin1ELi1ELi0ELin1ELi1EEEED2Ev, symObjAddr: 0x2B1C8, symBinAddr: 0x10002E3E4, symSize: 0x14 }
  - { offsetInCU: 0x9968F, offset: 0x9968F, size: 0x8, addend: 0x0, symName: __ZNK5Eigen12DenseStorageIbLin1ELin1ELi1ELi0EE4dataEv, symObjAddr: 0x2B1DC, symBinAddr: 0x10002E3F8, symSize: 0x18 }
  - { offsetInCU: 0x996B5, offset: 0x996B5, size: 0x8, addend: 0x0, symName: __ZN5Eigen8internal30plainobjectbase_evaluator_dataIbLi0EEC2EPKbl, symObjAddr: 0x2B1F4, symBinAddr: 0x10002E410, symSize: 0x40 }
  - { offsetInCU: 0x996FB, offset: 0x996FB, size: 0x8, addend: 0x0, symName: __ZN5Eigen8internal9evaluatorINS_6MatrixIbLin1ELi1ELi0ELin1ELi1EEEED2Ev, symObjAddr: 0x2B234, symBinAddr: 0x10002E450, symSize: 0x2C }
  - { offsetInCU: 0x99728, offset: 0x99728, size: 0x8, addend: 0x0, symName: __ZN5Eigen8internal9evaluatorINS_15PlainObjectBaseINS_6MatrixIbLin1ELi1ELi0ELin1ELi1EEEEEED2Ev, symObjAddr: 0x2B260, symBinAddr: 0x10002E47C, symSize: 0x2C }
  - { offsetInCU: 0x99754, offset: 0x99754, size: 0x8, addend: 0x0, symName: __ZN5Eigen5BlockINS_6MatrixIdLin1ELin1ELi0ELin1ELin1EEELi1ELin1ELb0EEC2ERS2_l, symObjAddr: 0x2B28C, symBinAddr: 0x10002E4A8, symSize: 0xCC }
  - { offsetInCU: 0x9979A, offset: 0x9979A, size: 0x8, addend: 0x0, symName: __ZN5Eigen9BlockImplINS_6MatrixIdLin1ELin1ELi0ELin1ELin1EEELi1ELin1ELb0ENS_5DenseEEC2ERS2_l, symObjAddr: 0x2B358, symBinAddr: 0x10002E574, symSize: 0x3C }
  - { offsetInCU: 0x997E0, offset: 0x997E0, size: 0x8, addend: 0x0, symName: __ZN5Eigen8internal15BlockImpl_denseINS_6MatrixIdLin1ELin1ELi0ELin1ELin1EEELi1ELin1ELb0ELb1EEC2ERS3_l, symObjAddr: 0x2B394, symBinAddr: 0x10002E5B0, symSize: 0xAC }
  - { offsetInCU: 0x99828, offset: 0x99828, size: 0x8, addend: 0x0, symName: __ZN5Eigen15PlainObjectBaseINS_6MatrixIdLin1ELin1ELi0ELin1ELin1EEEE4dataEv, symObjAddr: 0x2B440, symBinAddr: 0x10002E65C, symSize: 0x24 }
  - { offsetInCU: 0x9984E, offset: 0x9984E, size: 0x8, addend: 0x0, symName: __ZNK5Eigen6MatrixIdLin1ELin1ELi0ELin1ELin1EE11innerStrideEv, symObjAddr: 0x2B464, symBinAddr: 0x10002E680, symSize: 0x14 }
  - { offsetInCU: 0x99874, offset: 0x99874, size: 0x8, addend: 0x0, symName: __ZN5Eigen7MapBaseINS_5BlockINS_6MatrixIdLin1ELin1ELi0ELin1ELin1EEELi1ELin1ELb0EEELi1EEC2EPdll, symObjAddr: 0x2B478, symBinAddr: 0x10002E694, symSize: 0x44 }
  - { offsetInCU: 0x998CB, offset: 0x998CB, size: 0x8, addend: 0x0, symName: __ZN5Eigen8internal15BlockImpl_denseINS_6MatrixIdLin1ELin1ELi0ELin1ELin1EEELi1ELin1ELb0ELb1EE4initEv, symObjAddr: 0x2B4BC, symBinAddr: 0x10002E6D8, symSize: 0x34 }
  - { offsetInCU: 0x998F1, offset: 0x998F1, size: 0x8, addend: 0x0, symName: __ZN5Eigen7MapBaseINS_5BlockINS_6MatrixIdLin1ELin1ELi0ELin1ELin1EEELi1ELin1ELb0EEELi0EEC2EPdll, symObjAddr: 0x2B4F0, symBinAddr: 0x10002E70C, symSize: 0x130 }
  - { offsetInCU: 0x99945, offset: 0x99945, size: 0x8, addend: 0x0, symName: __ZN5Eigen10MatrixBaseINS_5BlockINS_6MatrixIdLin1ELin1ELi0ELin1ELin1EEELi1ELin1ELb0EEEEC2Ev, symObjAddr: 0x2B620, symBinAddr: 0x10002E83C, symSize: 0x2C }
  - { offsetInCU: 0x9996F, offset: 0x9996F, size: 0x8, addend: 0x0, symName: __ZNK5Eigen7MapBaseINS_5BlockINS_6MatrixIdLin1ELin1ELi0ELin1ELin1EEELi1ELin1ELb0EEELi0EE11checkSanityIS4_EEvNS_8internal9enable_ifIXeqsr8internal6traitsIT_EE9AlignmentLi0EEPvE4typeE, symObjAddr: 0x2B64C, symBinAddr: 0x10002E868, symSize: 0x14 }
  - { offsetInCU: 0x999A9, offset: 0x999A9, size: 0x8, addend: 0x0, symName: __ZN5Eigen9DenseBaseINS_5BlockINS_6MatrixIdLin1ELin1ELi0ELin1ELin1EEELi1ELin1ELb0EEEEC2Ev, symObjAddr: 0x2B660, symBinAddr: 0x10002E87C, symSize: 0x14 }
  - { offsetInCU: 0x999D3, offset: 0x999D3, size: 0x8, addend: 0x0, symName: __ZNK5Eigen9EigenBaseINS_5BlockINS_6MatrixIdLin1ELin1ELi0ELin1ELin1EEELi1ELin1ELb0EEEE4rowsEv, symObjAddr: 0x2B674, symBinAddr: 0x10002E890, symSize: 0x38 }
  - { offsetInCU: 0x999F9, offset: 0x999F9, size: 0x8, addend: 0x0, symName: __ZNK5Eigen9EigenBaseINS_5BlockINS_6MatrixIdLin1ELin1ELi0ELin1ELin1EEELi1ELin1ELb0EEEE4colsEv, symObjAddr: 0x2B6AC, symBinAddr: 0x10002E8C8, symSize: 0x28 }
  - { offsetInCU: 0x99A1F, offset: 0x99A1F, size: 0x8, addend: 0x0, symName: __ZN5Eigen9EigenBaseINS_5BlockINS_6MatrixIdLin1ELin1ELi0ELin1ELin1EEELi1ELin1ELb0EEEE7derivedEv, symObjAddr: 0x2B70C, symBinAddr: 0x10002E928, symSize: 0x14 }
  - { offsetInCU: 0x99A45, offset: 0x99A45, size: 0x8, addend: 0x0, symName: __ZNK5Eigen9EigenBaseINS_5BlockINS_6MatrixIdLin1ELin1ELi0ELin1ELin1EEELi1ELin1ELb0EEEE18const_cast_derivedEv, symObjAddr: 0x2B720, symBinAddr: 0x10002E93C, symSize: 0x14 }
  - { offsetInCU: 0x99A6B, offset: 0x99A6B, size: 0x8, addend: 0x0, symName: __ZNK5Eigen9EigenBaseINS_5BlockINS_6MatrixIdLin1ELin1ELi0ELin1ELin1EEELi1ELin1ELb0EEEE7derivedEv, symObjAddr: 0x2B734, symBinAddr: 0x10002E950, symSize: 0x14 }
  - { offsetInCU: 0x99A91, offset: 0x99A91, size: 0x8, addend: 0x0, symName: __ZNK5Eigen7MapBaseINS_5BlockINS_6MatrixIdLin1ELin1ELi0ELin1ELin1EEELi1ELin1ELb0EEELi0EE4rowsEv, symObjAddr: 0x2B748, symBinAddr: 0x10002E964, symSize: 0x20 }
  - { offsetInCU: 0x99AB7, offset: 0x99AB7, size: 0x8, addend: 0x0, symName: __ZNK5Eigen7MapBaseINS_5BlockINS_6MatrixIdLin1ELin1ELi0ELin1ELin1EEELi1ELin1ELb0EEELi0EE4colsEv, symObjAddr: 0x2B768, symBinAddr: 0x10002E984, symSize: 0x28 }
  - { offsetInCU: 0x99ADD, offset: 0x99ADD, size: 0x8, addend: 0x0, symName: __ZN5Eigen8internal10AssignmentINS_5BlockINS_6MatrixIdLin1ELin1ELi0ELin1ELin1EEELi1ELin1ELb0EEES5_NS0_14swap_assign_opIdEENS0_11Dense2DenseEvE3runERS5_RKS5_RKS7_, symObjAddr: 0x2B7CC, symBinAddr: 0x10002E9E8, symSize: 0x40 }
  - { offsetInCU: 0x99B3D, offset: 0x99B3D, size: 0x8, addend: 0x0, symName: __ZN5Eigen8internal9evaluatorINS_5BlockINS_6MatrixIdLin1ELin1ELi0ELin1ELin1EEELi1ELin1ELb0EEEEC1ERKS5_, symObjAddr: 0x2B900, symBinAddr: 0x10002EB1C, symSize: 0x34 }
  - { offsetInCU: 0x99BC6, offset: 0x99BC6, size: 0x8, addend: 0x0, symName: __ZN5Eigen8internal31generic_dense_assignment_kernelINS0_9evaluatorINS_5BlockINS_6MatrixIdLin1ELin1ELi0ELin1ELin1EEELi1ELin1ELb0EEEEES7_NS0_14swap_assign_opIdEELi0EEC1ERS7_RKS7_RKS9_RS6_, symObjAddr: 0x2B9E8, symBinAddr: 0x10002EC04, symSize: 0x4C }
  - { offsetInCU: 0x99C2D, offset: 0x99C2D, size: 0x8, addend: 0x0, symName: __ZN5Eigen8internal21dense_assignment_loopINS0_31generic_dense_assignment_kernelINS0_9evaluatorINS_5BlockINS_6MatrixIdLin1ELin1ELi0ELin1ELin1EEELi1ELin1ELb0EEEEES8_NS0_14swap_assign_opIdEELi0EEELi1ELi0EE3runERSB_, symObjAddr: 0x2BA34, symBinAddr: 0x10002EC50, symSize: 0x68 }
  - { offsetInCU: 0x99C7D, offset: 0x99C7D, size: 0x8, addend: 0x0, symName: __ZN5Eigen8internal9evaluatorINS_5BlockINS_6MatrixIdLin1ELin1ELi0ELin1ELin1EEELi1ELin1ELb0EEEED1Ev, symObjAddr: 0x2BA9C, symBinAddr: 0x10002ECB8, symSize: 0x2C }
  - { offsetInCU: 0x99CAA, offset: 0x99CAA, size: 0x8, addend: 0x0, symName: __ZN5Eigen8internal9evaluatorINS_5BlockINS_6MatrixIdLin1ELin1ELi0ELin1ELin1EEELi1ELin1ELb0EEEEC2ERKS5_, symObjAddr: 0x2BAC8, symBinAddr: 0x10002ECE4, symSize: 0x34 }
  - { offsetInCU: 0x99CE3, offset: 0x99CE3, size: 0x8, addend: 0x0, symName: __ZN5Eigen8internal15block_evaluatorINS_6MatrixIdLin1ELin1ELi0ELin1ELin1EEELi1ELin1ELb0ELb1EEC2ERKNS_5BlockIS3_Li1ELin1ELb0EEE, symObjAddr: 0x2BAFC, symBinAddr: 0x10002ED18, symSize: 0xDC }
  - { offsetInCU: 0x99D1C, offset: 0x99D1C, size: 0x8, addend: 0x0, symName: __ZN5Eigen8internal17mapbase_evaluatorINS_5BlockINS_6MatrixIdLin1ELin1ELi0ELin1ELin1EEELi1ELin1ELb0EEENS3_IdLi1ELin1ELi1ELi1ELin1EEEEC2ERKS5_, symObjAddr: 0x2BBD8, symBinAddr: 0x10002EDF4, symSize: 0xB0 }
  - { offsetInCU: 0x99D55, offset: 0x99D55, size: 0x8, addend: 0x0, symName: __ZNK5Eigen7MapBaseINS_5BlockINS_6MatrixIdLin1ELin1ELi0ELin1ELin1EEELi1ELin1ELb0EEELi1EE4dataEv, symObjAddr: 0x2BC88, symBinAddr: 0x10002EEA4, symSize: 0x18 }
  - { offsetInCU: 0x99D7B, offset: 0x99D7B, size: 0x8, addend: 0x0, symName: __ZN5Eigen8internal17mapbase_evaluatorINS_5BlockINS_6MatrixIdLin1ELin1ELi0ELin1ELin1EEELi1ELin1ELb0EEENS3_IdLi1ELin1ELi1ELi1ELin1EEEED2Ev, symObjAddr: 0x2BCA0, symBinAddr: 0x10002EEBC, symSize: 0x2C }
  - { offsetInCU: 0x99DA8, offset: 0x99DA8, size: 0x8, addend: 0x0, symName: __ZN5Eigen8internal14evaluator_baseINS_5BlockINS_6MatrixIdLin1ELin1ELi0ELin1ELin1EEELi1ELin1ELb0EEEEC2Ev, symObjAddr: 0x2BCCC, symBinAddr: 0x10002EEE8, symSize: 0x14 }
  - { offsetInCU: 0x99DD2, offset: 0x99DD2, size: 0x8, addend: 0x0, symName: __ZNK5Eigen8internal15BlockImpl_denseINS_6MatrixIdLin1ELin1ELi0ELin1ELin1EEELi1ELin1ELb0ELb1EE11innerStrideEv, symObjAddr: 0x2BCE0, symBinAddr: 0x10002EEFC, symSize: 0x28 }
  - { offsetInCU: 0x99DF8, offset: 0x99DF8, size: 0x8, addend: 0x0, symName: __ZNK5Eigen8internal15BlockImpl_denseINS_6MatrixIdLin1ELin1ELi0ELin1ELin1EEELi1ELin1ELb0ELb1EE11outerStrideEv, symObjAddr: 0x2BD08, symBinAddr: 0x10002EF24, symSize: 0x28 }
  - { offsetInCU: 0x99E1E, offset: 0x99E1E, size: 0x8, addend: 0x0, symName: __ZN5Eigen8internal14evaluator_baseINS_5BlockINS_6MatrixIdLin1ELin1ELi0ELin1ELin1EEELi1ELin1ELb0EEEED2Ev, symObjAddr: 0x2BD30, symBinAddr: 0x10002EF4C, symSize: 0x14 }
  - { offsetInCU: 0x99E48, offset: 0x99E48, size: 0x8, addend: 0x0, symName: __ZN5Eigen8internal31generic_dense_assignment_kernelINS0_9evaluatorINS_5BlockINS_6MatrixIdLin1ELin1ELi0ELin1ELin1EEELi1ELin1ELb0EEEEES7_NS0_14swap_assign_opIdEELi0EEC2ERS7_RKS7_RKS9_RS6_, symObjAddr: 0x2BD44, symBinAddr: 0x10002EF60, symSize: 0x4C }
  - { offsetInCU: 0x99EAA, offset: 0x99EAA, size: 0x8, addend: 0x0, symName: __ZN5Eigen8internal31generic_dense_assignment_kernelINS0_9evaluatorINS_5BlockINS_6MatrixIdLin1ELin1ELi0ELin1ELin1EEELi1ELin1ELb0EEEEES7_NS0_14swap_assign_opIdEELi1EEC2ERS7_RKS7_RKS9_RS6_, symObjAddr: 0x2BD90, symBinAddr: 0x10002EFAC, symSize: 0x44 }
  - { offsetInCU: 0x99F10, offset: 0x99F10, size: 0x8, addend: 0x0, symName: __ZNK5Eigen8internal31generic_dense_assignment_kernelINS0_9evaluatorINS_5BlockINS_6MatrixIdLin1ELin1ELi0ELin1ELin1EEELi1ELin1ELb0EEEEES7_NS0_14swap_assign_opIdEELi1EE4sizeEv, symObjAddr: 0x2BDD4, symBinAddr: 0x10002EFF0, symSize: 0x28 }
  - { offsetInCU: 0x99F36, offset: 0x99F36, size: 0x8, addend: 0x0, symName: __ZN5Eigen8internal31generic_dense_assignment_kernelINS0_9evaluatorINS_5BlockINS_6MatrixIdLin1ELin1ELi0ELin1ELin1EEELi1ELin1ELb0EEEEES7_NS0_14swap_assign_opIdEELi1EE11assignCoeffEl, symObjAddr: 0x2BDFC, symBinAddr: 0x10002F018, symSize: 0x60 }
  - { offsetInCU: 0x99F6B, offset: 0x99F6B, size: 0x8, addend: 0x0, symName: __ZNK5Eigen9EigenBaseINS_5BlockINS_6MatrixIdLin1ELin1ELi0ELin1ELin1EEELi1ELin1ELb0EEEE4sizeEv, symObjAddr: 0x2BE5C, symBinAddr: 0x10002F078, symSize: 0x44 }
  - { offsetInCU: 0x99F91, offset: 0x99F91, size: 0x8, addend: 0x0, symName: __ZN5Eigen8internal17mapbase_evaluatorINS_5BlockINS_6MatrixIdLin1ELin1ELi0ELin1ELin1EEELi1ELin1ELb0EEENS3_IdLi1ELin1ELi1ELi1ELin1EEEE8coeffRefEl, symObjAddr: 0x2BEA0, symBinAddr: 0x10002F0BC, symSize: 0x4C }
  - { offsetInCU: 0x99FC6, offset: 0x99FC6, size: 0x8, addend: 0x0, symName: __ZNK5Eigen8internal17mapbase_evaluatorINS_5BlockINS_6MatrixIdLin1ELin1ELi0ELin1ELin1EEELi1ELin1ELb0EEENS3_IdLi1ELin1ELi1ELi1ELin1EEEE5coeffEl, symObjAddr: 0x2BEEC, symBinAddr: 0x10002F108, symSize: 0x4C }
  - { offsetInCU: 0x99FFB, offset: 0x99FFB, size: 0x8, addend: 0x0, symName: __ZN5Eigen8internal9evaluatorINS_5BlockINS_6MatrixIdLin1ELin1ELi0ELin1ELin1EEELi1ELin1ELb0EEEED2Ev, symObjAddr: 0x2BF38, symBinAddr: 0x10002F154, symSize: 0x2C }
  - { offsetInCU: 0x9A028, offset: 0x9A028, size: 0x8, addend: 0x0, symName: __ZN5Eigen8internal15block_evaluatorINS_6MatrixIdLin1ELin1ELi0ELin1ELin1EEELi1ELin1ELb0ELb1EED2Ev, symObjAddr: 0x2BF64, symBinAddr: 0x10002F180, symSize: 0x2C }
  - { offsetInCU: 0x9A055, offset: 0x9A055, size: 0x8, addend: 0x0, symName: __ZN5Eigen6MatrixIbLin1ELi1ELi0ELin1ELi1EED2Ev, symObjAddr: 0x2BF90, symBinAddr: 0x10002F1AC, symSize: 0x2C }
  - { offsetInCU: 0x9A081, offset: 0x9A081, size: 0x8, addend: 0x0, symName: __ZN5Eigen5BlockIKNS_14CwiseNullaryOpINS_8internal18scalar_identity_opIdEENS_6MatrixIdLin1ELin1ELi0ELin1ELin1EEEEELi1ELin1ELb0EEC2ERS8_l, symObjAddr: 0x2BFBC, symBinAddr: 0x10002F1D8, symSize: 0xCC }
  - { offsetInCU: 0x9A0C7, offset: 0x9A0C7, size: 0x8, addend: 0x0, symName: __ZN5Eigen9BlockImplIKNS_14CwiseNullaryOpINS_8internal18scalar_identity_opIdEENS_6MatrixIdLin1ELin1ELi0ELin1ELin1EEEEELi1ELin1ELb0ENS_5DenseEEC2ERS8_l, symObjAddr: 0x2C088, symBinAddr: 0x10002F2A4, symSize: 0x3C }
  - { offsetInCU: 0x9A10D, offset: 0x9A10D, size: 0x8, addend: 0x0, symName: __ZN5Eigen8internal15BlockImpl_denseIKNS_14CwiseNullaryOpINS0_18scalar_identity_opIdEENS_6MatrixIdLin1ELin1ELi0ELin1ELin1EEEEELi1ELin1ELb0ELb0EEC2ERS8_l, symObjAddr: 0x2C0C4, symBinAddr: 0x10002F2E0, symSize: 0x88 }
  - { offsetInCU: 0x9A153, offset: 0x9A153, size: 0x8, addend: 0x0, symName: __ZN5Eigen10MatrixBaseINS_5BlockIKNS_14CwiseNullaryOpINS_8internal18scalar_identity_opIdEENS_6MatrixIdLin1ELin1ELi0ELin1ELin1EEEEELi1ELin1ELb0EEEEC2Ev, symObjAddr: 0x2C14C, symBinAddr: 0x10002F368, symSize: 0x2C }
  - { offsetInCU: 0x9A17D, offset: 0x9A17D, size: 0x8, addend: 0x0, symName: __ZN5Eigen9DenseBaseINS_5BlockIKNS_14CwiseNullaryOpINS_8internal18scalar_identity_opIdEENS_6MatrixIdLin1ELin1ELi0ELin1ELin1EEEEELi1ELin1ELb0EEEEC2Ev, symObjAddr: 0x2C178, symBinAddr: 0x10002F394, symSize: 0x14 }
  - { offsetInCU: 0x9A1A7, offset: 0x9A1A7, size: 0x8, addend: 0x0, symName: __ZN5Eigen9BlockImplINS_6MatrixIdLin1ELin1ELi0ELin1ELin1EEELi1ELin1ELb0ENS_5DenseEEaSINS_5BlockIKNS_14CwiseNullaryOpINS_8internal18scalar_identity_opIdEES2_EELi1ELin1ELb0EEEEERS4_RKNS_9DenseBaseIT_EE, symObjAddr: 0x2C18C, symBinAddr: 0x10002F3A8, symSize: 0x40 }
  - { offsetInCU: 0x9A1E4, offset: 0x9A1E4, size: 0x8, addend: 0x0, symName: __ZNK5Eigen9EigenBaseINS_5BlockIKNS_14CwiseNullaryOpINS_8internal18scalar_identity_opIdEENS_6MatrixIdLin1ELin1ELi0ELin1ELin1EEEEELi1ELin1ELb0EEEE7derivedEv, symObjAddr: 0x2C1CC, symBinAddr: 0x10002F3E8, symSize: 0x14 }
  - { offsetInCU: 0x9A20A, offset: 0x9A20A, size: 0x8, addend: 0x0, symName: __ZN5Eigen8internal15BlockImpl_denseINS_6MatrixIdLin1ELin1ELi0ELin1ELin1EEELi1ELin1ELb0ELb1EEaSINS_5BlockIKNS_14CwiseNullaryOpINS0_18scalar_identity_opIdEES3_EELi1ELin1ELb0EEEEERS4_RKNS_9DenseBaseIT_EE, symObjAddr: 0x2C1E0, symBinAddr: 0x10002F3FC, symSize: 0x40 }
  - { offsetInCU: 0x9A248, offset: 0x9A248, size: 0x8, addend: 0x0, symName: __ZN5Eigen10MatrixBaseINS_5BlockINS_6MatrixIdLin1ELin1ELi0ELin1ELin1EEELi1ELin1ELb0EEEEaSINS1_IKNS_14CwiseNullaryOpINS_8internal18scalar_identity_opIdEES3_EELi1ELin1ELb0EEEEERS4_RKNS_9DenseBaseIT_EE, symObjAddr: 0x2C220, symBinAddr: 0x10002F43C, symSize: 0x4C }
  - { offsetInCU: 0x9A287, offset: 0x9A287, size: 0x8, addend: 0x0, symName: __ZN5Eigen8internal10AssignmentINS_5BlockINS_6MatrixIdLin1ELin1ELi0ELin1ELin1EEELi1ELin1ELb0EEENS2_IKNS_14CwiseNullaryOpINS0_18scalar_identity_opIdEES4_EELi1ELin1ELb0EEENS0_9assign_opIddEENS0_11Dense2DenseEvE3runERS5_RKSB_RKSD_, symObjAddr: 0x2C330, symBinAddr: 0x10002F54C, symSize: 0x40 }
  - { offsetInCU: 0x9A33C, offset: 0x9A33C, size: 0x8, addend: 0x0, symName: __ZN5Eigen8internal9evaluatorINS_5BlockIKNS_14CwiseNullaryOpINS0_18scalar_identity_opIdEENS_6MatrixIdLin1ELin1ELi0ELin1ELin1EEEEELi1ELin1ELb0EEEEC1ERKSA_, symObjAddr: 0x2C45C, symBinAddr: 0x10002F678, symSize: 0x34 }
  - { offsetInCU: 0x9A3A2, offset: 0x9A3A2, size: 0x8, addend: 0x0, symName: __ZN5Eigen8internal31generic_dense_assignment_kernelINS0_9evaluatorINS_5BlockINS_6MatrixIdLin1ELin1ELi0ELin1ELin1EEELi1ELin1ELb0EEEEENS2_INS3_IKNS_14CwiseNullaryOpINS0_18scalar_identity_opIdEES5_EELi1ELin1ELb0EEEEENS0_9assign_opIddEELi0EEC1ERS7_RKSE_RKSG_RS6_, symObjAddr: 0x2C588, symBinAddr: 0x10002F7A4, symSize: 0x4C }
  - { offsetInCU: 0x9A40D, offset: 0x9A40D, size: 0x8, addend: 0x0, symName: __ZN5Eigen8internal21dense_assignment_loopINS0_31generic_dense_assignment_kernelINS0_9evaluatorINS_5BlockINS_6MatrixIdLin1ELin1ELi0ELin1ELin1EEELi1ELin1ELb0EEEEENS3_INS4_IKNS_14CwiseNullaryOpINS0_18scalar_identity_opIdEES6_EELi1ELin1ELb0EEEEENS0_9assign_opIddEELi0EEELi1ELi0EE3runERSI_, symObjAddr: 0x2C5D4, symBinAddr: 0x10002F7F0, symSize: 0x68 }
  - { offsetInCU: 0x9A45D, offset: 0x9A45D, size: 0x8, addend: 0x0, symName: __ZN5Eigen8internal9evaluatorINS_5BlockIKNS_14CwiseNullaryOpINS0_18scalar_identity_opIdEENS_6MatrixIdLin1ELin1ELi0ELin1ELin1EEEEELi1ELin1ELb0EEEED1Ev, symObjAddr: 0x2C63C, symBinAddr: 0x10002F858, symSize: 0x2C }
  - { offsetInCU: 0x9A48A, offset: 0x9A48A, size: 0x8, addend: 0x0, symName: __ZN5Eigen8internal9evaluatorINS_5BlockIKNS_14CwiseNullaryOpINS0_18scalar_identity_opIdEENS_6MatrixIdLin1ELin1ELi0ELin1ELin1EEEEELi1ELin1ELb0EEEEC2ERKSA_, symObjAddr: 0x2C668, symBinAddr: 0x10002F884, symSize: 0x34 }
  - { offsetInCU: 0x9A4C3, offset: 0x9A4C3, size: 0x8, addend: 0x0, symName: __ZN5Eigen8internal15block_evaluatorIKNS_14CwiseNullaryOpINS0_18scalar_identity_opIdEENS_6MatrixIdLin1ELin1ELi0ELin1ELin1EEEEELi1ELin1ELb0ELb0EEC2ERKNS_5BlockIS8_Li1ELin1ELb0EEE, symObjAddr: 0x2C69C, symBinAddr: 0x10002F8B8, symSize: 0x34 }
  - { offsetInCU: 0x9A4FC, offset: 0x9A4FC, size: 0x8, addend: 0x0, symName: __ZN5Eigen8internal15unary_evaluatorINS_5BlockIKNS_14CwiseNullaryOpINS0_18scalar_identity_opIdEENS_6MatrixIdLin1ELin1ELi0ELin1ELin1EEEEELi1ELin1ELb0EEENS0_10IndexBasedEdEC2ERKSA_, symObjAddr: 0x2C6D0, symBinAddr: 0x10002F8EC, symSize: 0xE4 }
  - { offsetInCU: 0x9A535, offset: 0x9A535, size: 0x8, addend: 0x0, symName: __ZN5Eigen8internal14evaluator_baseINS_5BlockIKNS_14CwiseNullaryOpINS0_18scalar_identity_opIdEENS_6MatrixIdLin1ELin1ELi0ELin1ELin1EEEEELi1ELin1ELb0EEEEC2Ev, symObjAddr: 0x2C7B4, symBinAddr: 0x10002F9D0, symSize: 0x14 }
  - { offsetInCU: 0x9A55F, offset: 0x9A55F, size: 0x8, addend: 0x0, symName: __ZNK5Eigen8internal15BlockImpl_denseIKNS_14CwiseNullaryOpINS0_18scalar_identity_opIdEENS_6MatrixIdLin1ELin1ELi0ELin1ELin1EEEEELi1ELin1ELb0ELb0EE16nestedExpressionEv, symObjAddr: 0x2C7C8, symBinAddr: 0x10002F9E4, symSize: 0x14 }
  - { offsetInCU: 0x9A585, offset: 0x9A585, size: 0x8, addend: 0x0, symName: __ZN5Eigen8internal9evaluatorIKNS_14CwiseNullaryOpINS0_18scalar_identity_opIdEENS_6MatrixIdLin1ELin1ELi0ELin1ELin1EEEEEEC1ERS8_, symObjAddr: 0x2C7DC, symBinAddr: 0x10002F9F8, symSize: 0x34 }
  - { offsetInCU: 0x9A5BD, offset: 0x9A5BD, size: 0x8, addend: 0x0, symName: __ZNK5Eigen8internal15BlockImpl_denseIKNS_14CwiseNullaryOpINS0_18scalar_identity_opIdEENS_6MatrixIdLin1ELin1ELi0ELin1ELin1EEEEELi1ELin1ELb0ELb0EE8startRowEv, symObjAddr: 0x2C810, symBinAddr: 0x10002FA2C, symSize: 0x28 }
  - { offsetInCU: 0x9A5E3, offset: 0x9A5E3, size: 0x8, addend: 0x0, symName: __ZNK5Eigen8internal15BlockImpl_denseIKNS_14CwiseNullaryOpINS0_18scalar_identity_opIdEENS_6MatrixIdLin1ELin1ELi0ELin1ELin1EEEEELi1ELin1ELb0ELb0EE8startColEv, symObjAddr: 0x2C838, symBinAddr: 0x10002FA54, symSize: 0x28 }
  - { offsetInCU: 0x9A609, offset: 0x9A609, size: 0x8, addend: 0x0, symName: __ZN5Eigen8internal9evaluatorIKNS_14CwiseNullaryOpINS0_18scalar_identity_opIdEENS_6MatrixIdLin1ELin1ELi0ELin1ELin1EEEEEED1Ev, symObjAddr: 0x2C860, symBinAddr: 0x10002FA7C, symSize: 0x2C }
  - { offsetInCU: 0x9A635, offset: 0x9A635, size: 0x8, addend: 0x0, symName: __ZN5Eigen8internal14evaluator_baseINS_5BlockIKNS_14CwiseNullaryOpINS0_18scalar_identity_opIdEENS_6MatrixIdLin1ELin1ELi0ELin1ELin1EEEEELi1ELin1ELb0EEEED2Ev, symObjAddr: 0x2C88C, symBinAddr: 0x10002FAA8, symSize: 0x14 }
  - { offsetInCU: 0x9A65F, offset: 0x9A65F, size: 0x8, addend: 0x0, symName: __ZN5Eigen8internal9evaluatorIKNS_14CwiseNullaryOpINS0_18scalar_identity_opIdEENS_6MatrixIdLin1ELin1ELi0ELin1ELin1EEEEEEC2ERS8_, symObjAddr: 0x2C8A0, symBinAddr: 0x10002FABC, symSize: 0x34 }
  - { offsetInCU: 0x9A697, offset: 0x9A697, size: 0x8, addend: 0x0, symName: __ZN5Eigen8internal9evaluatorINS_14CwiseNullaryOpINS0_18scalar_identity_opIdEENS_6MatrixIdLin1ELin1ELi0ELin1ELin1EEEEEEC2ERKS7_, symObjAddr: 0x2C8D4, symBinAddr: 0x10002FAF0, symSize: 0x74 }
  - { offsetInCU: 0x9A6D0, offset: 0x9A6D0, size: 0x8, addend: 0x0, symName: __ZN5Eigen8internal14evaluator_baseINS_14CwiseNullaryOpINS0_18scalar_identity_opIdEENS_6MatrixIdLin1ELin1ELi0ELin1ELin1EEEEEEC2Ev, symObjAddr: 0x2C948, symBinAddr: 0x10002FB64, symSize: 0x14 }
  - { offsetInCU: 0x9A6FA, offset: 0x9A6FA, size: 0x8, addend: 0x0, symName: __ZNK5Eigen14CwiseNullaryOpINS_8internal18scalar_identity_opIdEENS_6MatrixIdLin1ELin1ELi0ELin1ELin1EEEE7functorEv, symObjAddr: 0x2C95C, symBinAddr: 0x10002FB78, symSize: 0x18 }
  - { offsetInCU: 0x9A720, offset: 0x9A720, size: 0x8, addend: 0x0, symName: __ZN5Eigen8internal14evaluator_baseINS_14CwiseNullaryOpINS0_18scalar_identity_opIdEENS_6MatrixIdLin1ELin1ELi0ELin1ELin1EEEEEED2Ev, symObjAddr: 0x2C974, symBinAddr: 0x10002FB90, symSize: 0x14 }
  - { offsetInCU: 0x9A74A, offset: 0x9A74A, size: 0x8, addend: 0x0, symName: __ZN5Eigen8internal9evaluatorIKNS_14CwiseNullaryOpINS0_18scalar_identity_opIdEENS_6MatrixIdLin1ELin1ELi0ELin1ELin1EEEEEED2Ev, symObjAddr: 0x2C988, symBinAddr: 0x10002FBA4, symSize: 0x2C }
  - { offsetInCU: 0x9A776, offset: 0x9A776, size: 0x8, addend: 0x0, symName: __ZN5Eigen8internal9evaluatorINS_14CwiseNullaryOpINS0_18scalar_identity_opIdEENS_6MatrixIdLin1ELin1ELi0ELin1ELin1EEEEEED2Ev, symObjAddr: 0x2C9B4, symBinAddr: 0x10002FBD0, symSize: 0x2C }
  - { offsetInCU: 0x9A7A2, offset: 0x9A7A2, size: 0x8, addend: 0x0, symName: __ZNK5Eigen8internal15BlockImpl_denseIKNS_14CwiseNullaryOpINS0_18scalar_identity_opIdEENS_6MatrixIdLin1ELin1ELi0ELin1ELin1EEEEELi1ELin1ELb0ELb0EE4rowsEv, symObjAddr: 0x2C9E0, symBinAddr: 0x10002FBFC, symSize: 0x20 }
  - { offsetInCU: 0x9A7C8, offset: 0x9A7C8, size: 0x8, addend: 0x0, symName: __ZNK5Eigen8internal15BlockImpl_denseIKNS_14CwiseNullaryOpINS0_18scalar_identity_opIdEENS_6MatrixIdLin1ELin1ELi0ELin1ELin1EEEEELi1ELin1ELb0ELb0EE4colsEv, symObjAddr: 0x2CA00, symBinAddr: 0x10002FC1C, symSize: 0x28 }
  - { offsetInCU: 0x9A7EE, offset: 0x9A7EE, size: 0x8, addend: 0x0, symName: __ZN5Eigen9DenseBaseINS_5BlockINS_6MatrixIdLin1ELin1ELi0ELin1ELin1EEELi1ELin1ELb0EEEE6resizeEll, symObjAddr: 0x2CA28, symBinAddr: 0x10002FC44, symSize: 0xBC }
  - { offsetInCU: 0x9A832, offset: 0x9A832, size: 0x8, addend: 0x0, symName: __ZN5Eigen8internal31generic_dense_assignment_kernelINS0_9evaluatorINS_5BlockINS_6MatrixIdLin1ELin1ELi0ELin1ELin1EEELi1ELin1ELb0EEEEENS2_INS3_IKNS_14CwiseNullaryOpINS0_18scalar_identity_opIdEES5_EELi1ELin1ELb0EEEEENS0_9assign_opIddEELi0EEC2ERS7_RKSE_RKSG_RS6_, symObjAddr: 0x2CAE4, symBinAddr: 0x10002FD00, symSize: 0x44 }
  - { offsetInCU: 0x9A898, offset: 0x9A898, size: 0x8, addend: 0x0, symName: __ZNK5Eigen8internal31generic_dense_assignment_kernelINS0_9evaluatorINS_5BlockINS_6MatrixIdLin1ELin1ELi0ELin1ELin1EEELi1ELin1ELb0EEEEENS2_INS3_IKNS_14CwiseNullaryOpINS0_18scalar_identity_opIdEES5_EELi1ELin1ELb0EEEEENS0_9assign_opIddEELi0EE4sizeEv, symObjAddr: 0x2CB28, symBinAddr: 0x10002FD44, symSize: 0x28 }
  - { offsetInCU: 0x9A8BE, offset: 0x9A8BE, size: 0x8, addend: 0x0, symName: __ZN5Eigen8internal31generic_dense_assignment_kernelINS0_9evaluatorINS_5BlockINS_6MatrixIdLin1ELin1ELi0ELin1ELin1EEELi1ELin1ELb0EEEEENS2_INS3_IKNS_14CwiseNullaryOpINS0_18scalar_identity_opIdEES5_EELi1ELin1ELb0EEEEENS0_9assign_opIddEELi0EE11assignCoeffEl, symObjAddr: 0x2CB50, symBinAddr: 0x10002FD6C, symSize: 0x64 }
  - { offsetInCU: 0x9A8F3, offset: 0x9A8F3, size: 0x8, addend: 0x0, symName: __ZNK5Eigen8internal15unary_evaluatorINS_5BlockIKNS_14CwiseNullaryOpINS0_18scalar_identity_opIdEENS_6MatrixIdLin1ELin1ELi0ELin1ELin1EEEEELi1ELin1ELb0EEENS0_10IndexBasedEdE5coeffEl, symObjAddr: 0x2CBB4, symBinAddr: 0x10002FDD0, symSize: 0x2C }
  - { offsetInCU: 0x9A928, offset: 0x9A928, size: 0x8, addend: 0x0, symName: __ZNK5Eigen8internal15unary_evaluatorINS_5BlockIKNS_14CwiseNullaryOpINS0_18scalar_identity_opIdEENS_6MatrixIdLin1ELin1ELi0ELin1ELin1EEEEELi1ELin1ELb0EEENS0_10IndexBasedEdE17linear_coeff_implElNS0_10false_typeE, symObjAddr: 0x2CBE0, symBinAddr: 0x10002FDFC, symSize: 0x30 }
  - { offsetInCU: 0x9A968, offset: 0x9A968, size: 0x8, addend: 0x0, symName: __ZNK5Eigen8internal15unary_evaluatorINS_5BlockIKNS_14CwiseNullaryOpINS0_18scalar_identity_opIdEENS_6MatrixIdLin1ELin1ELi0ELin1ELin1EEEEELi1ELin1ELb0EEENS0_10IndexBasedEdE5coeffEll, symObjAddr: 0x2CC10, symBinAddr: 0x10002FE2C, symSize: 0x64 }
  - { offsetInCU: 0x9A9B6, offset: 0x9A9B6, size: 0x8, addend: 0x0, symName: __ZNK5Eigen8internal9evaluatorINS_14CwiseNullaryOpINS0_18scalar_identity_opIdEENS_6MatrixIdLin1ELin1ELi0ELin1ELin1EEEEEE5coeffIlEEdT_SA_, symObjAddr: 0x2CC74, symBinAddr: 0x10002FE90, symSize: 0x3C }
  - { offsetInCU: 0x9AA08, offset: 0x9AA08, size: 0x8, addend: 0x0, symName: __ZNK5Eigen8internal15nullary_wrapperIdNS0_18scalar_identity_opIdEELb0ELb0ELb1EEclIlEEdRKS3_T_S8_, symObjAddr: 0x2CCB0, symBinAddr: 0x10002FECC, symSize: 0x38 }
  - { offsetInCU: 0x9AA69, offset: 0x9AA69, size: 0x8, addend: 0x0, symName: __ZNK5Eigen8internal18scalar_identity_opIdEclIlEEKdT_S5_, symObjAddr: 0x2CCE8, symBinAddr: 0x10002FF04, symSize: 0x3C }
  - { offsetInCU: 0x9AAB4, offset: 0x9AAB4, size: 0x8, addend: 0x0, symName: __ZN5Eigen8internal9evaluatorINS_5BlockIKNS_14CwiseNullaryOpINS0_18scalar_identity_opIdEENS_6MatrixIdLin1ELin1ELi0ELin1ELin1EEEEELi1ELin1ELb0EEEED2Ev, symObjAddr: 0x2CD24, symBinAddr: 0x10002FF40, symSize: 0x2C }
  - { offsetInCU: 0x9AAE1, offset: 0x9AAE1, size: 0x8, addend: 0x0, symName: __ZN5Eigen8internal15block_evaluatorIKNS_14CwiseNullaryOpINS0_18scalar_identity_opIdEENS_6MatrixIdLin1ELin1ELi0ELin1ELin1EEEEELi1ELin1ELb0ELb0EED2Ev, symObjAddr: 0x2CD50, symBinAddr: 0x10002FF6C, symSize: 0x2C }
  - { offsetInCU: 0x9AB0E, offset: 0x9AB0E, size: 0x8, addend: 0x0, symName: __ZN5Eigen8internal15unary_evaluatorINS_5BlockIKNS_14CwiseNullaryOpINS0_18scalar_identity_opIdEENS_6MatrixIdLin1ELin1ELi0ELin1ELin1EEEEELi1ELin1ELb0EEENS0_10IndexBasedEdED2Ev, symObjAddr: 0x2CD7C, symBinAddr: 0x10002FF98, symSize: 0x34 }
  - { offsetInCU: 0x9AB3A, offset: 0x9AB3A, size: 0x8, addend: 0x0, symName: __ZN5Eigen14TriangularViewIKNS_6MatrixIdLin1ELin1ELi0ELin1ELin1EEELj5EEC1ERS3_, symObjAddr: 0x2CDB0, symBinAddr: 0x10002FFCC, symSize: 0x34 }
  - { offsetInCU: 0x9AB72, offset: 0x9AB72, size: 0x8, addend: 0x0, symName: __ZN5Eigen14TriangularViewIKNS_6MatrixIdLin1ELin1ELi0ELin1ELin1EEELj5EEC2ERS3_, symObjAddr: 0x2CDE4, symBinAddr: 0x100030000, symSize: 0x38 }
